
/Volumes/MacSSD1/DeveloperWorkspace/Projects/Pimoroni_launch/pga2350-carrier/firmware/ghostshow/build/sim-riscv-mc/ghostshow.elf:     file format elf32-littleriscv

Sections:
Idx Name          Size      VMA       LMA       File off  Algn
  0 .text         0000ada4  20000000  20000000  00001000  2**6
                  CONTENTS, ALLOC, LOAD, READONLY, CODE
  1 .rodata       0000122c  2000ada8  2000ada8  0000bda8  2**3
                  CONTENTS, ALLOC, LOAD, READONLY, DATA
  2 .binary_info  00000020  2000bfd4  2000bfd4  0000cfd4  2**2
                  CONTENTS, ALLOC, LOAD, READONLY, DATA
  3 .data         000001f0  2000bff8  2000bff8  0000cff8  2**3
                  CONTENTS, ALLOC, LOAD, DATA
  4 .tdata        00000000  2000c1e8  2000c1e8  0000d1e8  2**0
                  CONTENTS, ALLOC, LOAD, DATA, THREAD_LOCAL
  5 .uninitialized_data 00000000  2000c1e8  2000c1e8  0000d1e8  2**0
                  CONTENTS
  6 .tbss         00000000  2000c1e8  2000c1e8  00000000  2**0
                  ALLOC, THREAD_LOCAL
  7 .bss          00000600  2000c1e8  2000c1e8  0000d1e8  2**3
                  ALLOC
  8 .heap         00000800  2000c7e8  2000c7e8  0000d1e8  2**2
                  CONTENTS, READONLY
  9 .scratch_x    00000000  20080000  20080000  0000d9e8  2**0
                  CONTENTS
 10 .scratch_y    00000000  20081000  20081000  0000d9e8  2**0
                  CONTENTS
 11 .stack1_dummy 00000800  20080000  20080000  0000e000  2**2
                  ALLOC
 12 .stack_dummy  00000800  20081000  20081000  0000da00  2**5
                  CONTENTS, READONLY
 13 .debug_info   00032afc  00000000  00000000  0000e200  2**0
                  CONTENTS, READONLY, DEBUGGING, OCTETS
 14 .debug_abbrev 0000989b  00000000  00000000  00040cfc  2**0
                  CONTENTS, READONLY, DEBUGGING, OCTETS
 15 .debug_loclists 00045298  00000000  00000000  0004a597  2**0
                  CONTENTS, READONLY, DEBUGGING, OCTETS
 16 .debug_aranges 000011c0  00000000  00000000  0008f830  2**3
                  CONTENTS, READONLY, DEBUGGING, OCTETS
 17 .debug_rnglists 00007282  00000000  00000000  000909f0  2**0
                  CONTENTS, READONLY, DEBUGGING, OCTETS
 18 .debug_line   0004004a  00000000  00000000  00097c72  2**0
                  CONTENTS, READONLY, DEBUGGING, OCTETS
 19 .debug_str    00006c8e  00000000  00000000  000d7cbc  2**0
                  CONTENTS, READONLY, DEBUGGING, OCTETS
 20 .debug_line_str 0000244e  00000000  00000000  000de94a  2**0
                  CONTENTS, READONLY, DEBUGGING, OCTETS
 21 .comment      00000021  00000000  00000000  000e0d98  2**0
                  CONTENTS, READONLY
 22 .riscv.attributes 00000089  00000000  00000000  000e0db9  2**0
                  CONTENTS, READONLY
 23 .debug_frame  00002d78  00000000  00000000  000e0e44  2**2
                  CONTENTS, READONLY, DEBUGGING, OCTETS

/Volumes/MacSSD1/DeveloperWorkspace/Projects/Pimoroni_launch/pga2350-carrier/firmware/ghostshow/build/sim-riscv-mc/ghostshow.elf:     file format elf32-littleriscv


Disassembly of section .text:

20000000 <__VECTOR_TABLE>:
20000000:	1a00006f          	j	200001a0 <__default_isrs_start>
	...
2000000c:	1960006f          	j	200001a2 <isr_riscv_machine_soft_irq>
	...
2000001c:	1840006f          	j	200001a0 <__default_isrs_start>
	...

2000002c <isr_riscv_machine_external_irq>:
2000002c:	715d                	addi	sp,sp,-80
2000002e:	c006                	sw	ra,0(sp)
20000030:	c216                	sw	t0,4(sp)
20000032:	c41a                	sw	t1,8(sp)
20000034:	c61e                	sw	t2,12(sp)
20000036:	c82a                	sw	a0,16(sp)
20000038:	ca2e                	sw	a1,20(sp)
2000003a:	cc32                	sw	a2,24(sp)
2000003c:	ce36                	sw	a3,28(sp)
2000003e:	d03a                	sw	a4,32(sp)
20000040:	d23e                	sw	a5,36(sp)
20000042:	d442                	sw	a6,40(sp)
20000044:	d646                	sw	a7,44(sp)
20000046:	d872                	sw	t3,48(sp)
20000048:	da76                	sw	t4,52(sp)
2000004a:	dc7a                	sw	t5,56(sp)
2000004c:	de7e                	sw	t6,60(sp)
2000004e:	34102573          	csrr	a0,mepc
20000052:	300025f3          	csrr	a1,mstatus
20000056:	c0aa                	sw	a0,64(sp)
20000058:	c2ae                	sw	a1,68(sp)

2000005a <save_meicontext>:
2000005a:	be516673          	csrrsi	a2,0xbe5,2
2000005e:	c4b2                	sw	a2,72(sp)

20000060 <get_first_irq>:
20000060:	be40e573          	csrrsi	a0,0xbe4,1
20000064:	02054163          	bltz	a0,20000086 <no_more_irqs>

20000068 <dispatch_irq>:
20000068:	30046073          	csrsi	mstatus,8
2000006c:	200005b7          	lui	a1,0x20000
20000070:	95aa                	add	a1,a1,a0
20000072:	0d05a583          	lw	a1,208(a1) # 200000d0 <__soft_vector_table>
20000076:	000580e7          	jalr	a1
2000007a:	30047073          	csrci	mstatus,8

2000007e <get_next_irq>:
2000007e:	be40e573          	csrrsi	a0,0xbe4,1
20000082:	fe0553e3          	bgez	a0,20000068 <dispatch_irq>

20000086 <no_more_irqs>:
20000086:	4506                	lw	a0,64(sp)
20000088:	4596                	lw	a1,68(sp)
2000008a:	4626                	lw	a2,72(sp)
2000008c:	34151073          	csrw	mepc,a0
20000090:	30059073          	csrw	mstatus,a1
20000094:	be561073          	csrw	0xbe5,a2
20000098:	4082                	lw	ra,0(sp)
2000009a:	4292                	lw	t0,4(sp)
2000009c:	4322                	lw	t1,8(sp)
2000009e:	43b2                	lw	t2,12(sp)
200000a0:	45d2                	lw	a1,20(sp)
200000a2:	4662                	lw	a2,24(sp)
200000a4:	46f2                	lw	a3,28(sp)
200000a6:	5702                	lw	a4,32(sp)
200000a8:	5792                	lw	a5,36(sp)
200000aa:	5822                	lw	a6,40(sp)
200000ac:	58b2                	lw	a7,44(sp)
200000ae:	5e42                	lw	t3,48(sp)
200000b0:	5ed2                	lw	t4,52(sp)
200000b2:	5f62                	lw	t5,56(sp)
200000b4:	5ff2                	lw	t6,60(sp)

200000b6 <check_irq_before_exit>:
200000b6:	be402573          	csrr	a0,0xbe4
200000ba:	fa0550e3          	bgez	a0,2000005a <save_meicontext>
200000be:	4542                	lw	a0,16(sp)
200000c0:	6161                	addi	sp,sp,80
200000c2:	30200073          	mret
200000c6:	00000013          	nop
200000ca:	00000013          	nop
200000ce:	0001                	nop

200000d0 <__soft_vector_table>:
200000d0:	200001a4          	.word	0x200001a4
200000d4:	200001a4          	.word	0x200001a4
200000d8:	200001a4          	.word	0x200001a4
200000dc:	200001a4          	.word	0x200001a4
200000e0:	200001a4          	.word	0x200001a4
200000e4:	200001a4          	.word	0x200001a4
200000e8:	200001a4          	.word	0x200001a4
200000ec:	200001a4          	.word	0x200001a4
200000f0:	200001a4          	.word	0x200001a4
200000f4:	200001a4          	.word	0x200001a4
200000f8:	200001a4          	.word	0x200001a4
200000fc:	200001a4          	.word	0x200001a4
20000100:	200001a4          	.word	0x200001a4
20000104:	200001a4          	.word	0x200001a4
20000108:	200001a4          	.word	0x200001a4
2000010c:	200001a4          	.word	0x200001a4
20000110:	200001a4          	.word	0x200001a4
20000114:	200001a4          	.word	0x200001a4
20000118:	200001a4          	.word	0x200001a4
2000011c:	200001a4          	.word	0x200001a4
20000120:	200001a4          	.word	0x200001a4
20000124:	200001a4          	.word	0x200001a4
20000128:	200001a4          	.word	0x200001a4
2000012c:	200001a4          	.word	0x200001a4
20000130:	200001a4          	.word	0x200001a4
20000134:	200001a4          	.word	0x200001a4
20000138:	200001a4          	.word	0x200001a4
2000013c:	200001a4          	.word	0x200001a4
20000140:	200001a4          	.word	0x200001a4
20000144:	200001a4          	.word	0x200001a4
20000148:	200001a4          	.word	0x200001a4
2000014c:	200001a4          	.word	0x200001a4
20000150:	200001a4          	.word	0x200001a4
20000154:	200001a4          	.word	0x200001a4
20000158:	200001a4          	.word	0x200001a4
2000015c:	200001a4          	.word	0x200001a4
20000160:	200001a4          	.word	0x200001a4
20000164:	200001a4          	.word	0x200001a4
20000168:	200001a4          	.word	0x200001a4
2000016c:	200001a4          	.word	0x200001a4
20000170:	200001a4          	.word	0x200001a4
20000174:	200001a4          	.word	0x200001a4
20000178:	200001a4          	.word	0x200001a4
2000017c:	200001a4          	.word	0x200001a4
20000180:	200001a4          	.word	0x200001a4
20000184:	200001a4          	.word	0x200001a4
20000188:	200001a4          	.word	0x200001a4
2000018c:	200001a4          	.word	0x200001a4
20000190:	200001a4          	.word	0x200001a4
20000194:	200001a4          	.word	0x200001a4
20000198:	200001a4          	.word	0x200001a4
2000019c:	200001a4          	.word	0x200001a4

200001a0 <__default_isrs_start>:
200001a0:	9002                	ebreak

200001a2 <isr_riscv_machine_soft_irq>:
200001a2:	9002                	ebreak

200001a4 <__unhandled_user_irq>:
200001a4:	8109                	srli	a0,a0,0x2
200001a6:	9002                	ebreak

200001a8 <__default_isrs_end>:
200001a8:	0001                	nop
200001aa:	00000013          	nop
200001ae:	00000013          	nop
200001b2:	00000013          	nop
200001b6:	00000013          	nop
200001ba:	00000013          	nop
	...

200001c0 <__bi_54>:
200001c0:	50520006 5360b3ab 2000b120              ..RP..`S .. 

200001cc <__bi_42>:
200001cc:	50520006 02031c86 2000b13c              ..RP....<.. 

200001d8 <__bi_34>:
200001d8:	50520006 9da22254 2000b148              ..RPT"..H.. 

200001e4 <binary_info_header>:
200001e4:	ebf2                	.insn	2, 0xebf2
200001e6:	7188                	.insn	2, 0x7188
200001e8:	bfd4                	.insn	2, 0xbfd4
200001ea:	2000                	.insn	2, 0x2000
200001ec:	bff4                	.insn	2, 0xbff4
200001ee:	2000                	.insn	2, 0x2000
200001f0:	027c                	addi	a5,sp,268
200001f2:	2000                	.insn	2, 0x2000
200001f4:	a390                	.insn	2, 0xa390
200001f6:	e71a                	.insn	2, 0xe71a

200001f8 <__binary_info_header_end>:
200001f8:	ffffded3          	.insn	4, 0xffffded3
200001fc:	0142                	slli	sp,sp,0x10
200001fe:	1101                	addi	sp,sp,-32
20000200:	0344                	addi	s1,sp,388
20000202:	0000                	unimp
20000204:	0222                	slli	tp,tp,0x8
20000206:	2000                	.insn	2, 0x2000
20000208:	2000                	.insn	2, 0x2000
2000020a:	2008                	.insn	2, 0x2008
2000020c:	00000203          	lb	tp,0(zero) # 0 <next_slot_number-0x5>
20000210:	0000                	unimp
20000212:	2000                	.insn	2, 0x2000
20000214:	06ff 0000 0000 0000 	.insn	10, 0x357900000000000006ff
2000021c:	3579 
2000021e:	ab12                	.insn	2, 0xab12

20000220 <__embedded_block_end>:
20000220:	a009                	j	20000222 <_reset_handler>

20000222 <_reset_handler>:
20000222:	0000d197          	auipc	gp,0xd
20000226:	d6a18193          	addi	gp,gp,-662 # 2000cf8c <__global_pointer$>
2000022a:	00082117          	auipc	sp,0x82
2000022e:	dd610113          	addi	sp,sp,-554 # 20082000 <__StackTop>
20000232:	00000517          	auipc	a0,0x0
20000236:	dcf50513          	addi	a0,a0,-561 # 20000001 <__VECTOR_TABLE+0x1>
2000023a:	30551073          	csrw	mtvec,a0
2000023e:	f1402573          	csrr	a0,mhartid
20000242:	e135                	bnez	a0,200002a6 <reenter_bootrom>
20000244:	0000c597          	auipc	a1,0xc
20000248:	fa458593          	addi	a1,a1,-92 # 2000c1e8 <default_alarm_pool_entries>
2000024c:	0000c617          	auipc	a2,0xc
20000250:	59c60613          	addi	a2,a2,1436 # 2000c7e8 <__bss_end__>
20000254:	a021                	j	2000025c <bss_fill_test>

20000256 <bss_fill_loop>:
20000256:	0005a023          	sw	zero,0(a1)
2000025a:	0591                	addi	a1,a1,4

2000025c <bss_fill_test>:
2000025c:	fec59de3          	bne	a1,a2,20000256 <bss_fill_loop>

20000260 <platform_entry>:
20000260:	225060ef          	jal	20006c84 <runtime_init>
20000264:	2631                	jal	20000570 <main>
20000266:	219060ef          	jal	20006c7e <exit>
2000026a:	9002                	ebreak
2000026c:	bffd                	j	2000026a <platform_entry+0xa>

2000026e <data_cpy_loop>:
2000026e:	4188                	lw	a0,0(a1)
20000270:	c208                	sw	a0,0(a2)
20000272:	0591                	addi	a1,a1,4
20000274:	0611                	addi	a2,a2,4

20000276 <data_cpy>:
20000276:	fed66ce3          	bltu	a2,a3,2000026e <data_cpy_loop>
2000027a:	8082                	ret

2000027c <data_cpy_table>:
2000027c:	2000bff8          	.word	0x2000bff8
20000280:	2000bff8          	.word	0x2000bff8
20000284:	2000c1e8          	.word	0x2000c1e8
20000288:	20080000          	.word	0x20080000
2000028c:	20080000          	.word	0x20080000
20000290:	20080000          	.word	0x20080000
20000294:	20081000          	.word	0x20081000
20000298:	20081000          	.word	0x20081000
2000029c:	20081000          	.word	0x20081000
200002a0:	00000000          	.word	0x00000000
200002a4:	8082                	ret

200002a6 <reenter_bootrom>:
200002a6:	6521                	lui	a0,0x8
200002a8:	dfc50513          	addi	a0,a0,-516 # 7dfc <HeapSize+0x75fc>
200002ac:	8502                	jr	a0
200002ae:	0001                	nop

200002b0 <mutex_enter_block_until>:
200002b0:	d00007b7          	lui	a5,0xd0000
200002b4:	439c                	lw	a5,0(a5)
200002b6:	1101                	addi	sp,sp,-32
200002b8:	cc22                	sw	s0,24(sp)
200002ba:	ca26                	sw	s1,20(sp)
200002bc:	c84a                	sw	s2,16(sp)
200002be:	c64e                	sw	s3,12(sp)
200002c0:	ce06                	sw	ra,28(sp)
200002c2:	84be                	mv	s1,a5
200002c4:	842a                	mv	s0,a0
200002c6:	892e                	mv	s2,a1
200002c8:	89b2                	mv	s3,a2
200002ca:	a821                	j	200002e2 <mutex_enter_block_until+0x32>
200002cc:	0330000f          	fence	rw,rw
200002d0:	00070023          	sb	zero,0(a4)
200002d4:	3007a073          	csrs	mstatus,a5
200002d8:	854a                	mv	a0,s2
200002da:	85ce                	mv	a1,s3
200002dc:	09d040ef          	jal	20004b78 <best_effort_wfe_or_timeout>
200002e0:	e531                	bnez	a0,2000032c <mutex_enter_block_until+0x7c>
200002e2:	401c                	lw	a5,0(s0)
200002e4:	30047773          	csrrci	a4,mstatus,8
200002e8:	00379693          	slli	a3,a5,0x3
200002ec:	28d016b3          	bset	a3,zero,a3
200002f0:	9bf1                	andi	a5,a5,-4
200002f2:	44d7a62f          	amoor.w.aq	a2,a3,(a5)
200002f6:	8e75                	and	a2,a2,a3
200002f8:	fe6d                	bnez	a2,200002f2 <mutex_enter_block_until+0x42>
200002fa:	0330000f          	fence	rw,rw
200002fe:	00440683          	lb	a3,4(s0)
20000302:	00877793          	andi	a5,a4,8
20000306:	4018                	lw	a4,0(s0)
20000308:	fc06d2e3          	bgez	a3,200002cc <mutex_enter_block_until+0x1c>
2000030c:	00940223          	sb	s1,4(s0)
20000310:	0330000f          	fence	rw,rw
20000314:	00070023          	sb	zero,0(a4)
20000318:	3007a073          	csrs	mstatus,a5
2000031c:	40f2                	lw	ra,28(sp)
2000031e:	4462                	lw	s0,24(sp)
20000320:	44d2                	lw	s1,20(sp)
20000322:	4942                	lw	s2,16(sp)
20000324:	49b2                	lw	s3,12(sp)
20000326:	4505                	li	a0,1
20000328:	6105                	addi	sp,sp,32
2000032a:	8082                	ret
2000032c:	40f2                	lw	ra,28(sp)
2000032e:	4462                	lw	s0,24(sp)
20000330:	44d2                	lw	s1,20(sp)
20000332:	4942                	lw	s2,16(sp)
20000334:	49b2                	lw	s3,12(sp)
20000336:	4501                	li	a0,0
20000338:	6105                	addi	sp,sp,32
2000033a:	8082                	ret

2000033c <mutex_try_enter_block_until>:
2000033c:	411c                	lw	a5,0(a0)
2000033e:	30047773          	csrrci	a4,mstatus,8
20000342:	00379693          	slli	a3,a5,0x3
20000346:	28d016b3          	bset	a3,zero,a3
2000034a:	9bf1                	andi	a5,a5,-4
2000034c:	44d7a82f          	amoor.w.aq	a6,a3,(a5)
20000350:	00d87833          	and	a6,a6,a3
20000354:	fe081ce3          	bnez	a6,2000034c <mutex_try_enter_block_until+0x10>
20000358:	0330000f          	fence	rw,rw
2000035c:	00450683          	lb	a3,4(a0)
20000360:	00877793          	andi	a5,a4,8
20000364:	4118                	lw	a4,0(a0)
20000366:	0206c263          	bltz	a3,2000038a <mutex_try_enter_block_until+0x4e>
2000036a:	0330000f          	fence	rw,rw
2000036e:	00070023          	sb	zero,0(a4)
20000372:	3007a073          	csrs	mstatus,a5
20000376:	d00007b7          	lui	a5,0xd0000
2000037a:	00078703          	lb	a4,0(a5) # d0000000 <__StackTop+0xaff7e000>
2000037e:	4781                	li	a5,0
20000380:	00d71463          	bne	a4,a3,20000388 <mutex_try_enter_block_until+0x4c>
20000384:	853e                	mv	a0,a5
20000386:	8082                	ret
20000388:	b725                	j	200002b0 <mutex_enter_block_until>
2000038a:	d00006b7          	lui	a3,0xd0000
2000038e:	4294                	lw	a3,0(a3)
20000390:	00d50223          	sb	a3,4(a0)
20000394:	0330000f          	fence	rw,rw
20000398:	00070023          	sb	zero,0(a4)
2000039c:	3007a073          	csrs	mstatus,a5
200003a0:	4785                	li	a5,1
200003a2:	853e                	mv	a0,a5
200003a4:	8082                	ret

200003a6 <mutex_exit>:
200003a6:	411c                	lw	a5,0(a0)
200003a8:	30047773          	csrrci	a4,mstatus,8
200003ac:	00379693          	slli	a3,a5,0x3
200003b0:	28d016b3          	bset	a3,zero,a3
200003b4:	9bf1                	andi	a5,a5,-4
200003b6:	44d7a62f          	amoor.w.aq	a2,a3,(a5)
200003ba:	8e75                	and	a2,a2,a3
200003bc:	fe6d                	bnez	a2,200003b6 <mutex_exit+0x10>
200003be:	0330000f          	fence	rw,rw
200003c2:	57fd                	li	a5,-1
200003c4:	00f50223          	sb	a5,4(a0)
200003c8:	411c                	lw	a5,0(a0)
200003ca:	0330000f          	fence	rw,rw
200003ce:	00078023          	sb	zero,0(a5)
200003d2:	8b21                	andi	a4,a4,8
200003d4:	30072073          	csrs	mstatus,a4
200003d8:	00102033          	sgtz	zero,ra
200003dc:	8082                	ret

200003de <sim_printf>:
200003de:	7129                	addi	sp,sp,-320
200003e0:	12410313          	addi	t1,sp,292
200003e4:	12b12223          	sw	a1,292(sp)
200003e8:	12c12423          	sw	a2,296(sp)
200003ec:	12d12623          	sw	a3,300(sp)
200003f0:	862a                	mv	a2,a0
200003f2:	869a                	mv	a3,t1
200003f4:	0808                	addi	a0,sp,16
200003f6:	10000593          	li	a1,256
200003fa:	10112e23          	sw	ra,284(sp)
200003fe:	12e12823          	sw	a4,304(sp)
20000402:	12f12a23          	sw	a5,308(sp)
20000406:	13012c23          	sw	a6,312(sp)
2000040a:	13112e23          	sw	a7,316(sp)
2000040e:	c61a                	sw	t1,12(sp)
20000410:	009060ef          	jal	20006c18 <__wrap_vsnprintf>
20000414:	02a05a63          	blez	a0,20000448 <sim_printf+0x6a>
20000418:	83c19803          	lh	a6,-1988(gp) # 2000c7c8 <uart_char_to_line_feed>
2000041c:	10000793          	li	a5,256
20000420:	0af54533          	min	a0,a0,a5
20000424:	0814                	addi	a3,sp,16
20000426:	4601                	li	a2,0
20000428:	40070737          	lui	a4,0x40070
2000042c:	48b5                	li	a7,13
2000042e:	0006c583          	lbu	a1,0(a3) # d0000000 <__StackTop+0xaff7e000>
20000432:	00b80f63          	beq	a6,a1,20000450 <sim_printf+0x72>
20000436:	4f1c                	lw	a5,24(a4)
20000438:	0207f793          	andi	a5,a5,32
2000043c:	ffed                	bnez	a5,20000436 <sim_printf+0x58>
2000043e:	c30c                	sw	a1,0(a4)
20000440:	0605                	addi	a2,a2,1
20000442:	0685                	addi	a3,a3,1
20000444:	fea645e3          	blt	a2,a0,2000042e <sim_printf+0x50>
20000448:	11c12083          	lw	ra,284(sp)
2000044c:	6131                	addi	sp,sp,320
2000044e:	8082                	ret
20000450:	4f1c                	lw	a5,24(a4)
20000452:	0207f793          	andi	a5,a5,32
20000456:	ffed                	bnez	a5,20000450 <sim_printf+0x72>
20000458:	01172023          	sw	a7,0(a4) # 40070000 <__StackTop+0x1ffee000>
2000045c:	bfe9                	j	20000436 <sim_printf+0x58>

2000045e <start_transition.part.0>:
2000045e:	2000c7b7          	lui	a5,0x2000c
20000462:	f287a683          	lw	a3,-216(a5) # 2000bf28 <N_EFFECTS>
20000466:	9e3787b7          	lui	a5,0x9e378
2000046a:	9b178793          	addi	a5,a5,-1615 # 9e3779b1 <__StackTop+0x7e2f59b1>
2000046e:	02d56533          	rem	a0,a0,a3
20000472:	9e378737          	lui	a4,0x9e378
20000476:	9b970713          	addi	a4,a4,-1607 # 9e3779b9 <__StackTop+0x7e2f59b9>
2000047a:	81c1c603          	lbu	a2,-2020(gp) # 2000c7a8 <sfx_enabled>
2000047e:	2000ceb7          	lui	t4,0x2000c
20000482:	2000c837          	lui	a6,0x2000c
20000486:	2000c337          	lui	t1,0x2000c
2000048a:	4e05                	li	t3,1
2000048c:	78bea823          	sw	a1,1936(t4) # 2000c790 <trans_start_ms>
20000490:	79c306a3          	sb	t3,1933(t1) # 2000c78d <transitioning>
20000494:	9536                	add	a0,a0,a3
20000496:	02d56533          	rem	a0,a0,a3
2000049a:	02f507b3          	mul	a5,a0,a5
2000049e:	80a1a623          	sw	a0,-2036(gp) # 2000c798 <nxt>
200004a2:	8fb9                	xor	a5,a5,a4
200004a4:	18f82823          	sw	a5,400(a6) # 2000c190 <seedB>
200004a8:	c279                	beqz	a2,2000056e <start_transition.part.0+0x110>
200004aa:	1101                	addi	sp,sp,-32
200004ac:	4515                	li	a0,5
200004ae:	ce06                	sw	ra,28(sp)
200004b0:	cc22                	sw	s0,24(sp)
200004b2:	2bf040ef          	jal	20004f70 <clock_get_hz>
200004b6:	5300a0ef          	jal	2000a9e6 <__floatunsisf>
200004ba:	2000c7b7          	lui	a5,0x2000c
200004be:	e447a583          	lw	a1,-444(a5) # 2000be44 <__clz_tab+0x100>
200004c2:	0580a0ef          	jal	2000a51a <__divsf3>
200004c6:	2000c7b7          	lui	a5,0x2000c
200004ca:	e487a583          	lw	a1,-440(a5) # 2000be48 <__clz_tab+0x104>
200004ce:	842a                	mv	s0,a0
200004d0:	3200a0ef          	jal	2000a7f0 <__lesf2>
200004d4:	2000c7b7          	lui	a5,0x2000c
200004d8:	e487a703          	lw	a4,-440(a5) # 2000be48 <__clz_tab+0x104>
200004dc:	00054363          	bltz	a0,200004e2 <start_transition.part.0+0x84>
200004e0:	8722                	mv	a4,s0
200004e2:	853a                	mv	a0,a4
200004e4:	c63a                	sw	a4,12(sp)
200004e6:	4120a0ef          	jal	2000a8f8 <__fixunssfsi>
200004ea:	0ff57793          	zext.b	a5,a0
200004ee:	853e                	mv	a0,a5
200004f0:	c43e                	sw	a5,8(sp)
200004f2:	45a0a0ef          	jal	2000a94c <__floatsisf>
200004f6:	85aa                	mv	a1,a0
200004f8:	4532                	lw	a0,12(sp)
200004fa:	577040ef          	jal	20005270 <__subsf3>
200004fe:	2000c737          	lui	a4,0x2000c
20000502:	e4c72583          	lw	a1,-436(a4) # 2000be4c <__clz_tab+0x108>
20000506:	6bf040ef          	jal	200053c4 <__mulsf3>
2000050a:	3ee0a0ef          	jal	2000a8f8 <__fixunssfsi>
2000050e:	47a2                	lw	a5,8(sp)
20000510:	0ff57513          	zext.b	a0,a0
20000514:	400a8737          	lui	a4,0x400a8
20000518:	0792                	slli	a5,a5,0x4
2000051a:	8d5d                	or	a0,a0,a5
2000051c:	6785                	lui	a5,0x1
2000051e:	c348                	sw	a0,4(a4)
20000520:	17fd                	addi	a5,a5,-1 # fff <HeapSize+0x7ff>
20000522:	cb1c                	sw	a5,16(a4)
20000524:	04870793          	addi	a5,a4,72 # 400a8048 <__StackTop+0x20026048>
20000528:	439c                	lw	a5,0(a5)
2000052a:	400a96b7          	lui	a3,0x400a9
2000052e:	4605                	li	a2,1
20000530:	68b79793          	binvi	a5,a5,0xb
20000534:	0807c7b3          	zext.h	a5,a5
20000538:	c6bc                	sw	a5,72(a3)
2000053a:	431c                	lw	a5,0(a4)
2000053c:	400a96b7          	lui	a3,0x400a9
20000540:	40f677b3          	andn	a5,a2,a5
20000544:	c29c                	sw	a5,0(a3)
20000546:	4785                	li	a5,1
20000548:	80f18ea3          	sb	a5,-2019(gp) # 2000c7a9 <buz_on>
2000054c:	780040ef          	jal	20004ccc <time_us_64>
20000550:	679d                	lui	a5,0x7
20000552:	d6078793          	addi	a5,a5,-672 # 6d60 <HeapSize+0x6560>
20000556:	97aa                	add	a5,a5,a0
20000558:	40f2                	lw	ra,28(sp)
2000055a:	4462                	lw	s0,24(sp)
2000055c:	00a7b533          	sltu	a0,a5,a0
20000560:	952e                	add	a0,a0,a1
20000562:	80a1ac23          	sw	a0,-2024(gp) # 2000c7a4 <buz_off_us+0x4>
20000566:	80f1aa23          	sw	a5,-2028(gp) # 2000c7a0 <buz_off_us>
2000056a:	6105                	addi	sp,sp,32
2000056c:	8082                	ret
2000056e:	8082                	ret

20000570 <main>:
20000570:	7151                	addi	sp,sp,-240
20000572:	d786                	sw	ra,236(sp)
20000574:	d5a2                	sw	s0,232(sp)
20000576:	d3a6                	sw	s1,228(sp)
20000578:	d1ca                	sw	s2,224(sp)
2000057a:	cfce                	sw	s3,220(sp)
2000057c:	cdd2                	sw	s4,216(sp)
2000057e:	cbd6                	sw	s5,212(sp)
20000580:	c9da                	sw	s6,208(sp)
20000582:	c7de                	sw	s7,204(sp)
20000584:	c5e2                	sw	s8,200(sp)
20000586:	c3e6                	sw	s9,196(sp)
20000588:	c1ea                	sw	s10,192(sp)
2000058a:	df6e                	sw	s11,188(sp)
2000058c:	300477f3          	csrrci	a5,mstatus,8
20000590:	123060ef          	jal	20006eb2 <stdio_init_all>
20000594:	4571                	li	a0,28
20000596:	23c5                	jal	20000b76 <matrix_init>
20000598:	4581                	li	a1,0
2000059a:	7d000513          	li	a0,2000
2000059e:	740040ef          	jal	20004cde <busy_wait_us>
200005a2:	2000b537          	lui	a0,0x2000b
200005a6:	dc450513          	addi	a0,a0,-572 # 2000adc4 <strcmp+0x140>
200005aa:	3d15                	jal	200003de <sim_printf>
200005ac:	2000b537          	lui	a0,0x2000b
200005b0:	df450513          	addi	a0,a0,-524 # 2000adf4 <strcmp+0x170>
200005b4:	352d                	jal	200003de <sim_printf>
200005b6:	2000b7b7          	lui	a5,0x2000b
200005ba:	e4078513          	addi	a0,a5,-448 # 2000ae40 <strcmp+0x1bc>
200005be:	3505                	jal	200003de <sim_printf>
200005c0:	2000c7b7          	lui	a5,0x2000c
200005c4:	f287ab83          	lw	s7,-216(a5) # 2000bf28 <N_EFFECTS>
200005c8:	2000b7b7          	lui	a5,0x2000b
200005cc:	66878d13          	addi	s10,a5,1640 # 2000b668 <EFFECTS>
200005d0:	2000b7b7          	lui	a5,0x2000b
200005d4:	d43e                	sw	a5,40(sp)
200005d6:	84ea                	mv	s1,s10
200005d8:	eb478913          	addi	s2,a5,-332 # 2000aeb4 <strcmp+0x230>
200005dc:	4401                	li	s0,0
200005de:	01705a63          	blez	s7,200005f2 <main+0x82>
200005e2:	4090                	lw	a2,0(s1)
200005e4:	85a2                	mv	a1,s0
200005e6:	854a                	mv	a0,s2
200005e8:	0405                	addi	s0,s0,1
200005ea:	3bd5                	jal	200003de <sim_printf>
200005ec:	04a1                	addi	s1,s1,8
200005ee:	ff741ae3          	bne	s0,s7,200005e2 <main+0x72>
200005f2:	2000b7b7          	lui	a5,0x2000b
200005f6:	04478513          	addi	a0,a5,68 # 2000b044 <strcmp+0x3c0>
200005fa:	33d5                	jal	200003de <sim_printf>
200005fc:	20004537          	lui	a0,0x20004
20000600:	d3e50513          	addi	a0,a0,-706 # 20003d3e <field_core1_entry>
20000604:	42f060ef          	jal	20007232 <multicore_launch_core1>
20000608:	6c4040ef          	jal	20004ccc <time_us_64>
2000060c:	56058063          	beqz	a1,20000b6c <main+0x5fc>
20000610:	3e800613          	li	a2,1000
20000614:	4681                	li	a3,0
20000616:	218080ef          	jal	2000882e <__udivdi3>
2000061a:	87aa                	mv	a5,a0
2000061c:	20f7a7b3          	sh1add	a5,a5,a5
20000620:	078a                	slli	a5,a5,0x2
20000622:	2000c737          	lui	a4,0x2000c
20000626:	78f72a23          	sw	a5,1940(a4) # 2000c794 <mode_start_ms>
2000062a:	6a2040ef          	jal	20004ccc <time_us_64>
2000062e:	2000c6b7          	lui	a3,0x2000c
20000632:	2000c7b7          	lui	a5,0x2000c
20000636:	e506a683          	lw	a3,-432(a3) # 2000be50 <__clz_tab+0x10c>
2000063a:	e587a783          	lw	a5,-424(a5) # 2000be58 <__clz_tab+0x114>
2000063e:	2000c737          	lui	a4,0x2000c
20000642:	e5472983          	lw	s3,-428(a4) # 2000be54 <__clz_tab+0x110>
20000646:	d636                	sw	a3,44(sp)
20000648:	ce3e                	sw	a5,28(sp)
2000064a:	2000b6b7          	lui	a3,0x2000b
2000064e:	800007b7          	lui	a5,0x80000
20000652:	10625737          	lui	a4,0x10625
20000656:	2000c437          	lui	s0,0x2000c
2000065a:	1dc68693          	addi	a3,a3,476 # 2000b1dc <strcmp+0x558>
2000065e:	dd370713          	addi	a4,a4,-557 # 10624dd3 <HeapSize+0x106245d3>
20000662:	17fd                	addi	a5,a5,-1 # 7fffffff <__StackTop+0x5ff7dfff>
20000664:	8aae                	mv	s5,a1
20000666:	8a2a                	mv	s4,a0
20000668:	51440413          	addi	s0,s0,1300 # 2000c514 <bufB>
2000066c:	c636                	sw	a3,12(sp)
2000066e:	cc3a                	sw	a4,24(sp)
20000670:	c43e                	sw	a5,8(sp)
20000672:	2000cb37          	lui	s6,0x2000c
20000676:	656040ef          	jal	20004ccc <time_us_64>
2000067a:	1e058d63          	beqz	a1,20000874 <main+0x304>
2000067e:	3e800613          	li	a2,1000
20000682:	4681                	li	a3,0
20000684:	1aa080ef          	jal	2000882e <__udivdi3>
20000688:	78db4783          	lbu	a5,1933(s6) # 2000c78d <transitioning>
2000068c:	20a52533          	sh1add	a0,a0,a0
20000690:	00251493          	slli	s1,a0,0x2
20000694:	e38d                	bnez	a5,200006b6 <main+0x146>
20000696:	2000c7b7          	lui	a5,0x2000c
2000069a:	78c7c783          	lbu	a5,1932(a5) # 2000c78c <paused>
2000069e:	ef81                	bnez	a5,200006b6 <main+0x146>
200006a0:	2000c7b7          	lui	a5,0x2000c
200006a4:	7947a703          	lw	a4,1940(a5) # 2000c794 <mode_start_ms>
200006a8:	6789                	lui	a5,0x2
200006aa:	32878793          	addi	a5,a5,808 # 2328 <HeapSize+0x1b28>
200006ae:	40e48733          	sub	a4,s1,a4
200006b2:	48e7ee63          	bltu	a5,a4,20000b4e <main+0x5de>
200006b6:	8101a783          	lw	a5,-2032(gp) # 2000c79c <cur>
200006ba:	2000c737          	lui	a4,0x2000c
200006be:	19470613          	addi	a2,a4,404 # 2000c194 <seedA>
200006c2:	21a7e7b3          	sh3add	a5,a5,s10
200006c6:	43dc                	lw	a5,4(a5)
200006c8:	2000c737          	lui	a4,0x2000c
200006cc:	85a6                	mv	a1,s1
200006ce:	4cc70513          	addi	a0,a4,1228 # 2000c4cc <bufA>
200006d2:	9782                	jalr	a5
200006d4:	78db4783          	lbu	a5,1933(s6)
200006d8:	46078563          	beqz	a5,20000b42 <main+0x5d2>
200006dc:	80c1a783          	lw	a5,-2036(gp) # 2000c798 <nxt>
200006e0:	2000c737          	lui	a4,0x2000c
200006e4:	19070613          	addi	a2,a4,400 # 2000c190 <seedB>
200006e8:	21a7e7b3          	sh3add	a5,a5,s10
200006ec:	43dc                	lw	a5,4(a5)
200006ee:	2000c737          	lui	a4,0x2000c
200006f2:	85a6                	mv	a1,s1
200006f4:	51470513          	addi	a0,a4,1300 # 2000c514 <bufB>
200006f8:	9782                	jalr	a5
200006fa:	2000c7b7          	lui	a5,0x2000c
200006fe:	7907a903          	lw	s2,1936(a5) # 2000c790 <trans_start_ms>
20000702:	2bb00793          	li	a5,699
20000706:	0ff00813          	li	a6,255
2000070a:	41248933          	sub	s2,s1,s2
2000070e:	0127ee63          	bltu	a5,s2,2000072a <main+0x1ba>
20000712:	00891813          	slli	a6,s2,0x8
20000716:	5d9f77b7          	lui	a5,0x5d9f7
2000071a:	41280833          	sub	a6,a6,s2
2000071e:	39178793          	addi	a5,a5,913 # 5d9f7391 <__StackTop+0x3d975391>
20000722:	02f83833          	mulhu	a6,a6,a5
20000726:	00885813          	srli	a6,a6,0x8
2000072a:	2000c7b7          	lui	a5,0x2000c
2000072e:	4cc78693          	addi	a3,a5,1228 # 2000c4cc <bufA>
20000732:	2000c7b7          	lui	a5,0x2000c
20000736:	808088b7          	lui	a7,0x80808
2000073a:	51478593          	addi	a1,a5,1300 # 2000c514 <bufB>
2000073e:	2000c7b7          	lui	a5,0x2000c
20000742:	08188893          	addi	a7,a7,129 # 80808081 <__StackTop+0x60786081>
20000746:	69478613          	addi	a2,a5,1684 # 2000c694 <outc>
2000074a:	0006cf03          	lbu	t5,0(a3)
2000074e:	0005c783          	lbu	a5,0(a1)
20000752:	0016ce83          	lbu	t4,1(a3)
20000756:	0015c303          	lbu	t1,1(a1)
2000075a:	41e787b3          	sub	a5,a5,t5
2000075e:	030787b3          	mul	a5,a5,a6
20000762:	41d30333          	sub	t1,t1,t4
20000766:	0026c503          	lbu	a0,2(a3)
2000076a:	0025c703          	lbu	a4,2(a1)
2000076e:	068d                	addi	a3,a3,3
20000770:	058d                	addi	a1,a1,3
20000772:	8f09                	sub	a4,a4,a0
20000774:	060d                	addi	a2,a2,3
20000776:	03179e33          	mulh	t3,a5,a7
2000077a:	03030333          	mul	t1,t1,a6
2000077e:	9e3e                	add	t3,t3,a5
20000780:	407e5e13          	srai	t3,t3,0x7
20000784:	87fd                	srai	a5,a5,0x1f
20000786:	40fe07b3          	sub	a5,t3,a5
2000078a:	9f3e                	add	t5,t5,a5
2000078c:	ffe60ea3          	sb	t5,-3(a2)
20000790:	031317b3          	mulh	a5,t1,a7
20000794:	41f35f13          	srai	t5,t1,0x1f
20000798:	03070733          	mul	a4,a4,a6
2000079c:	979a                	add	a5,a5,t1
2000079e:	879d                	srai	a5,a5,0x7
200007a0:	41e787b3          	sub	a5,a5,t5
200007a4:	9ebe                	add	t4,t4,a5
200007a6:	ffd60f23          	sb	t4,-2(a2)
200007aa:	031717b3          	mulh	a5,a4,a7
200007ae:	41f75e13          	srai	t3,a4,0x1f
200007b2:	97ba                	add	a5,a5,a4
200007b4:	879d                	srai	a5,a5,0x7
200007b6:	41c787b3          	sub	a5,a5,t3
200007ba:	953e                	add	a0,a0,a5
200007bc:	fea60fa3          	sb	a0,-1(a2)
200007c0:	f8d415e3          	bne	s0,a3,2000074a <main+0x1da>
200007c4:	2000c7b7          	lui	a5,0x2000c
200007c8:	69478513          	addi	a0,a5,1684 # 2000c694 <outc>
200007cc:	2339                	jal	20000cda <matrix_present>
200007ce:	2bb00793          	li	a5,699
200007d2:	0327f463          	bgeu	a5,s2,200007fa <main+0x28a>
200007d6:	80c1a783          	lw	a5,-2036(gp) # 2000c798 <nxt>
200007da:	2000c737          	lui	a4,0x2000c
200007de:	78972a23          	sw	s1,1940(a4) # 2000c794 <mode_start_ms>
200007e2:	80f1a823          	sw	a5,-2032(gp) # 2000c79c <cur>
200007e6:	2000c7b7          	lui	a5,0x2000c
200007ea:	1907a783          	lw	a5,400(a5) # 2000c190 <seedB>
200007ee:	2000c737          	lui	a4,0x2000c
200007f2:	780b06a3          	sb	zero,1933(s6)
200007f6:	18f72a23          	sw	a5,404(a4) # 2000c194 <seedA>
200007fa:	40070737          	lui	a4,0x40070
200007fe:	4f1c                	lw	a5,24(a4)
20000800:	8bc1                	andi	a5,a5,16
20000802:	e3a9                	bnez	a5,20000844 <main+0x2d4>
20000804:	01872d83          	lw	s11,24(a4) # 40070018 <__StackTop+0x1ffee018>
20000808:	010dfd93          	andi	s11,s11,16
2000080c:	fe0d9ce3          	bnez	s11,20000804 <main+0x294>
20000810:	4318                	lw	a4,0(a4)
20000812:	05000613          	li	a2,80
20000816:	0ff77713          	zext.b	a4,a4
2000081a:	fe070693          	addi	a3,a4,-32
2000081e:	00d66763          	bltu	a2,a3,2000082c <main+0x2bc>
20000822:	47b2                	lw	a5,12(sp)
20000824:	20f6c6b3          	sh2add	a3,a3,a5
20000828:	4294                	lw	a3,0(a3)
2000082a:	8682                	jr	a3
2000082c:	fd070513          	addi	a0,a4,-48
20000830:	47a5                	li	a5,9
20000832:	00a7e963          	bltu	a5,a0,20000844 <main+0x2d4>
20000836:	01755763          	bge	a0,s7,20000844 <main+0x2d4>
2000083a:	78db4783          	lbu	a5,1933(s6)
2000083e:	e399                	bnez	a5,20000844 <main+0x2d4>
20000840:	85a6                	mv	a1,s1
20000842:	3931                	jal	2000045e <start_transition.part.0>
20000844:	81d1c783          	lbu	a5,-2019(gp) # 2000c7a9 <buz_on>
20000848:	eba5                	bnez	a5,200008b8 <main+0x348>
2000084a:	6785                	lui	a5,0x1
2000084c:	38878793          	addi	a5,a5,904 # 1388 <HeapSize+0xb88>
20000850:	97d2                	add	a5,a5,s4
20000852:	0147ba33          	sltu	s4,a5,s4
20000856:	9ad2                	add	s5,s5,s4
20000858:	8a3e                	mv	s4,a5
2000085a:	47a2                	lw	a5,8(sp)
2000085c:	0157f463          	bgeu	a5,s5,20000864 <main+0x2f4>
20000860:	5a7d                	li	s4,-1
20000862:	8abe                	mv	s5,a5
20000864:	8552                	mv	a0,s4
20000866:	85d6                	mv	a1,s5
20000868:	4dc040ef          	jal	20004d44 <busy_wait_until>
2000086c:	460040ef          	jal	20004ccc <time_us_64>
20000870:	e00597e3          	bnez	a1,2000067e <main+0x10e>
20000874:	47e2                	lw	a5,24(sp)
20000876:	02f53533          	mulhu	a0,a0,a5
2000087a:	8119                	srli	a0,a0,0x6
2000087c:	b531                	j	20000688 <main+0x118>
2000087e:	2000b7b7          	lui	a5,0x2000b
20000882:	e4078513          	addi	a0,a5,-448 # 2000ae40 <strcmp+0x1bc>
20000886:	3ea1                	jal	200003de <sim_printf>
20000888:	57a2                	lw	a5,40(sp)
2000088a:	896a                	mv	s2,s10
2000088c:	4481                	li	s1,0
2000088e:	eb478d93          	addi	s11,a5,-332
20000892:	01705b63          	blez	s7,200008a8 <main+0x338>
20000896:	00092603          	lw	a2,0(s2)
2000089a:	85a6                	mv	a1,s1
2000089c:	856e                	mv	a0,s11
2000089e:	0485                	addi	s1,s1,1
200008a0:	3e3d                	jal	200003de <sim_printf>
200008a2:	0921                	addi	s2,s2,8
200008a4:	fe9b99e3          	bne	s7,s1,20000896 <main+0x326>
200008a8:	2000b7b7          	lui	a5,0x2000b
200008ac:	04478513          	addi	a0,a5,68 # 2000b044 <strcmp+0x3c0>
200008b0:	363d                	jal	200003de <sim_printf>
200008b2:	81d1c783          	lbu	a5,-2019(gp) # 2000c7a9 <buz_on>
200008b6:	dbd1                	beqz	a5,2000084a <main+0x2da>
200008b8:	414040ef          	jal	20004ccc <time_us_64>
200008bc:	8181a783          	lw	a5,-2024(gp) # 2000c7a4 <buz_off_us+0x4>
200008c0:	f8f5e5e3          	bltu	a1,a5,2000084a <main+0x2da>
200008c4:	00b79663          	bne	a5,a1,200008d0 <main+0x360>
200008c8:	8141a783          	lw	a5,-2028(gp) # 2000c7a0 <buz_off_us>
200008cc:	f6f56fe3          	bltu	a0,a5,2000084a <main+0x2da>
200008d0:	400a87b7          	lui	a5,0x400a8
200008d4:	439c                	lw	a5,0(a5)
200008d6:	400a9737          	lui	a4,0x400a9
200008da:	8b85                	andi	a5,a5,1
200008dc:	c31c                	sw	a5,0(a4)
200008de:	80018ea3          	sb	zero,-2019(gp) # 2000c7a9 <buz_on>
200008e2:	b7a5                	j	2000084a <main+0x2da>
200008e4:	26f5                	jal	20000cd0 <matrix_get_brightness>
200008e6:	4761                	li	a4,24
200008e8:	4795                	li	a5,5
200008ea:	26a76b63          	bltu	a4,a0,20000b60 <main+0x5f0>
200008ee:	853e                	mv	a0,a5
200008f0:	2ed9                	jal	20000cc6 <matrix_set_brightness>
200008f2:	2ef9                	jal	20000cd0 <matrix_get_brightness>
200008f4:	2000b7b7          	lui	a5,0x2000b
200008f8:	85aa                	mv	a1,a0
200008fa:	ecc78513          	addi	a0,a5,-308 # 2000aecc <strcmp+0x248>
200008fe:	34c5                	jal	200003de <sim_printf>
20000900:	b791                	j	20000844 <main+0x2d4>
20000902:	26f9                	jal	20000cd0 <matrix_get_brightness>
20000904:	0eb00713          	li	a4,235
20000908:	0ff00793          	li	a5,255
2000090c:	fea761e3          	bltu	a4,a0,200008ee <main+0x37e>
20000910:	26c1                	jal	20000cd0 <matrix_get_brightness>
20000912:	01450793          	addi	a5,a0,20
20000916:	0ff7f793          	zext.b	a5,a5
2000091a:	bfd1                	j	200008ee <main+0x37e>
2000091c:	2000c737          	lui	a4,0x2000c
20000920:	78c74783          	lbu	a5,1932(a4) # 2000c78c <paused>
20000924:	2000b6b7          	lui	a3,0x2000b
20000928:	db468593          	addi	a1,a3,-588 # 2000adb4 <strcmp+0x130>
2000092c:	0017c793          	xori	a5,a5,1
20000930:	78f70623          	sb	a5,1932(a4)
20000934:	c789                	beqz	a5,2000093e <main+0x3ce>
20000936:	2000b7b7          	lui	a5,0x2000b
2000093a:	da878593          	addi	a1,a5,-600 # 2000ada8 <strcmp+0x124>
2000093e:	2000b7b7          	lui	a5,0x2000b
20000942:	ebc78513          	addi	a0,a5,-324 # 2000aebc <strcmp+0x238>
20000946:	3c61                	jal	200003de <sim_printf>
20000948:	bdf5                	j	20000844 <main+0x2d4>
2000094a:	78db4783          	lbu	a5,1933(s6)
2000094e:	ee079be3          	bnez	a5,20000844 <main+0x2d4>
20000952:	8101a503          	lw	a0,-2032(gp) # 2000c79c <cur>
20000956:	85a6                	mv	a1,s1
20000958:	157d                	addi	a0,a0,-1
2000095a:	3611                	jal	2000045e <start_transition.part.0>
2000095c:	b5e5                	j	20000844 <main+0x2d4>
2000095e:	78db4783          	lbu	a5,1933(s6)
20000962:	ee0791e3          	bnez	a5,20000844 <main+0x2d4>
20000966:	8101a503          	lw	a0,-2032(gp) # 2000c79c <cur>
2000096a:	85a6                	mv	a1,s1
2000096c:	0505                	addi	a0,a0,1
2000096e:	3cc5                	jal	2000045e <start_transition.part.0>
20000970:	bdd1                	j	20000844 <main+0x2d4>
20000972:	4515                	li	a0,5
20000974:	5fc040ef          	jal	20004f70 <clock_get_hz>
20000978:	5632                	lw	a2,44(sp)
2000097a:	670d                	lui	a4,0x3
2000097c:	c82a                	sw	a0,16(sp)
2000097e:	03970713          	addi	a4,a4,57 # 3039 <HeapSize+0x2839>
20000982:	088c                	addi	a1,sp,80
20000984:	1828                	addi	a0,sp,56
20000986:	da3a                	sw	a4,52(sp)
20000988:	1cc030ef          	jal	20003b54 <field_compute>
2000098c:	b00026f3          	csrr	a3,mcycle
20000990:	4901                	li	s2,0
20000992:	12c00493          	li	s1,300
20000996:	d036                	sw	a3,32(sp)
20000998:	854a                	mv	a0,s2
2000099a:	7b3090ef          	jal	2000a94c <__floatsisf>
2000099e:	85ce                	mv	a1,s3
200009a0:	225040ef          	jal	200053c4 <__mulsf3>
200009a4:	862a                	mv	a2,a0
200009a6:	088c                	addi	a1,sp,80
200009a8:	1828                	addi	a0,sp,56
200009aa:	0905                	addi	s2,s2,1
200009ac:	1a8030ef          	jal	20003b54 <field_compute>
200009b0:	fe9914e3          	bne	s2,s1,20000998 <main+0x428>
200009b4:	5682                	lw	a3,32(sp)
200009b6:	b0002773          	csrr	a4,mcycle
200009ba:	8f15                	sub	a4,a4,a3
200009bc:	1b4e86b7          	lui	a3,0x1b4e8
200009c0:	1b568693          	addi	a3,a3,437 # 1b4e81b5 <HeapSize+0x1b4e79b5>
200009c4:	02d73733          	mulhu	a4,a4,a3
200009c8:	00575793          	srli	a5,a4,0x5
200009cc:	d03e                	sw	a5,32(sp)
200009ce:	19705763          	blez	s7,20000b5c <main+0x5ec>
200009d2:	84ea                	mv	s1,s10
200009d4:	4901                	li	s2,0
200009d6:	a029                	j	200009e0 <main+0x470>
200009d8:	0905                	addi	s2,s2,1
200009da:	04a1                	addi	s1,s1,8
200009dc:	192b8063          	beq	s7,s2,20000b5c <main+0x5ec>
200009e0:	4088                	lw	a0,0(s1)
200009e2:	2000b7b7          	lui	a5,0x2000b
200009e6:	f0078593          	addi	a1,a5,-256 # 2000af00 <strcmp+0x27c>
200009ea:	29a0a0ef          	jal	2000ac84 <strcmp>
200009ee:	f56d                	bnez	a0,200009d8 <main+0x468>
200009f0:	21a96933          	sh3add	s2,s2,s10
200009f4:	00492903          	lw	s2,4(s2)
200009f8:	1850                	addi	a2,sp,52
200009fa:	3e800593          	li	a1,1000
200009fe:	10a8                	addi	a0,sp,104
20000a00:	9902                	jalr	s2
20000a02:	b0002773          	csrr	a4,mcycle
20000a06:	6485                	lui	s1,0x1
20000a08:	d252                	sw	s4,36(sp)
20000a0a:	83448493          	addi	s1,s1,-1996 # 834 <HeapSize+0x34>
20000a0e:	8a6e                	mv	s4,s11
20000a10:	8dba                	mv	s11,a4
20000a12:	85d2                	mv	a1,s4
20000a14:	1850                	addi	a2,sp,52
20000a16:	10a8                	addi	a0,sp,104
20000a18:	0a1d                	addi	s4,s4,7
20000a1a:	9902                	jalr	s2
20000a1c:	fe9a1be3          	bne	s4,s1,20000a12 <main+0x4a2>
20000a20:	5a12                	lw	s4,36(sp)
20000a22:	b00027f3          	csrr	a5,mcycle
20000a26:	1b4e8737          	lui	a4,0x1b4e8
20000a2a:	41b787b3          	sub	a5,a5,s11
20000a2e:	1b570713          	addi	a4,a4,437 # 1b4e81b5 <HeapSize+0x1b4e79b5>
20000a32:	02e7b7b3          	mulhu	a5,a5,a4
20000a36:	2000b737          	lui	a4,0x2000b
20000a3a:	f0870513          	addi	a0,a4,-248 # 2000af08 <strcmp+0x284>
20000a3e:	8395                	srli	a5,a5,0x5
20000a40:	d23e                	sw	a5,36(sp)
20000a42:	3a71                	jal	200003de <sim_printf>
20000a44:	2000b7b7          	lui	a5,0x2000b
20000a48:	f3478593          	addi	a1,a5,-204 # 2000af34 <strcmp+0x2b0>
20000a4c:	2000b7b7          	lui	a5,0x2000b
20000a50:	f4878513          	addi	a0,a5,-184 # 2000af48 <strcmp+0x2c4>
20000a54:	3269                	jal	200003de <sim_printf>
20000a56:	47c2                	lw	a5,16(sp)
20000a58:	431be5b7          	lui	a1,0x431be
20000a5c:	e8358593          	addi	a1,a1,-381 # 431bde83 <__StackTop+0x2313be83>
20000a60:	02b7b5b3          	mulhu	a1,a5,a1
20000a64:	2000b7b7          	lui	a5,0x2000b
20000a68:	f6078513          	addi	a0,a5,-160 # 2000af60 <strcmp+0x2dc>
20000a6c:	81c9                	srli	a1,a1,0x12
20000a6e:	971ff0ef          	jal	200003de <sim_printf>
20000a72:	5d82                	lw	s11,32(sp)
20000a74:	856e                	mv	a0,s11
20000a76:	771090ef          	jal	2000a9e6 <__floatunsisf>
20000a7a:	84aa                	mv	s1,a0
20000a7c:	4542                	lw	a0,16(sp)
20000a7e:	769090ef          	jal	2000a9e6 <__floatunsisf>
20000a82:	85a6                	mv	a1,s1
20000a84:	892a                	mv	s2,a0
20000a86:	295090ef          	jal	2000a51a <__divsf3>
20000a8a:	0ba0a0ef          	jal	2000ab44 <__extendsfdf2>
20000a8e:	ca2e                	sw	a1,20(sp)
20000a90:	45f2                	lw	a1,28(sp)
20000a92:	c82a                	sw	a0,16(sp)
20000a94:	8526                	mv	a0,s1
20000a96:	12f040ef          	jal	200053c4 <__mulsf3>
20000a9a:	85ca                	mv	a1,s2
20000a9c:	27f090ef          	jal	2000a51a <__divsf3>
20000aa0:	0a40a0ef          	jal	2000ab44 <__extendsfdf2>
20000aa4:	4742                	lw	a4,16(sp)
20000aa6:	47d2                	lw	a5,20(sp)
20000aa8:	862a                	mv	a2,a0
20000aaa:	2000b537          	lui	a0,0x2000b
20000aae:	86ae                	mv	a3,a1
20000ab0:	f7c50513          	addi	a0,a0,-132 # 2000af7c <strcmp+0x2f8>
20000ab4:	85ee                	mv	a1,s11
20000ab6:	929ff0ef          	jal	200003de <sim_printf>
20000aba:	5d92                	lw	s11,36(sp)
20000abc:	856e                	mv	a0,s11
20000abe:	729090ef          	jal	2000a9e6 <__floatunsisf>
20000ac2:	84aa                	mv	s1,a0
20000ac4:	85aa                	mv	a1,a0
20000ac6:	854a                	mv	a0,s2
20000ac8:	253090ef          	jal	2000a51a <__divsf3>
20000acc:	0780a0ef          	jal	2000ab44 <__extendsfdf2>
20000ad0:	ca2e                	sw	a1,20(sp)
20000ad2:	45f2                	lw	a1,28(sp)
20000ad4:	c82a                	sw	a0,16(sp)
20000ad6:	8526                	mv	a0,s1
20000ad8:	0ed040ef          	jal	200053c4 <__mulsf3>
20000adc:	85ca                	mv	a1,s2
20000ade:	23d090ef          	jal	2000a51a <__divsf3>
20000ae2:	0620a0ef          	jal	2000ab44 <__extendsfdf2>
20000ae6:	4742                	lw	a4,16(sp)
20000ae8:	47d2                	lw	a5,20(sp)
20000aea:	862a                	mv	a2,a0
20000aec:	2000b537          	lui	a0,0x2000b
20000af0:	86ae                	mv	a3,a1
20000af2:	fbc50513          	addi	a0,a0,-68 # 2000afbc <strcmp+0x338>
20000af6:	85ee                	mv	a1,s11
20000af8:	8e7ff0ef          	jal	200003de <sim_printf>
20000afc:	2000b7b7          	lui	a5,0x2000b
20000b00:	ffc78513          	addi	a0,a5,-4 # 2000affc <strcmp+0x378>
20000b04:	8dbff0ef          	jal	200003de <sim_printf>
20000b08:	2000b7b7          	lui	a5,0x2000b
20000b0c:	04878513          	addi	a0,a5,72 # 2000b048 <strcmp+0x3c4>
20000b10:	8cfff0ef          	jal	200003de <sim_printf>
20000b14:	bb05                	j	20000844 <main+0x2d4>
20000b16:	81c1c783          	lbu	a5,-2020(gp) # 2000c7a8 <sfx_enabled>
20000b1a:	2000b6b7          	lui	a3,0x2000b
20000b1e:	dc068593          	addi	a1,a3,-576 # 2000adc0 <strcmp+0x13c>
20000b22:	0017c793          	xori	a5,a5,1
20000b26:	80f18e23          	sb	a5,-2020(gp) # 2000c7a8 <sfx_enabled>
20000b2a:	c789                	beqz	a5,20000b34 <main+0x5c4>
20000b2c:	2000b7b7          	lui	a5,0x2000b
20000b30:	dbc78593          	addi	a1,a5,-580 # 2000adbc <strcmp+0x138>
20000b34:	2000b7b7          	lui	a5,0x2000b
20000b38:	ee878513          	addi	a0,a5,-280 # 2000aee8 <strcmp+0x264>
20000b3c:	8a3ff0ef          	jal	200003de <sim_printf>
20000b40:	b311                	j	20000844 <main+0x2d4>
20000b42:	2000c7b7          	lui	a5,0x2000c
20000b46:	4cc78513          	addi	a0,a5,1228 # 2000c4cc <bufA>
20000b4a:	2a41                	jal	20000cda <matrix_present>
20000b4c:	b17d                	j	200007fa <main+0x28a>
20000b4e:	8101a503          	lw	a0,-2032(gp) # 2000c79c <cur>
20000b52:	85a6                	mv	a1,s1
20000b54:	0505                	addi	a0,a0,1
20000b56:	909ff0ef          	jal	2000045e <start_transition.part.0>
20000b5a:	beb1                	j	200006b6 <main+0x146>
20000b5c:	4901                	li	s2,0
20000b5e:	bd49                	j	200009f0 <main+0x480>
20000b60:	2a85                	jal	20000cd0 <matrix_get_brightness>
20000b62:	fec50793          	addi	a5,a0,-20
20000b66:	0ff7f793          	zext.b	a5,a5
20000b6a:	b351                	j	200008ee <main+0x37e>
20000b6c:	3e800713          	li	a4,1000
20000b70:	02e557b3          	divu	a5,a0,a4
20000b74:	b465                	j	2000061c <main+0xac>

20000b76 <matrix_init>:
20000b76:	7139                	addi	sp,sp,-64
20000b78:	2000c5b7          	lui	a1,0x2000c
20000b7c:	dc22                	sw	s0,56(sp)
20000b7e:	f1858593          	addi	a1,a1,-232 # 2000bf18 <ws2812_program>
20000b82:	842a                	mv	s0,a0
20000b84:	50200537          	lui	a0,0x50200
20000b88:	de06                	sw	ra,60(sp)
20000b8a:	da26                	sw	s1,52(sp)
20000b8c:	d84a                	sw	s2,48(sp)
20000b8e:	d64e                	sw	s3,44(sp)
20000b90:	d452                	sw	s4,40(sp)
20000b92:	7fc060ef          	jal	2000738e <pio_add_program>
20000b96:	892a                	mv	s2,a0
20000b98:	4585                	li	a1,1
20000b9a:	50200537          	lui	a0,0x50200
20000b9e:	7b8060ef          	jal	20007356 <pio_claim_unused_sm>
20000ba2:	84aa                	mv	s1,a0
20000ba4:	4599                	li	a1,6
20000ba6:	8522                	mv	a0,s0
20000ba8:	8291a223          	sw	s1,-2012(gp) # 2000c7b0 <sm>
20000bac:	1f2030ef          	jal	20003d9e <gpio_set_function>
20000bb0:	4705                	li	a4,1
20000bb2:	85a6                	mv	a1,s1
20000bb4:	8622                	mv	a2,s0
20000bb6:	86ba                	mv	a3,a4
20000bb8:	50200537          	lui	a0,0x50200
20000bbc:	063060ef          	jal	2000741e <pio_sm_set_consecutive_pindirs>
20000bc0:	00390793          	addi	a5,s2,3
20000bc4:	00791613          	slli	a2,s2,0x7
20000bc8:	07b2                	slli	a5,a5,0xc
20000bca:	01f47713          	andi	a4,s0,31
20000bce:	8fd1                	or	a5,a5,a2
20000bd0:	8011                	srli	s0,s0,0x4
20000bd2:	76e1                	lui	a3,0xffff8
20000bd4:	3ff68693          	addi	a3,a3,1023 # ffff83ff <__StackTop+0xdff763ff>
20000bd8:	072a                	slli	a4,a4,0xa
20000bda:	042a                	slli	s0,s0,0xa
20000bdc:	49d79793          	bclri	a5,a5,0x1d
20000be0:	6641                	lui	a2,0x10
20000be2:	29d71713          	bseti	a4,a4,0x1d
20000be6:	49e79793          	bclri	a5,a5,0x1e
20000bea:	8c55                	or	s0,s0,a3
20000bec:	4515                	li	a0,5
20000bee:	700606b7          	lui	a3,0x70060
20000bf2:	c632                	sw	a2,12(sp)
20000bf4:	cc3a                	sw	a4,24(sp)
20000bf6:	ca36                	sw	a3,20(sp)
20000bf8:	c83e                	sw	a5,16(sp)
20000bfa:	ce22                	sw	s0,28(sp)
20000bfc:	374040ef          	jal	20004f70 <clock_get_hz>
20000c00:	5e7090ef          	jal	2000a9e6 <__floatunsisf>
20000c04:	2000c7b7          	lui	a5,0x2000c
20000c08:	e5c7a583          	lw	a1,-420(a5) # 2000be5c <__clz_tab+0x118>
20000c0c:	10f090ef          	jal	2000a51a <__divsf3>
20000c10:	2000c7b7          	lui	a5,0x2000c
20000c14:	e607a583          	lw	a1,-416(a5) # 2000be60 <__clz_tab+0x11c>
20000c18:	65c040ef          	jal	20005274 <__addsf3>
20000c1c:	8a2a                	mv	s4,a0
20000c1e:	4db090ef          	jal	2000a8f8 <__fixunssfsi>
20000c22:	08054433          	zext.h	s0,a0
20000c26:	4501                	li	a0,0
20000c28:	c01d                	beqz	s0,20000c4e <matrix_init+0xd8>
20000c2a:	8522                	mv	a0,s0
20000c2c:	5bb090ef          	jal	2000a9e6 <__floatunsisf>
20000c30:	85aa                	mv	a1,a0
20000c32:	8552                	mv	a0,s4
20000c34:	63c040ef          	jal	20005270 <__subsf3>
20000c38:	2000c7b7          	lui	a5,0x2000c
20000c3c:	e647a583          	lw	a1,-412(a5) # 2000be64 <__clz_tab+0x120>
20000c40:	784040ef          	jal	200053c4 <__mulsf3>
20000c44:	4b5090ef          	jal	2000a8f8 <__fixunssfsi>
20000c48:	0ff57513          	zext.b	a0,a0
20000c4c:	0522                	slli	a0,a0,0x8
20000c4e:	0442                	slli	s0,s0,0x10
20000c50:	864a                	mv	a2,s2
20000c52:	0074                	addi	a3,sp,12
20000c54:	85a6                	mv	a1,s1
20000c56:	8c49                	or	s0,s0,a0
20000c58:	50200537          	lui	a0,0x50200
20000c5c:	c622                	sw	s0,12(sp)
20000c5e:	051060ef          	jal	200074ae <pio_sm_init>
20000c62:	50200437          	lui	s0,0x50200
20000c66:	401c                	lw	a5,0(s0)
20000c68:	4505                	li	a0,1
20000c6a:	289797b3          	bset	a5,a5,s1
20000c6e:	c01c                	sw	a5,0(s0)
20000c70:	15b060ef          	jal	200075ca <dma_claim_unused_channel>
20000c74:	8241a683          	lw	a3,-2012(gp) # 2000c7b0 <sm>
20000c78:	500007b7          	lui	a5,0x50000
20000c7c:	00651713          	slli	a4,a0,0x6
20000c80:	2000c837          	lui	a6,0x2000c
20000c84:	fc0205b7          	lui	a1,0xfc020
20000c88:	973e                	add	a4,a4,a5
20000c8a:	00468613          	addi	a2,a3,4 # 70060004 <__StackTop+0x4ffde004>
20000c8e:	72c80813          	addi	a6,a6,1836 # 2000c72c <txbuf>
20000c92:	00d51793          	slli	a5,a0,0xd
20000c96:	15fd                	addi	a1,a1,-1 # fc01ffff <__StackTop+0xdbf9dfff>
20000c98:	01072023          	sw	a6,0(a4)
20000c9c:	20864633          	sh2add	a2,a2,s0
20000ca0:	06c6                	slli	a3,a3,0x11
20000ca2:	8fed                	and	a5,a5,a1
20000ca4:	c350                	sw	a2,4(a4)
20000ca6:	50f2                	lw	ra,60(sp)
20000ca8:	5462                	lw	s0,56(sp)
20000caa:	8fd5                	or	a5,a5,a3
20000cac:	46e1                	li	a3,24
20000cae:	c714                	sw	a3,8(a4)
20000cb0:	0197e793          	ori	a5,a5,25
20000cb4:	cb1c                	sw	a5,16(a4)
20000cb6:	82a1a023          	sw	a0,-2016(gp) # 2000c7ac <dma_chan>
20000cba:	54d2                	lw	s1,52(sp)
20000cbc:	5942                	lw	s2,48(sp)
20000cbe:	59b2                	lw	s3,44(sp)
20000cc0:	5a22                	lw	s4,40(sp)
20000cc2:	6121                	addi	sp,sp,64
20000cc4:	8082                	ret

20000cc6 <matrix_set_brightness>:
20000cc6:	2000c7b7          	lui	a5,0x2000c
20000cca:	18a78c23          	sb	a0,408(a5) # 2000c198 <master>
20000cce:	8082                	ret

20000cd0 <matrix_get_brightness>:
20000cd0:	2000c7b7          	lui	a5,0x2000c
20000cd4:	1987c503          	lbu	a0,408(a5) # 2000c198 <master>
20000cd8:	8082                	ret

20000cda <matrix_present>:
20000cda:	2000c7b7          	lui	a5,0x2000c
20000cde:	1987c883          	lbu	a7,408(a5) # 2000c198 <master>
20000ce2:	7175                	addi	sp,sp,-144
20000ce4:	2000b337          	lui	t1,0x2000b
20000ce8:	80808837          	lui	a6,0x80808
20000cec:	860a                	mv	a2,sp
20000cee:	858a                	mv	a1,sp
20000cf0:	32030313          	addi	t1,t1,800 # 2000b320 <gamma16>
20000cf4:	08180813          	addi	a6,a6,129 # 80808081 <__StackTop+0x60786081>
20000cf8:	4e01                	li	t3,0
20000cfa:	00154683          	lbu	a3,1(a0) # 50200001 <__StackTop+0x3017e001>
20000cfe:	00054703          	lbu	a4,0(a0)
20000d02:	00254783          	lbu	a5,2(a0)
20000d06:	2066a6b3          	sh1add	a3,a3,t1
20000d0a:	0006d683          	lhu	a3,0(a3)
20000d0e:	20672733          	sh1add	a4,a4,t1
20000d12:	00075703          	lhu	a4,0(a4)
20000d16:	2067a7b3          	sh1add	a5,a5,t1
20000d1a:	0007d783          	lhu	a5,0(a5)
20000d1e:	031686b3          	mul	a3,a3,a7
20000d22:	0599                	addi	a1,a1,6
20000d24:	050d                	addi	a0,a0,3
20000d26:	03170733          	mul	a4,a4,a7
20000d2a:	031787b3          	mul	a5,a5,a7
20000d2e:	0306b6b3          	mulhu	a3,a3,a6
20000d32:	03073733          	mulhu	a4,a4,a6
20000d36:	00f6de93          	srli	t4,a3,0xf
20000d3a:	829d                	srli	a3,a3,0x7
20000d3c:	fed59e23          	sh	a3,-4(a1)
20000d40:	0307b7b3          	mulhu	a5,a5,a6
20000d44:	00f75693          	srli	a3,a4,0xf
20000d48:	831d                	srli	a4,a4,0x7
20000d4a:	fee59d23          	sh	a4,-6(a1)
20000d4e:	96f6                	add	a3,a3,t4
20000d50:	00f7d713          	srli	a4,a5,0xf
20000d54:	839d                	srli	a5,a5,0x7
20000d56:	fef59f23          	sh	a5,-2(a1)
20000d5a:	9736                	add	a4,a4,a3
20000d5c:	091c                	addi	a5,sp,144
20000d5e:	9e3a                	add	t3,t3,a4
20000d60:	f8b79de3          	bne	a5,a1,20000cfa <matrix_present+0x20>
20000d64:	6791                	lui	a5,0x4
20000d66:	2000c337          	lui	t1,0x2000c
20000d6a:	e8078793          	addi	a5,a5,-384 # 3e80 <HeapSize+0x3680>
20000d6e:	72c30313          	addi	t1,t1,1836 # 2000c72c <txbuf>
20000d72:	13c7ed63          	bltu	a5,t3,20000eac <matrix_present+0x1d2>
20000d76:	2000c6b7          	lui	a3,0x2000c
20000d7a:	881a                	mv	a6,t1
20000d7c:	58468693          	addi	a3,a3,1412 # 2000c584 <derr.0>
20000d80:	0ff00513          	li	a0,255
20000d84:	10000893          	li	a7,256
20000d88:	a071                	j	20000e14 <matrix_present+0x13a>
20000d8a:	0705                	addi	a4,a4,1
20000d8c:	f0078793          	addi	a5,a5,-256
20000d90:	08074733          	zext.h	a4,a4
20000d94:	00f69023          	sh	a5,0(a3)
20000d98:	00ff0eb7          	lui	t4,0xff0
20000d9c:	09171a63          	bne	a4,a7,20000e30 <matrix_present+0x156>
20000da0:	00265783          	lhu	a5,2(a2) # 10002 <HeapSize+0xf802>
20000da4:	0026d583          	lhu	a1,2(a3)
20000da8:	0ff7f713          	zext.b	a4,a5
20000dac:	972e                	add	a4,a4,a1
20000dae:	08074733          	zext.h	a4,a4
20000db2:	83a1                	srli	a5,a5,0x8
20000db4:	08e57c63          	bgeu	a0,a4,20000e4c <matrix_present+0x172>
20000db8:	0785                	addi	a5,a5,1
20000dba:	f0070713          	addi	a4,a4,-256
20000dbe:	0807c5b3          	zext.h	a1,a5
20000dc2:	00e69123          	sh	a4,2(a3)
20000dc6:	ff0007b7          	lui	a5,0xff000
20000dca:	1b159d63          	bne	a1,a7,20000f84 <matrix_present+0x2aa>
20000dce:	00465703          	lhu	a4,4(a2)
20000dd2:	0046de03          	lhu	t3,4(a3)
20000dd6:	0ff77593          	zext.b	a1,a4
20000dda:	95f2                	add	a1,a1,t3
20000ddc:	0805c5b3          	zext.h	a1,a1
20000de0:	8321                	srli	a4,a4,0x8
20000de2:	08b57463          	bgeu	a0,a1,20000e6a <matrix_present+0x190>
20000de6:	0705                	addi	a4,a4,1
20000de8:	f0058593          	addi	a1,a1,-256
20000dec:	08074e33          	zext.h	t3,a4
20000df0:	00b69223          	sh	a1,4(a3)
20000df4:	6741                	lui	a4,0x10
20000df6:	f0070713          	addi	a4,a4,-256 # ff00 <HeapSize+0xf700>
20000dfa:	191e1863          	bne	t3,a7,20000f8a <matrix_present+0x2b0>
20000dfe:	01d7e7b3          	or	a5,a5,t4
20000e02:	8fd9                	or	a5,a5,a4
20000e04:	00f82023          	sw	a5,0(a6)
20000e08:	0619                	addi	a2,a2,6
20000e0a:	091c                	addi	a5,sp,144
20000e0c:	0699                	addi	a3,a3,6
20000e0e:	0811                	addi	a6,a6,4
20000e10:	06c78b63          	beq	a5,a2,20000e86 <matrix_present+0x1ac>
20000e14:	00065703          	lhu	a4,0(a2)
20000e18:	0006d783          	lhu	a5,0(a3)
20000e1c:	0ff77593          	zext.b	a1,a4
20000e20:	97ae                	add	a5,a5,a1
20000e22:	0807c7b3          	zext.h	a5,a5
20000e26:	8321                	srli	a4,a4,0x8
20000e28:	f6f561e3          	bltu	a0,a5,20000d8a <matrix_present+0xb0>
20000e2c:	00f69023          	sh	a5,0(a3)
20000e30:	00265783          	lhu	a5,2(a2)
20000e34:	0026d583          	lhu	a1,2(a3)
20000e38:	01071e93          	slli	t4,a4,0x10
20000e3c:	0ff7f713          	zext.b	a4,a5
20000e40:	972e                	add	a4,a4,a1
20000e42:	08074733          	zext.h	a4,a4
20000e46:	83a1                	srli	a5,a5,0x8
20000e48:	f6e568e3          	bltu	a0,a4,20000db8 <matrix_present+0xde>
20000e4c:	00e69123          	sh	a4,2(a3)
20000e50:	07e2                	slli	a5,a5,0x18
20000e52:	00465703          	lhu	a4,4(a2)
20000e56:	0046de03          	lhu	t3,4(a3)
20000e5a:	0ff77593          	zext.b	a1,a4
20000e5e:	95f2                	add	a1,a1,t3
20000e60:	0805c5b3          	zext.h	a1,a1
20000e64:	8321                	srli	a4,a4,0x8
20000e66:	f8b560e3          	bltu	a0,a1,20000de6 <matrix_present+0x10c>
20000e6a:	00b69223          	sh	a1,4(a3)
20000e6e:	0722                	slli	a4,a4,0x8
20000e70:	01d7e7b3          	or	a5,a5,t4
20000e74:	8fd9                	or	a5,a5,a4
20000e76:	00f82023          	sw	a5,0(a6)
20000e7a:	0619                	addi	a2,a2,6
20000e7c:	091c                	addi	a5,sp,144
20000e7e:	0699                	addi	a3,a3,6
20000e80:	0811                	addi	a6,a6,4
20000e82:	f8c799e3          	bne	a5,a2,20000e14 <matrix_present+0x13a>
20000e86:	8201a703          	lw	a4,-2016(gp) # 2000c7ac <dma_chan>
20000e8a:	50000637          	lui	a2,0x50000
20000e8e:	071a                	slli	a4,a4,0x6
20000e90:	9732                	add	a4,a4,a2
20000e92:	4b1c                	lw	a5,16(a4)
20000e94:	00579693          	slli	a3,a5,0x5
20000e98:	fe06cde3          	bltz	a3,20000e92 <matrix_present+0x1b8>
20000e9c:	8201a783          	lw	a5,-2016(gp) # 2000c7ac <dma_chan>
20000ea0:	079a                	slli	a5,a5,0x6
20000ea2:	97b2                	add	a5,a5,a2
20000ea4:	0267ae23          	sw	t1,60(a5) # ff00003c <__StackTop+0xdef7e03c>
20000ea8:	6149                	addi	sp,sp,144
20000eaa:	8082                	ret
20000eac:	003e8537          	lui	a0,0x3e8
20000eb0:	2000c5b7          	lui	a1,0x2000c
20000eb4:	03c55533          	divu	a0,a0,t3
20000eb8:	889a                	mv	a7,t1
20000eba:	58458593          	addi	a1,a1,1412 # 2000c584 <derr.0>
20000ebe:	0ff00813          	li	a6,255
20000ec2:	a819                	j	20000ed8 <matrix_present+0x1fe>
20000ec4:	01f59223          	sh	t6,4(a1)
20000ec8:	01d8a023          	sw	t4,0(a7)
20000ecc:	0619                	addi	a2,a2,6 # 50000006 <__StackTop+0x2ff7e006>
20000ece:	091c                	addi	a5,sp,144
20000ed0:	fac78be3          	beq	a5,a2,20000e86 <matrix_present+0x1ac>
20000ed4:	0599                	addi	a1,a1,6
20000ed6:	0891                	addi	a7,a7,4
20000ed8:	00065783          	lhu	a5,0(a2)
20000edc:	0005d703          	lhu	a4,0(a1)
20000ee0:	02a787b3          	mul	a5,a5,a0
20000ee4:	0087d693          	srli	a3,a5,0x8
20000ee8:	0ff6f693          	zext.b	a3,a3
20000eec:	96ba                	add	a3,a3,a4
20000eee:	0806c6b3          	zext.h	a3,a3
20000ef2:	0107d713          	srli	a4,a5,0x10
20000ef6:	00d87563          	bgeu	a6,a3,20000f00 <matrix_present+0x226>
20000efa:	f0068693          	addi	a3,a3,-256
20000efe:	0705                	addi	a4,a4,1
20000f00:	00265783          	lhu	a5,2(a2)
20000f04:	0025de03          	lhu	t3,2(a1)
20000f08:	00d59023          	sh	a3,0(a1)
20000f0c:	02a787b3          	mul	a5,a5,a0
20000f10:	0742                	slli	a4,a4,0x10
20000f12:	0087d693          	srli	a3,a5,0x8
20000f16:	0ff6f693          	zext.b	a3,a3
20000f1a:	96f2                	add	a3,a3,t3
20000f1c:	0806c6b3          	zext.h	a3,a3
20000f20:	83c1                	srli	a5,a5,0x10
20000f22:	00d87563          	bgeu	a6,a3,20000f2c <matrix_present+0x252>
20000f26:	f0068693          	addi	a3,a3,-256
20000f2a:	0785                	addi	a5,a5,1
20000f2c:	00465e03          	lhu	t3,4(a2)
20000f30:	0045de83          	lhu	t4,4(a1)
20000f34:	00d59123          	sh	a3,2(a1)
20000f38:	02ae0e33          	mul	t3,t3,a0
20000f3c:	07e2                	slli	a5,a5,0x18
20000f3e:	00f76f33          	or	t5,a4,a5
20000f42:	008e5693          	srli	a3,t3,0x8
20000f46:	0ff6f693          	zext.b	a3,a3
20000f4a:	010e5e13          	srli	t3,t3,0x10
20000f4e:	96f6                	add	a3,a3,t4
20000f50:	001e0e93          	addi	t4,t3,1
20000f54:	080eceb3          	zext.h	t4,t4
20000f58:	0806c6b3          	zext.h	a3,a3
20000f5c:	0ea2                	slli	t4,t4,0x8
20000f5e:	f0068f93          	addi	t6,a3,-256
20000f62:	01eeeeb3          	or	t4,t4,t5
20000f66:	f4d86fe3          	bltu	a6,a3,20000ec4 <matrix_present+0x1ea>
20000f6a:	8fd9                	or	a5,a5,a4
20000f6c:	0e22                	slli	t3,t3,0x8
20000f6e:	01c7e7b3          	or	a5,a5,t3
20000f72:	00f8a023          	sw	a5,0(a7)
20000f76:	00d59223          	sh	a3,4(a1)
20000f7a:	0619                	addi	a2,a2,6
20000f7c:	091c                	addi	a5,sp,144
20000f7e:	f4c79be3          	bne	a5,a2,20000ed4 <matrix_present+0x1fa>
20000f82:	b711                	j	20000e86 <matrix_present+0x1ac>
20000f84:	87ae                	mv	a5,a1
20000f86:	07e2                	slli	a5,a5,0x18
20000f88:	b5e9                	j	20000e52 <matrix_present+0x178>
20000f8a:	8772                	mv	a4,t3
20000f8c:	0722                	slli	a4,a4,0x8
20000f8e:	b5cd                	j	20000e70 <matrix_present+0x196>

20000f90 <eff_fire>:
20000f90:	2000b7b7          	lui	a5,0x2000b
20000f94:	52078793          	addi	a5,a5,1312 # 2000b520 <gm_at>
20000f98:	01978703          	lb	a4,25(a5)
20000f9c:	1141                	addi	sp,sp,-16
20000f9e:	c622                	sw	s0,12(sp)
20000fa0:	34074763          	bltz	a4,200012ee <eff_fire+0x35e>
20000fa4:	4214                	lw	a3,0(a2)
20000fa6:	00d69713          	slli	a4,a3,0xd
20000faa:	8f35                	xor	a4,a4,a3
20000fac:	01175693          	srli	a3,a4,0x11
20000fb0:	8f35                	xor	a4,a4,a3
20000fb2:	00571593          	slli	a1,a4,0x5
20000fb6:	00777693          	andi	a3,a4,7
20000fba:	8f2d                	xor	a4,a4,a1
20000fbc:	32069863          	bnez	a3,200012ec <eff_fire+0x35c>
20000fc0:	00d71693          	slli	a3,a4,0xd
20000fc4:	8f35                	xor	a4,a4,a3
20000fc6:	01175693          	srli	a3,a4,0x11
20000fca:	8f35                	xor	a4,a4,a3
20000fcc:	00571693          	slli	a3,a4,0x5
20000fd0:	1b4e8837          	lui	a6,0x1b4e8
20000fd4:	8f35                	xor	a4,a4,a3
20000fd6:	1b580813          	addi	a6,a6,437 # 1b4e81b5 <HeapSize+0x1b4e79b5>
20000fda:	03073833          	mulhu	a6,a4,a6
20000fde:	c218                	sw	a4,0(a2)
20000fe0:	2000c6b7          	lui	a3,0x2000c
20000fe4:	67468593          	addi	a1,a3,1652 # 2000c674 <heat.0>
20000fe8:	00385813          	srli	a6,a6,0x3
20000fec:	21084833          	sh2add	a6,a6,a6
20000ff0:	00481893          	slli	a7,a6,0x4
20000ff4:	41088833          	sub	a6,a7,a6
20000ff8:	41070733          	sub	a4,a4,a6
20000ffc:	fb470713          	addi	a4,a4,-76
20001000:	00e58ca3          	sb	a4,25(a1)
20001004:	01a78703          	lb	a4,26(a5)
20001008:	2e075b63          	bgez	a4,200012fe <eff_fire+0x36e>
2000100c:	01b78703          	lb	a4,27(a5)
20001010:	06074463          	bltz	a4,20001078 <eff_fire+0xe8>
20001014:	4218                	lw	a4,0(a2)
20001016:	00d71813          	slli	a6,a4,0xd
2000101a:	01074733          	xor	a4,a4,a6
2000101e:	01175813          	srli	a6,a4,0x11
20001022:	01074733          	xor	a4,a4,a6
20001026:	00571893          	slli	a7,a4,0x5
2000102a:	00777813          	andi	a6,a4,7
2000102e:	01174733          	xor	a4,a4,a7
20001032:	48081d63          	bnez	a6,200014cc <eff_fire+0x53c>
20001036:	00d71813          	slli	a6,a4,0xd
2000103a:	00e84733          	xor	a4,a6,a4
2000103e:	01175813          	srli	a6,a4,0x11
20001042:	01074733          	xor	a4,a4,a6
20001046:	00571813          	slli	a6,a4,0x5
2000104a:	01074733          	xor	a4,a4,a6
2000104e:	1b4e8837          	lui	a6,0x1b4e8
20001052:	1b580813          	addi	a6,a6,437 # 1b4e81b5 <HeapSize+0x1b4e79b5>
20001056:	03073833          	mulhu	a6,a4,a6
2000105a:	c218                	sw	a4,0(a2)
2000105c:	00385813          	srli	a6,a6,0x3
20001060:	21084833          	sh2add	a6,a6,a6
20001064:	00481893          	slli	a7,a6,0x4
20001068:	41088833          	sub	a6,a7,a6
2000106c:	41070733          	sub	a4,a4,a6
20001070:	fb470713          	addi	a4,a4,-76
20001074:	00e58da3          	sb	a4,27(a1)
20001078:	01c78703          	lb	a4,28(a5)
2000107c:	06074463          	bltz	a4,200010e4 <eff_fire+0x154>
20001080:	4218                	lw	a4,0(a2)
20001082:	00d71813          	slli	a6,a4,0xd
20001086:	01074733          	xor	a4,a4,a6
2000108a:	01175813          	srli	a6,a4,0x11
2000108e:	01074733          	xor	a4,a4,a6
20001092:	00571813          	slli	a6,a4,0x5
20001096:	00777893          	andi	a7,a4,7
2000109a:	00e84733          	xor	a4,a6,a4
2000109e:	42089563          	bnez	a7,200014c8 <eff_fire+0x538>
200010a2:	00d71813          	slli	a6,a4,0xd
200010a6:	00e84733          	xor	a4,a6,a4
200010aa:	01175813          	srli	a6,a4,0x11
200010ae:	01074733          	xor	a4,a4,a6
200010b2:	00571813          	slli	a6,a4,0x5
200010b6:	00e84833          	xor	a6,a6,a4
200010ba:	1b4e8737          	lui	a4,0x1b4e8
200010be:	1b570713          	addi	a4,a4,437 # 1b4e81b5 <HeapSize+0x1b4e79b5>
200010c2:	02e83733          	mulhu	a4,a6,a4
200010c6:	01062023          	sw	a6,0(a2)
200010ca:	830d                	srli	a4,a4,0x3
200010cc:	20e74733          	sh2add	a4,a4,a4
200010d0:	00471893          	slli	a7,a4,0x4
200010d4:	40e88733          	sub	a4,a7,a4
200010d8:	40e80733          	sub	a4,a6,a4
200010dc:	fb470713          	addi	a4,a4,-76
200010e0:	00e58e23          	sb	a4,28(a1)
200010e4:	01d78783          	lb	a5,29(a5)
200010e8:	0407cd63          	bltz	a5,20001142 <eff_fire+0x1b2>
200010ec:	421c                	lw	a5,0(a2)
200010ee:	00d79713          	slli	a4,a5,0xd
200010f2:	8fb9                	xor	a5,a5,a4
200010f4:	0117d713          	srli	a4,a5,0x11
200010f8:	8fb9                	xor	a5,a5,a4
200010fa:	00579813          	slli	a6,a5,0x5
200010fe:	0077f713          	andi	a4,a5,7
20001102:	0107c7b3          	xor	a5,a5,a6
20001106:	3a071f63          	bnez	a4,200014c4 <eff_fire+0x534>
2000110a:	00d79713          	slli	a4,a5,0xd
2000110e:	8fb9                	xor	a5,a5,a4
20001110:	0117d713          	srli	a4,a5,0x11
20001114:	8fb9                	xor	a5,a5,a4
20001116:	00579713          	slli	a4,a5,0x5
2000111a:	8fb9                	xor	a5,a5,a4
2000111c:	1b4e8737          	lui	a4,0x1b4e8
20001120:	1b570713          	addi	a4,a4,437 # 1b4e81b5 <HeapSize+0x1b4e79b5>
20001124:	02e7b733          	mulhu	a4,a5,a4
20001128:	c21c                	sw	a5,0(a2)
2000112a:	830d                	srli	a4,a4,0x3
2000112c:	20e74733          	sh2add	a4,a4,a4
20001130:	00471813          	slli	a6,a4,0x4
20001134:	40e80733          	sub	a4,a6,a4
20001138:	8f99                	sub	a5,a5,a4
2000113a:	fb478793          	addi	a5,a5,-76
2000113e:	00f58ea3          	sb	a5,29(a1)
20001142:	00062383          	lw	t2,0(a2)
20001146:	0045ce83          	lbu	t4,4(a1)
2000114a:	0035ce03          	lbu	t3,3(a1)
2000114e:	0025c303          	lbu	t1,2(a1)
20001152:	0015c883          	lbu	a7,1(a1)
20001156:	6746cf03          	lbu	t5,1652(a3)
2000115a:	aaaab6b7          	lui	a3,0xaaaab
2000115e:	aab68693          	addi	a3,a3,-1365 # aaaaaaab <__StackTop+0x8aa28aab>
20001162:	872e                	mv	a4,a1
20001164:	4801                	li	a6,0
20001166:	4fd1                	li	t6,20
20001168:	00d39293          	slli	t0,t2,0xd
2000116c:	0072c2b3          	xor	t0,t0,t2
20001170:	0112d793          	srli	a5,t0,0x11
20001174:	0057c7b3          	xor	a5,a5,t0
20001178:	00579393          	slli	t2,a5,0x5
2000117c:	00f3c3b3          	xor	t2,t2,a5
20001180:	02d3b7b3          	mulhu	a5,t2,a3
20001184:	82fa                	mv	t0,t5
20001186:	00574f03          	lbu	t5,5(a4)
2000118a:	4401                	li	s0,0
2000118c:	205f22b3          	sh1add	t0,t5,t0
20001190:	02d2b2b3          	mulhu	t0,t0,a3
20001194:	838d                	srli	a5,a5,0x3
20001196:	20f7a7b3          	sh1add	a5,a5,a5
2000119a:	078a                	slli	a5,a5,0x2
2000119c:	40f387b3          	sub	a5,t2,a5
200011a0:	079d                	addi	a5,a5,7
200011a2:	97c2                	add	a5,a5,a6
200011a4:	0012d293          	srli	t0,t0,0x1
200011a8:	0057d463          	bge	a5,t0,200011b0 <eff_fire+0x220>
200011ac:	40f28433          	sub	s0,t0,a5
200011b0:	00d39293          	slli	t0,t2,0xd
200011b4:	0072c2b3          	xor	t0,t0,t2
200011b8:	0112d793          	srli	a5,t0,0x11
200011bc:	0057c7b3          	xor	a5,a5,t0
200011c0:	00579393          	slli	t2,a5,0x5
200011c4:	00f3c3b3          	xor	t2,t2,a5
200011c8:	02d3b7b3          	mulhu	a5,t2,a3
200011cc:	82c6                	mv	t0,a7
200011ce:	00674883          	lbu	a7,6(a4)
200011d2:	00870023          	sb	s0,0(a4)
200011d6:	4401                	li	s0,0
200011d8:	2058a2b3          	sh1add	t0,a7,t0
200011dc:	02d2b2b3          	mulhu	t0,t0,a3
200011e0:	838d                	srli	a5,a5,0x3
200011e2:	20f7a7b3          	sh1add	a5,a5,a5
200011e6:	078a                	slli	a5,a5,0x2
200011e8:	40f387b3          	sub	a5,t2,a5
200011ec:	079d                	addi	a5,a5,7
200011ee:	97c2                	add	a5,a5,a6
200011f0:	0012d293          	srli	t0,t0,0x1
200011f4:	0057d463          	bge	a5,t0,200011fc <eff_fire+0x26c>
200011f8:	40f28433          	sub	s0,t0,a5
200011fc:	00d39293          	slli	t0,t2,0xd
20001200:	0072c2b3          	xor	t0,t0,t2
20001204:	0112d793          	srli	a5,t0,0x11
20001208:	0057c7b3          	xor	a5,a5,t0
2000120c:	00579393          	slli	t2,a5,0x5
20001210:	00f3c3b3          	xor	t2,t2,a5
20001214:	02d3b7b3          	mulhu	a5,t2,a3
20001218:	829a                	mv	t0,t1
2000121a:	00774303          	lbu	t1,7(a4)
2000121e:	008700a3          	sb	s0,1(a4)
20001222:	4401                	li	s0,0
20001224:	205322b3          	sh1add	t0,t1,t0
20001228:	02d2b2b3          	mulhu	t0,t0,a3
2000122c:	838d                	srli	a5,a5,0x3
2000122e:	20f7a7b3          	sh1add	a5,a5,a5
20001232:	078a                	slli	a5,a5,0x2
20001234:	40f387b3          	sub	a5,t2,a5
20001238:	079d                	addi	a5,a5,7
2000123a:	97c2                	add	a5,a5,a6
2000123c:	0012d293          	srli	t0,t0,0x1
20001240:	0057d463          	bge	a5,t0,20001248 <eff_fire+0x2b8>
20001244:	40f28433          	sub	s0,t0,a5
20001248:	00d39293          	slli	t0,t2,0xd
2000124c:	0072c2b3          	xor	t0,t0,t2
20001250:	0112d793          	srli	a5,t0,0x11
20001254:	0057c7b3          	xor	a5,a5,t0
20001258:	00579393          	slli	t2,a5,0x5
2000125c:	00f3c3b3          	xor	t2,t2,a5
20001260:	02d3b7b3          	mulhu	a5,t2,a3
20001264:	82f2                	mv	t0,t3
20001266:	00874e03          	lbu	t3,8(a4)
2000126a:	00870123          	sb	s0,2(a4)
2000126e:	4401                	li	s0,0
20001270:	205e22b3          	sh1add	t0,t3,t0
20001274:	02d2b2b3          	mulhu	t0,t0,a3
20001278:	838d                	srli	a5,a5,0x3
2000127a:	20f7a7b3          	sh1add	a5,a5,a5
2000127e:	078a                	slli	a5,a5,0x2
20001280:	40f387b3          	sub	a5,t2,a5
20001284:	079d                	addi	a5,a5,7
20001286:	97c2                	add	a5,a5,a6
20001288:	0012d293          	srli	t0,t0,0x1
2000128c:	0057d463          	bge	a5,t0,20001294 <eff_fire+0x304>
20001290:	40f28433          	sub	s0,t0,a5
20001294:	00d39293          	slli	t0,t2,0xd
20001298:	0072c2b3          	xor	t0,t0,t2
2000129c:	0112d793          	srli	a5,t0,0x11
200012a0:	0057c7b3          	xor	a5,a5,t0
200012a4:	00579393          	slli	t2,a5,0x5
200012a8:	00f3c3b3          	xor	t2,t2,a5
200012ac:	02d3b7b3          	mulhu	a5,t2,a3
200012b0:	82f6                	mv	t0,t4
200012b2:	00974e83          	lbu	t4,9(a4)
200012b6:	008701a3          	sb	s0,3(a4)
200012ba:	205ea2b3          	sh1add	t0,t4,t0
200012be:	02d2b2b3          	mulhu	t0,t0,a3
200012c2:	838d                	srli	a5,a5,0x3
200012c4:	20f7a7b3          	sh1add	a5,a5,a5
200012c8:	078a                	slli	a5,a5,0x2
200012ca:	40f387b3          	sub	a5,t2,a5
200012ce:	079d                	addi	a5,a5,7
200012d0:	97c2                	add	a5,a5,a6
200012d2:	0012d293          	srli	t0,t0,0x1
200012d6:	0857d763          	bge	a5,t0,20001364 <eff_fire+0x3d4>
200012da:	40f282b3          	sub	t0,t0,a5
200012de:	00570223          	sb	t0,4(a4)
200012e2:	0811                	addi	a6,a6,4
200012e4:	09f80563          	beq	a6,t6,2000136e <eff_fire+0x3de>
200012e8:	0715                	addi	a4,a4,5
200012ea:	bdbd                	j	20001168 <eff_fire+0x1d8>
200012ec:	c218                	sw	a4,0(a2)
200012ee:	01a78703          	lb	a4,26(a5)
200012f2:	2000c6b7          	lui	a3,0x2000c
200012f6:	67468593          	addi	a1,a3,1652 # 2000c674 <heat.0>
200012fa:	d00749e3          	bltz	a4,2000100c <eff_fire+0x7c>
200012fe:	4218                	lw	a4,0(a2)
20001300:	00d71813          	slli	a6,a4,0xd
20001304:	01074733          	xor	a4,a4,a6
20001308:	01175813          	srli	a6,a4,0x11
2000130c:	01074733          	xor	a4,a4,a6
20001310:	00571893          	slli	a7,a4,0x5
20001314:	00777813          	andi	a6,a4,7
20001318:	01174733          	xor	a4,a4,a7
2000131c:	1a081a63          	bnez	a6,200014d0 <eff_fire+0x540>
20001320:	00d71813          	slli	a6,a4,0xd
20001324:	00e84733          	xor	a4,a6,a4
20001328:	01175813          	srli	a6,a4,0x11
2000132c:	01074733          	xor	a4,a4,a6
20001330:	00571813          	slli	a6,a4,0x5
20001334:	01074733          	xor	a4,a4,a6
20001338:	1b4e8837          	lui	a6,0x1b4e8
2000133c:	1b580813          	addi	a6,a6,437 # 1b4e81b5 <HeapSize+0x1b4e79b5>
20001340:	03073833          	mulhu	a6,a4,a6
20001344:	c218                	sw	a4,0(a2)
20001346:	00385813          	srli	a6,a6,0x3
2000134a:	21084833          	sh2add	a6,a6,a6
2000134e:	00481893          	slli	a7,a6,0x4
20001352:	41088833          	sub	a6,a7,a6
20001356:	41070733          	sub	a4,a4,a6
2000135a:	fb470713          	addi	a4,a4,-76
2000135e:	00e58d23          	sb	a4,26(a1)
20001362:	b16d                	j	2000100c <eff_fire+0x7c>
20001364:	00070223          	sb	zero,4(a4)
20001368:	0811                	addi	a6,a6,4
2000136a:	f7f81fe3          	bne	a6,t6,200012e8 <eff_fire+0x358>
2000136e:	00d39793          	slli	a5,t2,0xd
20001372:	0077c7b3          	xor	a5,a5,t2
20001376:	0117d713          	srli	a4,a5,0x11
2000137a:	0195c803          	lbu	a6,25(a1)
2000137e:	8fb9                	xor	a5,a5,a4
20001380:	00579713          	slli	a4,a5,0x5
20001384:	0077f693          	andi	a3,a5,7
20001388:	8fb9                	xor	a5,a5,a4
2000138a:	4701                	li	a4,0
2000138c:	0106d463          	bge	a3,a6,20001394 <eff_fire+0x404>
20001390:	40d80733          	sub	a4,a6,a3
20001394:	00e58ca3          	sb	a4,25(a1)
20001398:	00d79713          	slli	a4,a5,0xd
2000139c:	8f3d                	xor	a4,a4,a5
2000139e:	01175793          	srli	a5,a4,0x11
200013a2:	01a5c803          	lbu	a6,26(a1)
200013a6:	8fb9                	xor	a5,a5,a4
200013a8:	00579713          	slli	a4,a5,0x5
200013ac:	0077f693          	andi	a3,a5,7
200013b0:	8fb9                	xor	a5,a5,a4
200013b2:	4701                	li	a4,0
200013b4:	0106d463          	bge	a3,a6,200013bc <eff_fire+0x42c>
200013b8:	40d80733          	sub	a4,a6,a3
200013bc:	00e58d23          	sb	a4,26(a1)
200013c0:	00d79713          	slli	a4,a5,0xd
200013c4:	8fb9                	xor	a5,a5,a4
200013c6:	0117d713          	srli	a4,a5,0x11
200013ca:	01b5c803          	lbu	a6,27(a1)
200013ce:	8fb9                	xor	a5,a5,a4
200013d0:	00579713          	slli	a4,a5,0x5
200013d4:	0077f693          	andi	a3,a5,7
200013d8:	8fb9                	xor	a5,a5,a4
200013da:	4701                	li	a4,0
200013dc:	0106d463          	bge	a3,a6,200013e4 <eff_fire+0x454>
200013e0:	40d80733          	sub	a4,a6,a3
200013e4:	00e58da3          	sb	a4,27(a1)
200013e8:	00d79713          	slli	a4,a5,0xd
200013ec:	8fb9                	xor	a5,a5,a4
200013ee:	0117d713          	srli	a4,a5,0x11
200013f2:	01c5c803          	lbu	a6,28(a1)
200013f6:	8fb9                	xor	a5,a5,a4
200013f8:	00579713          	slli	a4,a5,0x5
200013fc:	0077f693          	andi	a3,a5,7
20001400:	8fb9                	xor	a5,a5,a4
20001402:	4701                	li	a4,0
20001404:	0106d463          	bge	a3,a6,2000140c <eff_fire+0x47c>
20001408:	40d80733          	sub	a4,a6,a3
2000140c:	00e58e23          	sb	a4,28(a1)
20001410:	00d79713          	slli	a4,a5,0xd
20001414:	8fb9                	xor	a5,a5,a4
20001416:	0117d713          	srli	a4,a5,0x11
2000141a:	01d5c803          	lbu	a6,29(a1)
2000141e:	8fb9                	xor	a5,a5,a4
20001420:	00579713          	slli	a4,a5,0x5
20001424:	0077f693          	andi	a3,a5,7
20001428:	8fb9                	xor	a5,a5,a4
2000142a:	4701                	li	a4,0
2000142c:	0106d463          	bge	a3,a6,20001434 <eff_fire+0x4a4>
20001430:	40d80733          	sub	a4,a6,a3
20001434:	00e58ea3          	sb	a4,29(a1)
20001438:	2000b6b7          	lui	a3,0x2000b
2000143c:	c21c                	sw	a5,0(a2)
2000143e:	54068693          	addi	a3,a3,1344 # 2000b540 <gm_row>
20001442:	2000b637          	lui	a2,0x2000b
20001446:	01868313          	addi	t1,a3,24
2000144a:	55860613          	addi	a2,a2,1368 # 2000b558 <gm_col>
2000144e:	05400893          	li	a7,84
20001452:	0a900e13          	li	t3,169
20001456:	a00d                	j	20001478 <eff_fire+0x4e8>
20001458:	06fe7063          	bgeu	t3,a5,200014b8 <eff_fire+0x528>
2000145c:	0ff00713          	li	a4,255
20001460:	87ba                	mv	a5,a4
20001462:	00e50023          	sb	a4,0(a0) # 3e8000 <HeapSize+0x3e7800>
20001466:	00f500a3          	sb	a5,1(a0)
2000146a:	01050123          	sb	a6,2(a0)
2000146e:	0685                	addi	a3,a3,1
20001470:	0605                	addi	a2,a2,1
20001472:	050d                	addi	a0,a0,3
20001474:	02d30f63          	beq	t1,a3,200014b2 <eff_fire+0x522>
20001478:	0006c783          	lbu	a5,0(a3)
2000147c:	00064703          	lbu	a4,0(a2)
20001480:	20f7c7b3          	sh2add	a5,a5,a5
20001484:	97ae                	add	a5,a5,a1
20001486:	97ba                	add	a5,a5,a4
20001488:	0007c783          	lbu	a5,0(a5)
2000148c:	20f7a733          	sh1add	a4,a5,a5
20001490:	00270813          	addi	a6,a4,2
20001494:	fcf8e2e3          	bltu	a7,a5,20001458 <eff_fire+0x4c8>
20001498:	4801                	li	a6,0
2000149a:	4781                	li	a5,0
2000149c:	00e50023          	sb	a4,0(a0)
200014a0:	00f500a3          	sb	a5,1(a0)
200014a4:	01050123          	sb	a6,2(a0)
200014a8:	0685                	addi	a3,a3,1
200014aa:	0605                	addi	a2,a2,1
200014ac:	050d                	addi	a0,a0,3
200014ae:	fcd315e3          	bne	t1,a3,20001478 <eff_fire+0x4e8>
200014b2:	4432                	lw	s0,12(sp)
200014b4:	0141                	addi	sp,sp,16
200014b6:	8082                	ret
200014b8:	00170793          	addi	a5,a4,1
200014bc:	4801                	li	a6,0
200014be:	0ff00713          	li	a4,255
200014c2:	b745                	j	20001462 <eff_fire+0x4d2>
200014c4:	c21c                	sw	a5,0(a2)
200014c6:	b9b5                	j	20001142 <eff_fire+0x1b2>
200014c8:	c218                	sw	a4,0(a2)
200014ca:	b929                	j	200010e4 <eff_fire+0x154>
200014cc:	c218                	sw	a4,0(a2)
200014ce:	b66d                	j	20001078 <eff_fire+0xe8>
200014d0:	c218                	sw	a4,0(a2)
200014d2:	be2d                	j	2000100c <eff_fire+0x7c>

200014d4 <eff_matrix_rain>:
200014d4:	1101                	addi	sp,sp,-32
200014d6:	ce22                	sw	s0,28(sp)
200014d8:	cc26                	sw	s1,24(sp)
200014da:	ca4a                	sw	s2,20(sp)
200014dc:	c84e                	sw	s3,16(sp)
200014de:	c652                	sw	s4,12(sp)
200014e0:	00357793          	andi	a5,a0,3
200014e4:	20079e63          	bnez	a5,20001700 <eff_matrix_rain+0x22c>
200014e8:	00052023          	sw	zero,0(a0)
200014ec:	00052223          	sw	zero,4(a0)
200014f0:	00052423          	sw	zero,8(a0)
200014f4:	00052623          	sw	zero,12(a0)
200014f8:	00052823          	sw	zero,16(a0)
200014fc:	00052a23          	sw	zero,20(a0)
20001500:	00052c23          	sw	zero,24(a0)
20001504:	00052e23          	sw	zero,28(a0)
20001508:	02052023          	sw	zero,32(a0)
2000150c:	02052223          	sw	zero,36(a0)
20001510:	02052423          	sw	zero,40(a0)
20001514:	02052623          	sw	zero,44(a0)
20001518:	02052823          	sw	zero,48(a0)
2000151c:	02052a23          	sw	zero,52(a0)
20001520:	02052c23          	sw	zero,56(a0)
20001524:	02052e23          	sw	zero,60(a0)
20001528:	04052023          	sw	zero,64(a0)
2000152c:	04052223          	sw	zero,68(a0)
20001530:	2000b837          	lui	a6,0x2000b
20001534:	52080813          	addi	a6,a6,1312 # 2000b520 <gm_at>
20001538:	ccccdf37          	lui	t5,0xccccd
2000153c:	00f80313          	addi	t1,a6,15
20001540:	ccdf0f13          	addi	t5,t5,-819 # cccccccd <__StackTop+0xacc4accd>
20001544:	48f9                	li	a7,30
20001546:	4681                	li	a3,0
20001548:	4615                	li	a2,5
2000154a:	4ec9                	li	t4,18
2000154c:	4e0d                	li	t3,3
2000154e:	03c00413          	li	s0,60
20001552:	43a5                	li	t2,9
20001554:	05a00993          	li	s3,90
20001558:	4939                	li	s2,14
2000155a:	52fd                	li	t0,-1
2000155c:	02800f93          	li	t6,40
20001560:	44a1                	li	s1,8
20001562:	0315d7b3          	divu	a5,a1,a7
20001566:	20d6a733          	sh1add	a4,a3,a3
2000156a:	97ba                	add	a5,a5,a4
2000156c:	03e7b733          	mulhu	a4,a5,t5
20001570:	830d                	srli	a4,a4,0x3
20001572:	20e74733          	sh2add	a4,a4,a4
20001576:	0706                	slli	a4,a4,0x1
20001578:	8f99                	sub	a5,a5,a4
2000157a:	ffe78713          	addi	a4,a5,-2
2000157e:	10e66763          	bltu	a2,a4,2000168c <eff_matrix_rain+0x1b8>
20001582:	20e74733          	sh2add	a4,a4,a4
20001586:	9742                	add	a4,a4,a6
20001588:	9736                	add	a4,a4,a3
2000158a:	00070703          	lb	a4,0(a4)
2000158e:	ffd78a13          	addi	s4,a5,-3
20001592:	00074b63          	bltz	a4,200015a8 <eff_matrix_rain+0xd4>
20001596:	20e72733          	sh1add	a4,a4,a4
2000159a:	972a                	add	a4,a4,a0
2000159c:	00070023          	sb	zero,0(a4)
200015a0:	005700a3          	sb	t0,1(a4)
200015a4:	01f70123          	sb	t6,2(a4)
200015a8:	0d466663          	bltu	a2,s4,20001674 <eff_matrix_rain+0x1a0>
200015ac:	214a4a33          	sh2add	s4,s4,s4
200015b0:	9a42                	add	s4,s4,a6
200015b2:	9a36                	add	s4,s4,a3
200015b4:	000a0703          	lb	a4,0(s4)
200015b8:	00074b63          	bltz	a4,200015ce <eff_matrix_rain+0xfa>
200015bc:	20e72733          	sh1add	a4,a4,a4
200015c0:	972a                	add	a4,a4,a0
200015c2:	00070023          	sb	zero,0(a4)
200015c6:	013700a3          	sb	s3,1(a4)
200015ca:	01270123          	sb	s2,2(a4)
200015ce:	ffc78713          	addi	a4,a5,-4
200015d2:	0ae66163          	bltu	a2,a4,20001674 <eff_matrix_rain+0x1a0>
200015d6:	20e74733          	sh2add	a4,a4,a4
200015da:	9742                	add	a4,a4,a6
200015dc:	9736                	add	a4,a4,a3
200015de:	00070703          	lb	a4,0(a4)
200015e2:	00074b63          	bltz	a4,200015f8 <eff_matrix_rain+0x124>
200015e6:	20e72733          	sh1add	a4,a4,a4
200015ea:	972a                	add	a4,a4,a0
200015ec:	00070023          	sb	zero,0(a4)
200015f0:	008700a3          	sb	s0,1(a4)
200015f4:	00770123          	sb	t2,2(a4)
200015f8:	ffb78713          	addi	a4,a5,-5
200015fc:	06e66c63          	bltu	a2,a4,20001674 <eff_matrix_rain+0x1a0>
20001600:	20e74733          	sh2add	a4,a4,a4
20001604:	9742                	add	a4,a4,a6
20001606:	9736                	add	a4,a4,a3
20001608:	00070703          	lb	a4,0(a4)
2000160c:	00074b63          	bltz	a4,20001622 <eff_matrix_rain+0x14e>
20001610:	20e72733          	sh1add	a4,a4,a4
20001614:	972a                	add	a4,a4,a0
20001616:	00070023          	sb	zero,0(a4)
2000161a:	01d700a3          	sb	t4,1(a4)
2000161e:	01c70123          	sb	t3,2(a4)
20001622:	ffa78713          	addi	a4,a5,-6
20001626:	04e66763          	bltu	a2,a4,20001674 <eff_matrix_rain+0x1a0>
2000162a:	20e74733          	sh2add	a4,a4,a4
2000162e:	9742                	add	a4,a4,a6
20001630:	9736                	add	a4,a4,a3
20001632:	00070703          	lb	a4,0(a4)
20001636:	00074b63          	bltz	a4,2000164c <eff_matrix_rain+0x178>
2000163a:	20e72733          	sh1add	a4,a4,a4
2000163e:	972a                	add	a4,a4,a0
20001640:	00070023          	sb	zero,0(a4)
20001644:	01d700a3          	sb	t4,1(a4)
20001648:	01c70123          	sb	t3,2(a4)
2000164c:	17e5                	addi	a5,a5,-7
2000164e:	02f66363          	bltu	a2,a5,20001674 <eff_matrix_rain+0x1a0>
20001652:	20f7c7b3          	sh2add	a5,a5,a5
20001656:	97c2                	add	a5,a5,a6
20001658:	97b6                	add	a5,a5,a3
2000165a:	00078783          	lb	a5,0(a5)
2000165e:	0007cb63          	bltz	a5,20001674 <eff_matrix_rain+0x1a0>
20001662:	20f7a7b3          	sh1add	a5,a5,a5
20001666:	97aa                	add	a5,a5,a0
20001668:	00078023          	sb	zero,0(a5)
2000166c:	01d780a3          	sb	t4,1(a5)
20001670:	01c78123          	sb	t3,2(a5)
20001674:	0685                	addi	a3,a3,1
20001676:	089d                	addi	a7,a7,7
20001678:	0305                	addi	t1,t1,1
2000167a:	eec694e3          	bne	a3,a2,20001562 <eff_matrix_rain+0x8e>
2000167e:	4472                	lw	s0,28(sp)
20001680:	44e2                	lw	s1,24(sp)
20001682:	4952                	lw	s2,20(sp)
20001684:	49c2                	lw	s3,16(sp)
20001686:	4a32                	lw	s4,12(sp)
20001688:	6105                	addi	sp,sp,32
2000168a:	8082                	ret
2000168c:	02979463          	bne	a5,s1,200016b4 <eff_matrix_rain+0x1e0>
20001690:	00a30703          	lb	a4,10(t1)
20001694:	04074463          	bltz	a4,200016dc <eff_matrix_rain+0x208>
20001698:	20e72733          	sh1add	a4,a4,a4
2000169c:	972a                	add	a4,a4,a0
2000169e:	05a00a13          	li	s4,90
200016a2:	014700a3          	sb	s4,1(a4)
200016a6:	4a39                	li	s4,14
200016a8:	00070023          	sb	zero,0(a4)
200016ac:	01470123          	sb	s4,2(a4)
200016b0:	4711                	li	a4,4
200016b2:	b715                	j	200015d6 <eff_matrix_rain+0x102>
200016b4:	4725                	li	a4,9
200016b6:	fae79fe3          	bne	a5,a4,20001674 <eff_matrix_rain+0x1a0>
200016ba:	00a30703          	lb	a4,10(t1)
200016be:	04074e63          	bltz	a4,2000171a <eff_matrix_rain+0x246>
200016c2:	20e72733          	sh1add	a4,a4,a4
200016c6:	972a                	add	a4,a4,a0
200016c8:	03c00a13          	li	s4,60
200016cc:	00070023          	sb	zero,0(a4)
200016d0:	00f70123          	sb	a5,2(a4)
200016d4:	014700a3          	sb	s4,1(a4)
200016d8:	4711                	li	a4,4
200016da:	b71d                	j	20001600 <eff_matrix_rain+0x12c>
200016dc:	00530703          	lb	a4,5(t1)
200016e0:	04074e63          	bltz	a4,2000173c <eff_matrix_rain+0x268>
200016e4:	20e72733          	sh1add	a4,a4,a4
200016e8:	972a                	add	a4,a4,a0
200016ea:	03c00a13          	li	s4,60
200016ee:	014700a3          	sb	s4,1(a4)
200016f2:	4a25                	li	s4,9
200016f4:	00070023          	sb	zero,0(a4)
200016f8:	01470123          	sb	s4,2(a4)
200016fc:	470d                	li	a4,3
200016fe:	b709                	j	20001600 <eff_matrix_rain+0x12c>
20001700:	87aa                	mv	a5,a0
20001702:	04850713          	addi	a4,a0,72
20001706:	00078023          	sb	zero,0(a5)
2000170a:	000780a3          	sb	zero,1(a5)
2000170e:	00078123          	sb	zero,2(a5)
20001712:	078d                	addi	a5,a5,3
20001714:	fef719e3          	bne	a4,a5,20001706 <eff_matrix_rain+0x232>
20001718:	bd21                	j	20001530 <eff_matrix_rain+0x5c>
2000171a:	00530703          	lb	a4,5(t1)
2000171e:	04074063          	bltz	a4,2000175e <eff_matrix_rain+0x28a>
20001722:	20e72733          	sh1add	a4,a4,a4
20001726:	00e50a33          	add	s4,a0,a4
2000172a:	4749                	li	a4,18
2000172c:	00ea00a3          	sb	a4,1(s4)
20001730:	470d                	li	a4,3
20001732:	000a0023          	sb	zero,0(s4)
20001736:	00ea0123          	sb	a4,2(s4)
2000173a:	bdc5                	j	2000162a <eff_matrix_rain+0x156>
2000173c:	00030703          	lb	a4,0(t1)
20001740:	04074063          	bltz	a4,20001780 <eff_matrix_rain+0x2ac>
20001744:	20e72733          	sh1add	a4,a4,a4
20001748:	972a                	add	a4,a4,a0
2000174a:	4a49                	li	s4,18
2000174c:	014700a3          	sb	s4,1(a4)
20001750:	4a0d                	li	s4,3
20001752:	00070023          	sb	zero,0(a4)
20001756:	01470123          	sb	s4,2(a4)
2000175a:	4709                	li	a4,2
2000175c:	b5f9                	j	2000162a <eff_matrix_rain+0x156>
2000175e:	00030783          	lb	a5,0(t1)
20001762:	0007cd63          	bltz	a5,2000177c <eff_matrix_rain+0x2a8>
20001766:	20f7a7b3          	sh1add	a5,a5,a5
2000176a:	97aa                	add	a5,a5,a0
2000176c:	4749                	li	a4,18
2000176e:	00e780a3          	sb	a4,1(a5)
20001772:	470d                	li	a4,3
20001774:	00078023          	sb	zero,0(a5)
20001778:	00e78123          	sb	a4,2(a5)
2000177c:	4789                	li	a5,2
2000177e:	bdd1                	j	20001652 <eff_matrix_rain+0x17e>
20001780:	00d807b3          	add	a5,a6,a3
20001784:	00a78783          	lb	a5,10(a5)
20001788:	0007cd63          	bltz	a5,200017a2 <eff_matrix_rain+0x2ce>
2000178c:	20f7a7b3          	sh1add	a5,a5,a5
20001790:	97aa                	add	a5,a5,a0
20001792:	4749                	li	a4,18
20001794:	00e780a3          	sb	a4,1(a5)
20001798:	470d                	li	a4,3
2000179a:	00078023          	sb	zero,0(a5)
2000179e:	00e78123          	sb	a4,2(a5)
200017a2:	4785                	li	a5,1
200017a4:	b57d                	j	20001652 <eff_matrix_rain+0x17e>

200017a6 <eff_sparkle>:
200017a6:	2000c8b7          	lui	a7,0x2000c
200017aa:	71488893          	addi	a7,a7,1812 # 2000c714 <spk.2>
200017ae:	85c6                	mv	a1,a7
200017b0:	01888813          	addi	a6,a7,24
200017b4:	8746                	mv	a4,a7
200017b6:	00074683          	lbu	a3,0(a4)
200017ba:	0705                	addi	a4,a4,1
200017bc:	00a6b793          	sltiu	a5,a3,10
200017c0:	17fd                	addi	a5,a5,-1
200017c2:	16d9                	addi	a3,a3,-10
200017c4:	8ff5                	and	a5,a5,a3
200017c6:	fef70fa3          	sb	a5,-1(a4)
200017ca:	ff0716e3          	bne	a4,a6,200017b6 <eff_sparkle+0x10>
200017ce:	421c                	lw	a5,0(a2)
200017d0:	00d79713          	slli	a4,a5,0xd
200017d4:	8f3d                	xor	a4,a4,a5
200017d6:	01175793          	srli	a5,a4,0x11
200017da:	8fb9                	xor	a5,a5,a4
200017dc:	00579713          	slli	a4,a5,0x5
200017e0:	0037f693          	andi	a3,a5,3
200017e4:	8f3d                	xor	a4,a4,a5
200017e6:	1c068563          	beqz	a3,200019b0 <eff_sparkle+0x20a>
200017ea:	2000c837          	lui	a6,0x2000c
200017ee:	6fc80813          	addi	a6,a6,1788 # 2000c6fc <shue.1>
200017f2:	00d71793          	slli	a5,a4,0xd
200017f6:	8fb9                	xor	a5,a5,a4
200017f8:	0117d713          	srli	a4,a5,0x11
200017fc:	8fb9                	xor	a5,a5,a4
200017fe:	00579693          	slli	a3,a5,0x5
20001802:	0037f713          	andi	a4,a5,3
20001806:	8fb5                	xor	a5,a5,a3
20001808:	eb21                	bnez	a4,20001858 <eff_sparkle+0xb2>
2000180a:	00d79693          	slli	a3,a5,0xd
2000180e:	8ebd                	xor	a3,a3,a5
20001810:	0116d793          	srli	a5,a3,0x11
20001814:	8ebd                	xor	a3,a3,a5
20001816:	00569793          	slli	a5,a3,0x5
2000181a:	aaaab737          	lui	a4,0xaaaab
2000181e:	8ebd                	xor	a3,a3,a5
20001820:	aab70713          	addi	a4,a4,-1365 # aaaaaaab <__StackTop+0x8aa28aab>
20001824:	02e6b733          	mulhu	a4,a3,a4
20001828:	00d69793          	slli	a5,a3,0xd
2000182c:	8fb5                	xor	a5,a5,a3
2000182e:	0117d313          	srli	t1,a5,0x11
20001832:	0067c7b3          	xor	a5,a5,t1
20001836:	00579e13          	slli	t3,a5,0x5
2000183a:	537d                	li	t1,-1
2000183c:	01c7c7b3          	xor	a5,a5,t3
20001840:	8311                	srli	a4,a4,0x4
20001842:	20e72733          	sh1add	a4,a4,a4
20001846:	070e                	slli	a4,a4,0x3
20001848:	40e68733          	sub	a4,a3,a4
2000184c:	98ba                	add	a7,a7,a4
2000184e:	9742                	add	a4,a4,a6
20001850:	00688023          	sb	t1,0(a7)
20001854:	00f70023          	sb	a5,0(a4)
20001858:	c21c                	sw	a5,0(a2)
2000185a:	2fa0c8b7          	lui	a7,0x2fa0c
2000185e:	8642                	mv	a2,a6
20001860:	2000b837          	lui	a6,0x2000b
20001864:	01860e13          	addi	t3,a2,24
20001868:	e8388893          	addi	a7,a7,-381 # 2fa0be83 <__StackTop+0xf989e83>
2000186c:	5b480813          	addi	a6,a6,1460 # 2000b5b4 <gfx_sin_q+0x44>
20001870:	4311                	li	t1,4
20001872:	00064783          	lbu	a5,0(a2)
20001876:	0317b6b3          	mulhu	a3,a5,a7
2000187a:	828d                	srli	a3,a3,0x3
2000187c:	20d6c733          	sh2add	a4,a3,a3
20001880:	20d74733          	sh2add	a4,a4,a3
20001884:	20d72733          	sh1add	a4,a4,a3
20001888:	8f99                	sub	a5,a5,a4
2000188a:	20f7a7b3          	sh1add	a5,a5,a5
2000188e:	0786                	slli	a5,a5,0x1
20001890:	0ff7f793          	zext.b	a5,a5
20001894:	0ff7cf13          	xori	t5,a5,255
20001898:	21ef6eb3          	sh3add	t4,t5,t5
2000189c:	20f7e733          	sh3add	a4,a5,a5
200018a0:	0e8a                	slli	t4,t4,0x2
200018a2:	41ee8eb3          	sub	t4,t4,t5
200018a6:	070a                	slli	a4,a4,0x2
200018a8:	40f707b3          	sub	a5,a4,a5
200018ac:	001e9713          	slli	a4,t4,0x1
200018b0:	08070713          	addi	a4,a4,128
200018b4:	0786                	slli	a5,a5,0x1
200018b6:	08078793          	addi	a5,a5,128
200018ba:	00875f13          	srli	t5,a4,0x8
200018be:	0087de93          	srli	t4,a5,0x8
200018c2:	977a                	add	a4,a4,t5
200018c4:	97f6                	add	a5,a5,t4
200018c6:	8321                	srli	a4,a4,0x8
200018c8:	0ff00e93          	li	t4,255
200018cc:	40eef733          	andn	a4,t4,a4
200018d0:	83a1                	srli	a5,a5,0x8
200018d2:	0ff00e93          	li	t4,255
200018d6:	40fef7b3          	andn	a5,t4,a5
200018da:	00871f13          	slli	t5,a4,0x8
200018de:	00879e93          	slli	t4,a5,0x8
200018e2:	40ef0f33          	sub	t5,t5,a4
200018e6:	40fe8eb3          	sub	t4,t4,a5
200018ea:	080f0f13          	addi	t5,t5,128
200018ee:	080e8e93          	addi	t4,t4,128 # ff0080 <HeapSize+0xfef880>
200018f2:	008f5793          	srli	a5,t5,0x8
200018f6:	008ed713          	srli	a4,t4,0x8
200018fa:	97fa                	add	a5,a5,t5
200018fc:	9776                	add	a4,a4,t4
200018fe:	83a1                	srli	a5,a5,0x8
20001900:	8321                	srli	a4,a4,0x8
20001902:	10d36463          	bltu	t1,a3,20001a0a <eff_sparkle+0x264>
20001906:	2106c6b3          	sh2add	a3,a3,a6
2000190a:	4294                	lw	a3,0(a3)
2000190c:	8682                	jr	a3
2000190e:	0b900f13          	li	t5,185
20001912:	0ff00793          	li	a5,255
20001916:	0005c683          	lbu	a3,0(a1)
2000191a:	0605                	addi	a2,a2,1
2000191c:	0585                	addi	a1,a1,1
2000191e:	02e68733          	mul	a4,a3,a4
20001922:	050d                	addi	a0,a0,3
20001924:	02f687b3          	mul	a5,a3,a5
20001928:	08070713          	addi	a4,a4,128
2000192c:	00875e93          	srli	t4,a4,0x8
20001930:	9776                	add	a4,a4,t4
20001932:	8321                	srli	a4,a4,0x8
20001934:	0719                	addi	a4,a4,6
20001936:	0ff73e93          	sltiu	t4,a4,255
2000193a:	1efd                	addi	t4,t4,-1
2000193c:	00eeeeb3          	or	t4,t4,a4
20001940:	ffd50ea3          	sb	t4,-3(a0)
20001944:	03e686b3          	mul	a3,a3,t5
20001948:	08078793          	addi	a5,a5,128
2000194c:	0087d713          	srli	a4,a5,0x8
20001950:	97ba                	add	a5,a5,a4
20001952:	83a1                	srli	a5,a5,0x8
20001954:	07ad                	addi	a5,a5,11
20001956:	0ff7b713          	sltiu	a4,a5,255
2000195a:	177d                	addi	a4,a4,-1
2000195c:	8f5d                	or	a4,a4,a5
2000195e:	fee50f23          	sb	a4,-2(a0)
20001962:	08068693          	addi	a3,a3,128
20001966:	0086d793          	srli	a5,a3,0x8
2000196a:	97b6                	add	a5,a5,a3
2000196c:	83a1                	srli	a5,a5,0x8
2000196e:	07e9                	addi	a5,a5,26
20001970:	0ff7b713          	sltiu	a4,a5,255
20001974:	177d                	addi	a4,a4,-1
20001976:	8f5d                	or	a4,a4,a5
20001978:	fee50fa3          	sb	a4,-1(a0)
2000197c:	efc61be3          	bne	a2,t3,20001872 <eff_sparkle+0xcc>
20001980:	8082                	ret
20001982:	0b900f13          	li	t5,185
20001986:	0ff00713          	li	a4,255
2000198a:	b771                	j	20001916 <eff_sparkle+0x170>
2000198c:	873e                	mv	a4,a5
2000198e:	0ff00f13          	li	t5,255
20001992:	0b900793          	li	a5,185
20001996:	b741                	j	20001916 <eff_sparkle+0x170>
20001998:	87ba                	mv	a5,a4
2000199a:	0ff00f13          	li	t5,255
2000199e:	0b900713          	li	a4,185
200019a2:	bf95                	j	20001916 <eff_sparkle+0x170>
200019a4:	8f3e                	mv	t5,a5
200019a6:	0b900713          	li	a4,185
200019aa:	0ff00793          	li	a5,255
200019ae:	b7a5                	j	20001916 <eff_sparkle+0x170>
200019b0:	00d71793          	slli	a5,a4,0xd
200019b4:	8f3d                	xor	a4,a4,a5
200019b6:	01175793          	srli	a5,a4,0x11
200019ba:	8fb9                	xor	a5,a5,a4
200019bc:	00579693          	slli	a3,a5,0x5
200019c0:	8ebd                	xor	a3,a3,a5
200019c2:	aaaab7b7          	lui	a5,0xaaaab
200019c6:	aab78793          	addi	a5,a5,-1365 # aaaaaaab <__StackTop+0x8aa28aab>
200019ca:	02f6b7b3          	mulhu	a5,a3,a5
200019ce:	00d69713          	slli	a4,a3,0xd
200019d2:	8f35                	xor	a4,a4,a3
200019d4:	01175313          	srli	t1,a4,0x11
200019d8:	00e34333          	xor	t1,t1,a4
200019dc:	2000c837          	lui	a6,0x2000c
200019e0:	6fc80813          	addi	a6,a6,1788 # 2000c6fc <shue.1>
200019e4:	00531713          	slli	a4,t1,0x5
200019e8:	5e7d                	li	t3,-1
200019ea:	00674733          	xor	a4,a4,t1
200019ee:	8391                	srli	a5,a5,0x4
200019f0:	20f7a7b3          	sh1add	a5,a5,a5
200019f4:	078e                	slli	a5,a5,0x3
200019f6:	40f687b3          	sub	a5,a3,a5
200019fa:	00f886b3          	add	a3,a7,a5
200019fe:	97c2                	add	a5,a5,a6
20001a00:	01c68023          	sb	t3,0(a3)
20001a04:	00e78023          	sb	a4,0(a5)
20001a08:	b3ed                	j	200017f2 <eff_sparkle+0x4c>
20001a0a:	8f3a                	mv	t5,a4
20001a0c:	0b900793          	li	a5,185
20001a10:	0ff00713          	li	a4,255
20001a14:	b709                	j	20001916 <eff_sparkle+0x170>

20001a16 <eff_rainbow_chain>:
20001a16:	aaaab7b7          	lui	a5,0xaaaab
20001a1a:	aab78793          	addi	a5,a5,-1365 # aaaaaaab <__StackTop+0x8aa28aab>
20001a1e:	02f5b5b3          	mulhu	a1,a1,a5
20001a22:	2000b837          	lui	a6,0x2000b
20001a26:	2fa0c8b7          	lui	a7,0x2fa0c
20001a2a:	04850e13          	addi	t3,a0,72
20001a2e:	e8388893          	addi	a7,a7,-381 # 2fa0be83 <__StackTop+0xf989e83>
20001a32:	5c880813          	addi	a6,a6,1480 # 2000b5c8 <gfx_sin_q+0x58>
20001a36:	4311                	li	t1,4
20001a38:	818d                	srli	a1,a1,0x3
20001a3a:	0ff5f593          	zext.b	a1,a1
20001a3e:	0315b6b3          	mulhu	a3,a1,a7
20001a42:	828d                	srli	a3,a3,0x3
20001a44:	20d6c7b3          	sh2add	a5,a3,a3
20001a48:	20d7c7b3          	sh2add	a5,a5,a3
20001a4c:	20d7a7b3          	sh1add	a5,a5,a3
20001a50:	40f587b3          	sub	a5,a1,a5
20001a54:	20f7a7b3          	sh1add	a5,a5,a5
20001a58:	0786                	slli	a5,a5,0x1
20001a5a:	0ff7f793          	zext.b	a5,a5
20001a5e:	0ff7ce93          	xori	t4,a5,255
20001a62:	008e9613          	slli	a2,t4,0x8
20001a66:	41d60633          	sub	a2,a2,t4
20001a6a:	00879713          	slli	a4,a5,0x8
20001a6e:	40f707b3          	sub	a5,a4,a5
20001a72:	08060713          	addi	a4,a2,128
20001a76:	08078793          	addi	a5,a5,128
20001a7a:	00875e93          	srli	t4,a4,0x8
20001a7e:	0087d613          	srli	a2,a5,0x8
20001a82:	9eba                	add	t4,t4,a4
20001a84:	963e                	add	a2,a2,a5
20001a86:	008ede93          	srli	t4,t4,0x8
20001a8a:	0ff00793          	li	a5,255
20001a8e:	41d7feb3          	andn	t4,a5,t4
20001a92:	8221                	srli	a2,a2,0x8
20001a94:	0ff00793          	li	a5,255
20001a98:	40c7f633          	andn	a2,a5,a2
20001a9c:	21dec733          	sh2add	a4,t4,t4
20001aa0:	20c647b3          	sh2add	a5,a2,a2
20001aa4:	21d72733          	sh1add	a4,a4,t4
20001aa8:	20c7a7b3          	sh1add	a5,a5,a2
20001aac:	20e74733          	sh2add	a4,a4,a4
20001ab0:	20f7c7b3          	sh2add	a5,a5,a5
20001ab4:	070a                	slli	a4,a4,0x2
20001ab6:	078a                	slli	a5,a5,0x2
20001ab8:	08078793          	addi	a5,a5,128
20001abc:	08070713          	addi	a4,a4,128
20001ac0:	00875613          	srli	a2,a4,0x8
20001ac4:	0087de93          	srli	t4,a5,0x8
20001ac8:	9732                	add	a4,a4,a2
20001aca:	00fe8633          	add	a2,t4,a5
20001ace:	00875793          	srli	a5,a4,0x8
20001ad2:	00865713          	srli	a4,a2,0x8
20001ad6:	04d36863          	bltu	t1,a3,20001b26 <eff_rainbow_chain+0x110>
20001ada:	2106c633          	sh2add	a2,a3,a6
20001ade:	4210                	lw	a2,0(a2)
20001ae0:	8602                	jr	a2
20001ae2:	4681                	li	a3,0
20001ae4:	0dc00793          	li	a5,220
20001ae8:	00e50023          	sb	a4,0(a0)
20001aec:	00f500a3          	sb	a5,1(a0)
20001af0:	00d50123          	sb	a3,2(a0)
20001af4:	05a9                	addi	a1,a1,10
20001af6:	050d                	addi	a0,a0,3
20001af8:	0ff5f593          	zext.b	a1,a1
20001afc:	f5c511e3          	bne	a0,t3,20001a3e <eff_rainbow_chain+0x28>
20001b00:	8082                	ret
20001b02:	0dc00713          	li	a4,220
20001b06:	b7cd                	j	20001ae8 <eff_rainbow_chain+0xd2>
20001b08:	873e                	mv	a4,a5
20001b0a:	0dc00693          	li	a3,220
20001b0e:	4781                	li	a5,0
20001b10:	bfe1                	j	20001ae8 <eff_rainbow_chain+0xd2>
20001b12:	87ba                	mv	a5,a4
20001b14:	0dc00693          	li	a3,220
20001b18:	4701                	li	a4,0
20001b1a:	b7f9                	j	20001ae8 <eff_rainbow_chain+0xd2>
20001b1c:	86be                	mv	a3,a5
20001b1e:	4701                	li	a4,0
20001b20:	0dc00793          	li	a5,220
20001b24:	b7d1                	j	20001ae8 <eff_rainbow_chain+0xd2>
20001b26:	86ba                	mv	a3,a4
20001b28:	4781                	li	a5,0
20001b2a:	0dc00713          	li	a4,220
20001b2e:	bf6d                	j	20001ae8 <eff_rainbow_chain+0xd2>

20001b30 <eff_rainbow_xy>:
20001b30:	ccccd7b7          	lui	a5,0xccccd
20001b34:	ccd78793          	addi	a5,a5,-819 # cccccccd <__StackTop+0xacc4accd>
20001b38:	02f5b5b3          	mulhu	a1,a1,a5
20001b3c:	2000b6b7          	lui	a3,0x2000b
20001b40:	55868693          	addi	a3,a3,1368 # 2000b558 <gm_col>
20001b44:	2000b637          	lui	a2,0x2000b
20001b48:	2000b837          	lui	a6,0x2000b
20001b4c:	2fa0c8b7          	lui	a7,0x2fa0c
20001b50:	01868e13          	addi	t3,a3,24
20001b54:	54060613          	addi	a2,a2,1344 # 2000b540 <gm_row>
20001b58:	e8388893          	addi	a7,a7,-381 # 2fa0be83 <__StackTop+0xf989e83>
20001b5c:	5dc80813          	addi	a6,a6,1500 # 2000b5dc <gfx_sin_q+0x6c>
20001b60:	818d                	srli	a1,a1,0x3
20001b62:	4311                	li	t1,4
20001b64:	00064703          	lbu	a4,0(a2)
20001b68:	0006c783          	lbu	a5,0(a3)
20001b6c:	97ba                	add	a5,a5,a4
20001b6e:	0792                	slli	a5,a5,0x4
20001b70:	97ae                	add	a5,a5,a1
20001b72:	0ff7f793          	zext.b	a5,a5
20001b76:	0317beb3          	mulhu	t4,a5,a7
20001b7a:	003ede93          	srli	t4,t4,0x3
20001b7e:	21dec733          	sh2add	a4,t4,t4
20001b82:	21d74733          	sh2add	a4,a4,t4
20001b86:	21d72733          	sh1add	a4,a4,t4
20001b8a:	8f99                	sub	a5,a5,a4
20001b8c:	20f7a7b3          	sh1add	a5,a5,a5
20001b90:	0786                	slli	a5,a5,0x1
20001b92:	0ff7f793          	zext.b	a5,a5
20001b96:	0ff7cf93          	xori	t6,a5,255
20001b9a:	008f9f13          	slli	t5,t6,0x8
20001b9e:	41ff0f33          	sub	t5,t5,t6
20001ba2:	00879713          	slli	a4,a5,0x8
20001ba6:	40f707b3          	sub	a5,a4,a5
20001baa:	080f0713          	addi	a4,t5,128
20001bae:	08078793          	addi	a5,a5,128
20001bb2:	00875f93          	srli	t6,a4,0x8
20001bb6:	0087df13          	srli	t5,a5,0x8
20001bba:	9fba                	add	t6,t6,a4
20001bbc:	9f3e                	add	t5,t5,a5
20001bbe:	008fdf93          	srli	t6,t6,0x8
20001bc2:	0ff00793          	li	a5,255
20001bc6:	41f7ffb3          	andn	t6,a5,t6
20001bca:	008f5f13          	srli	t5,t5,0x8
20001bce:	0ff00793          	li	a5,255
20001bd2:	41e7ff33          	andn	t5,a5,t5
20001bd6:	21ffc733          	sh2add	a4,t6,t6
20001bda:	21ef47b3          	sh2add	a5,t5,t5
20001bde:	21f72733          	sh1add	a4,a4,t6
20001be2:	21e7a7b3          	sh1add	a5,a5,t5
20001be6:	20e74733          	sh2add	a4,a4,a4
20001bea:	20f7c7b3          	sh2add	a5,a5,a5
20001bee:	070a                	slli	a4,a4,0x2
20001bf0:	078a                	slli	a5,a5,0x2
20001bf2:	08078793          	addi	a5,a5,128
20001bf6:	08070713          	addi	a4,a4,128
20001bfa:	00875f13          	srli	t5,a4,0x8
20001bfe:	0087df93          	srli	t6,a5,0x8
20001c02:	977a                	add	a4,a4,t5
20001c04:	00ff8f33          	add	t5,t6,a5
20001c08:	00875793          	srli	a5,a4,0x8
20001c0c:	008f5713          	srli	a4,t5,0x8
20001c10:	05d36863          	bltu	t1,t4,20001c60 <eff_rainbow_xy+0x130>
20001c14:	210ecf33          	sh2add	t5,t4,a6
20001c18:	000f2f03          	lw	t5,0(t5)
20001c1c:	8f02                	jr	t5
20001c1e:	4e81                	li	t4,0
20001c20:	0dc00793          	li	a5,220
20001c24:	00e50023          	sb	a4,0(a0)
20001c28:	00f500a3          	sb	a5,1(a0)
20001c2c:	01d50123          	sb	t4,2(a0)
20001c30:	0685                	addi	a3,a3,1
20001c32:	0605                	addi	a2,a2,1
20001c34:	050d                	addi	a0,a0,3
20001c36:	f3c697e3          	bne	a3,t3,20001b64 <eff_rainbow_xy+0x34>
20001c3a:	8082                	ret
20001c3c:	0dc00713          	li	a4,220
20001c40:	b7d5                	j	20001c24 <eff_rainbow_xy+0xf4>
20001c42:	873e                	mv	a4,a5
20001c44:	0dc00e93          	li	t4,220
20001c48:	4781                	li	a5,0
20001c4a:	bfe9                	j	20001c24 <eff_rainbow_xy+0xf4>
20001c4c:	87ba                	mv	a5,a4
20001c4e:	0dc00e93          	li	t4,220
20001c52:	4701                	li	a4,0
20001c54:	bfc1                	j	20001c24 <eff_rainbow_xy+0xf4>
20001c56:	8ebe                	mv	t4,a5
20001c58:	4701                	li	a4,0
20001c5a:	0dc00793          	li	a5,220
20001c5e:	b7d9                	j	20001c24 <eff_rainbow_xy+0xf4>
20001c60:	8eba                	mv	t4,a4
20001c62:	4781                	li	a5,0
20001c64:	0dc00713          	li	a4,220
20001c68:	bf75                	j	20001c24 <eff_rainbow_xy+0xf4>

20001c6a <eff_marquee>:
20001c6a:	ccccd737          	lui	a4,0xccccd
20001c6e:	ccd70713          	addi	a4,a4,-819 # cccccccd <__StackTop+0xacc4accd>
20001c72:	02e5b733          	mulhu	a4,a1,a4
20001c76:	88889637          	lui	a2,0x88889
20001c7a:	88960613          	addi	a2,a2,-1911 # 88888889 <__StackTop+0x68806889>
20001c7e:	2fa0c6b7          	lui	a3,0x2fa0c
20001c82:	e8368693          	addi	a3,a3,-381 # 2fa0be83 <__StackTop+0xf989e83>
20001c86:	aaaab7b7          	lui	a5,0xaaaab
20001c8a:	aab78793          	addi	a5,a5,-1365 # aaaaaaab <__StackTop+0x8aa28aab>
20001c8e:	1141                	addi	sp,sp,-16
20001c90:	c24a                	sw	s2,4(sp)
20001c92:	02a00f13          	li	t5,42
20001c96:	8315                	srli	a4,a4,0x5
20001c98:	02c5b5b3          	mulhu	a1,a1,a2
20001c9c:	0ff77613          	zext.b	a2,a4
20001ca0:	08064313          	xori	t1,a2,128
20001ca4:	0ff77713          	zext.b	a4,a4
20001ca8:	02d63633          	mulhu	a2,a2,a3
20001cac:	0065de93          	srli	t4,a1,0x6
20001cb0:	02d336b3          	mulhu	a3,t1,a3
20001cb4:	820d                	srli	a2,a2,0x3
20001cb6:	20c645b3          	sh2add	a1,a2,a2
20001cba:	20c5c5b3          	sh2add	a1,a1,a2
20001cbe:	20c5a5b3          	sh1add	a1,a1,a2
20001cc2:	8f0d                	sub	a4,a4,a1
20001cc4:	20e72733          	sh1add	a4,a4,a4
20001cc8:	f0100593          	li	a1,-255
20001ccc:	0706                	slli	a4,a4,0x1
20001cce:	0ff77713          	zext.b	a4,a4
20001cd2:	02feb7b3          	mulhu	a5,t4,a5
20001cd6:	828d                	srli	a3,a3,0x3
20001cd8:	20d6c8b3          	sh2add	a7,a3,a3
20001cdc:	20d8c8b3          	sh2add	a7,a7,a3
20001ce0:	20d8a8b3          	sh1add	a7,a7,a3
20001ce4:	411308b3          	sub	a7,t1,a7
20001ce8:	2118a8b3          	sh1add	a7,a7,a7
20001cec:	0886                	slli	a7,a7,0x1
20001cee:	4115efb3          	orn	t6,a1,a7
20001cf2:	0ff74293          	xori	t0,a4,255
20001cf6:	0fffff93          	zext.b	t6,t6
20001cfa:	008f9593          	slli	a1,t6,0x8
20001cfe:	00829813          	slli	a6,t0,0x8
20001d02:	00871e13          	slli	t3,a4,0x8
20001d06:	8385                	srli	a5,a5,0x1
20001d08:	41f585b3          	sub	a1,a1,t6
20001d0c:	40580833          	sub	a6,a6,t0
20001d10:	40ee0e33          	sub	t3,t3,a4
20001d14:	20f7a7b3          	sh1add	a5,a5,a5
20001d18:	08058593          	addi	a1,a1,128
20001d1c:	08080813          	addi	a6,a6,128
20001d20:	080e0e13          	addi	t3,t3,128
20001d24:	40fe87b3          	sub	a5,t4,a5
20001d28:	346f7d63          	bgeu	t5,t1,20002082 <eff_marquee+0x418>
20001d2c:	0ff8f893          	zext.b	a7,a7
20001d30:	00889713          	slli	a4,a7,0x8
20001d34:	411708b3          	sub	a7,a4,a7
20001d38:	08088893          	addi	a7,a7,128
20001d3c:	0088d713          	srli	a4,a7,0x8
20001d40:	9746                	add	a4,a4,a7
20001d42:	8321                	srli	a4,a4,0x8
20001d44:	0ff00893          	li	a7,255
20001d48:	40e8f733          	andn	a4,a7,a4
20001d4c:	00871893          	slli	a7,a4,0x8
20001d50:	40e888b3          	sub	a7,a7,a4
20001d54:	08088893          	addi	a7,a7,128
20001d58:	0088d713          	srli	a4,a7,0x8
20001d5c:	9746                	add	a4,a4,a7
20001d5e:	8321                	srli	a4,a4,0x8
20001d60:	20e72733          	sh1add	a4,a4,a4
20001d64:	070a                	slli	a4,a4,0x2
20001d66:	08070713          	addi	a4,a4,128
20001d6a:	008e5f93          	srli	t6,t3,0x8
20001d6e:	00875f13          	srli	t5,a4,0x8
20001d72:	01cf8eb3          	add	t4,t6,t3
20001d76:	c622                	sw	s0,12(sp)
20001d78:	c426                	sw	s1,8(sp)
20001d7a:	c04e                	sw	s3,0(sp)
20001d7c:	9f3a                	add	t5,t5,a4
20001d7e:	008ede93          	srli	t4,t4,0x8
20001d82:	04850893          	addi	a7,a0,72
20001d86:	aaaab437          	lui	s0,0xaaaab
20001d8a:	aab40413          	addi	s0,s0,-1365 # aaaaaaab <__StackTop+0x8aa28aab>
20001d8e:	02878733          	mul	a4,a5,s0
20001d92:	555554b7          	lui	s1,0x55555
20001d96:	55548493          	addi	s1,s1,1365 # 55555555 <__StackTop+0x354d3555>
20001d9a:	10e4e663          	bltu	s1,a4,20001ea6 <eff_marquee+0x23c>
20001d9e:	00885913          	srli	s2,a6,0x8
20001da2:	010903b3          	add	t2,s2,a6
20001da6:	0ff00713          	li	a4,255
20001daa:	0083d393          	srli	t2,t2,0x8
20001dae:	407773b3          	andn	t2,a4,t2
20001db2:	0ff00713          	li	a4,255
20001db6:	41d779b3          	andn	s3,a4,t4
20001dba:	2073a2b3          	sh1add	t0,t2,t2
20001dbe:	2139a733          	sh1add	a4,s3,s3
20001dc2:	2072c2b3          	sh2add	t0,t0,t2
20001dc6:	21374733          	sh2add	a4,a4,s3
20001dca:	2072e2b3          	sh3add	t0,t0,t2
20001dce:	21376733          	sh3add	a4,a4,s3
20001dd2:	0286                	slli	t0,t0,0x1
20001dd4:	0706                	slli	a4,a4,0x1
20001dd6:	08028293          	addi	t0,t0,128
20001dda:	08070713          	addi	a4,a4,128
20001dde:	00875393          	srli	t2,a4,0x8
20001de2:	0082d993          	srli	s3,t0,0x8
20001de6:	9996                	add	s3,s3,t0
20001de8:	00e382b3          	add	t0,t2,a4
20001dec:	4391                	li	t2,4
20001dee:	0089d713          	srli	a4,s3,0x8
20001df2:	0082d293          	srli	t0,t0,0x8
20001df6:	58c3ea63          	bltu	t2,a2,2000238a <eff_marquee+0x720>
20001dfa:	2000b3b7          	lui	t2,0x2000b
20001dfe:	5f038393          	addi	t2,t2,1520 # 2000b5f0 <gfx_sin_q+0x80>
20001e02:	207643b3          	sh2add	t2,a2,t2
20001e06:	0003a383          	lw	t2,0(t2)
20001e0a:	8382                	jr	t2
20001e0c:	82b2                	mv	t0,a2
20001e0e:	0d200393          	li	t2,210
20001e12:	00750023          	sb	t2,0(a0)
20001e16:	00e500a3          	sb	a4,1(a0)
20001e1a:	00550123          	sb	t0,2(a0)
20001e1e:	050d                	addi	a0,a0,3
20001e20:	0785                	addi	a5,a5,1
20001e22:	f6a892e3          	bne	a7,a0,20001d86 <eff_marquee+0x11c>
20001e26:	4432                	lw	s0,12(sp)
20001e28:	44a2                	lw	s1,8(sp)
20001e2a:	4982                	lw	s3,0(sp)
20001e2c:	4912                	lw	s2,4(sp)
20001e2e:	0141                	addi	sp,sp,16
20001e30:	8082                	ret
20001e32:	fd200493          	li	s1,-46
20001e36:	aaaab437          	lui	s0,0xaaaab
20001e3a:	555553b7          	lui	t2,0x55555
20001e3e:	00e50023          	sb	a4,0(a0)
20001e42:	000500a3          	sb	zero,1(a0)
20001e46:	00950123          	sb	s1,2(a0)
20001e4a:	050d                	addi	a0,a0,3
20001e4c:	aab40413          	addi	s0,s0,-1365 # aaaaaaab <__StackTop+0x8aa28aab>
20001e50:	55538393          	addi	t2,t2,1365 # 55555555 <__StackTop+0x354d3555>
20001e54:	fca889e3          	beq	a7,a0,20001e26 <eff_marquee+0x1bc>
20001e58:	0785                	addi	a5,a5,1
20001e5a:	02878733          	mul	a4,a5,s0
20001e5e:	04e3e463          	bltu	t2,a4,20001ea6 <eff_marquee+0x23c>
20001e62:	01090733          	add	a4,s2,a6
20001e66:	0ff00293          	li	t0,255
20001e6a:	8321                	srli	a4,a4,0x8
20001e6c:	40e2f733          	andn	a4,t0,a4
20001e70:	20e722b3          	sh1add	t0,a4,a4
20001e74:	20e2c2b3          	sh2add	t0,t0,a4
20001e78:	20e2e2b3          	sh3add	t0,t0,a4
20001e7c:	0286                	slli	t0,t0,0x1
20001e7e:	08028293          	addi	t0,t0,128
20001e82:	0082d713          	srli	a4,t0,0x8
20001e86:	9716                	add	a4,a4,t0
20001e88:	8321                	srli	a4,a4,0x8
20001e8a:	00e50023          	sb	a4,0(a0)
20001e8e:	000500a3          	sb	zero,1(a0)
20001e92:	00950123          	sb	s1,2(a0)
20001e96:	050d                	addi	a0,a0,3
20001e98:	f8a887e3          	beq	a7,a0,20001e26 <eff_marquee+0x1bc>
20001e9c:	0785                	addi	a5,a5,1
20001e9e:	02878733          	mul	a4,a5,s0
20001ea2:	fce3f0e3          	bgeu	t2,a4,20001e62 <eff_marquee+0x1f8>
20001ea6:	470d                	li	a4,3
20001ea8:	1ae68e63          	beq	a3,a4,20002064 <eff_marquee+0x3fa>
20001eac:	0085d713          	srli	a4,a1,0x8
20001eb0:	972e                	add	a4,a4,a1
20001eb2:	0ff00293          	li	t0,255
20001eb6:	8321                	srli	a4,a4,0x8
20001eb8:	40e2f733          	andn	a4,t0,a4
20001ebc:	00871293          	slli	t0,a4,0x8
20001ec0:	40e282b3          	sub	t0,t0,a4
20001ec4:	08028293          	addi	t0,t0,128
20001ec8:	0082d713          	srli	a4,t0,0x8
20001ecc:	9716                	add	a4,a4,t0
20001ece:	0ab00293          	li	t0,171
20001ed2:	8321                	srli	a4,a4,0x8
20001ed4:	1662e863          	bltu	t0,t1,20002044 <eff_marquee+0x3da>
20001ed8:	4285                	li	t0,1
20001eda:	18568a63          	beq	a3,t0,2000206e <eff_marquee+0x404>
20001ede:	20e72733          	sh1add	a4,a4,a4
20001ee2:	070a                	slli	a4,a4,0x2
20001ee4:	08070713          	addi	a4,a4,128
20001ee8:	00875293          	srli	t0,a4,0x8
20001eec:	92ba                	add	t0,t0,a4
20001eee:	0082d293          	srli	t0,t0,0x8
20001ef2:	4731                	li	a4,12
20001ef4:	4381                	li	t2,0
20001ef6:	bf31                	j	20001e12 <eff_marquee+0x1a8>
20001ef8:	fd200493          	li	s1,-46
20001efc:	aaaab437          	lui	s0,0xaaaab
20001f00:	555553b7          	lui	t2,0x55555
20001f04:	00050023          	sb	zero,0(a0)
20001f08:	005500a3          	sb	t0,1(a0)
20001f0c:	00950123          	sb	s1,2(a0)
20001f10:	050d                	addi	a0,a0,3
20001f12:	aab40413          	addi	s0,s0,-1365 # aaaaaaab <__StackTop+0x8aa28aab>
20001f16:	55538393          	addi	t2,t2,1365 # 55555555 <__StackTop+0x354d3555>
20001f1a:	f0a886e3          	beq	a7,a0,20001e26 <eff_marquee+0x1bc>
20001f1e:	0785                	addi	a5,a5,1
20001f20:	02878733          	mul	a4,a5,s0
20001f24:	f8e3e1e3          	bltu	t2,a4,20001ea6 <eff_marquee+0x23c>
20001f28:	01cf82b3          	add	t0,t6,t3
20001f2c:	0ff00713          	li	a4,255
20001f30:	0082d293          	srli	t0,t0,0x8
20001f34:	405772b3          	andn	t0,a4,t0
20001f38:	2052a733          	sh1add	a4,t0,t0
20001f3c:	20574733          	sh2add	a4,a4,t0
20001f40:	20576733          	sh3add	a4,a4,t0
20001f44:	0706                	slli	a4,a4,0x1
20001f46:	08070713          	addi	a4,a4,128
20001f4a:	00875293          	srli	t0,a4,0x8
20001f4e:	92ba                	add	t0,t0,a4
20001f50:	0082d293          	srli	t0,t0,0x8
20001f54:	00050023          	sb	zero,0(a0)
20001f58:	005500a3          	sb	t0,1(a0)
20001f5c:	00950123          	sb	s1,2(a0)
20001f60:	050d                	addi	a0,a0,3
20001f62:	faa89ee3          	bne	a7,a0,20001f1e <eff_marquee+0x2b4>
20001f66:	b5c1                	j	20001e26 <eff_marquee+0x1bc>
20001f68:	fd200493          	li	s1,-46
20001f6c:	aaaab437          	lui	s0,0xaaaab
20001f70:	555553b7          	lui	t2,0x55555
20001f74:	00050023          	sb	zero,0(a0)
20001f78:	009500a3          	sb	s1,1(a0)
20001f7c:	00e50123          	sb	a4,2(a0)
20001f80:	050d                	addi	a0,a0,3
20001f82:	aab40413          	addi	s0,s0,-1365 # aaaaaaab <__StackTop+0x8aa28aab>
20001f86:	55538393          	addi	t2,t2,1365 # 55555555 <__StackTop+0x354d3555>
20001f8a:	e8a88ee3          	beq	a7,a0,20001e26 <eff_marquee+0x1bc>
20001f8e:	0785                	addi	a5,a5,1
20001f90:	02878733          	mul	a4,a5,s0
20001f94:	f0e3e9e3          	bltu	t2,a4,20001ea6 <eff_marquee+0x23c>
20001f98:	01090733          	add	a4,s2,a6
20001f9c:	0ff00293          	li	t0,255
20001fa0:	8321                	srli	a4,a4,0x8
20001fa2:	40e2f733          	andn	a4,t0,a4
20001fa6:	20e722b3          	sh1add	t0,a4,a4
20001faa:	20e2c2b3          	sh2add	t0,t0,a4
20001fae:	20e2e2b3          	sh3add	t0,t0,a4
20001fb2:	0286                	slli	t0,t0,0x1
20001fb4:	08028293          	addi	t0,t0,128
20001fb8:	0082d713          	srli	a4,t0,0x8
20001fbc:	9716                	add	a4,a4,t0
20001fbe:	8321                	srli	a4,a4,0x8
20001fc0:	00050023          	sb	zero,0(a0)
20001fc4:	009500a3          	sb	s1,1(a0)
20001fc8:	00e50123          	sb	a4,2(a0)
20001fcc:	050d                	addi	a0,a0,3
20001fce:	fca890e3          	bne	a7,a0,20001f8e <eff_marquee+0x324>
20001fd2:	bd91                	j	20001e26 <eff_marquee+0x1bc>
20001fd4:	fd200493          	li	s1,-46
20001fd8:	aaaab437          	lui	s0,0xaaaab
20001fdc:	555553b7          	lui	t2,0x55555
20001fe0:	00550023          	sb	t0,0(a0)
20001fe4:	009500a3          	sb	s1,1(a0)
20001fe8:	00050123          	sb	zero,2(a0)
20001fec:	050d                	addi	a0,a0,3
20001fee:	aab40413          	addi	s0,s0,-1365 # aaaaaaab <__StackTop+0x8aa28aab>
20001ff2:	55538393          	addi	t2,t2,1365 # 55555555 <__StackTop+0x354d3555>
20001ff6:	e31508e3          	beq	a0,a7,20001e26 <eff_marquee+0x1bc>
20001ffa:	0785                	addi	a5,a5,1
20001ffc:	02878733          	mul	a4,a5,s0
20002000:	eae3e3e3          	bltu	t2,a4,20001ea6 <eff_marquee+0x23c>
20002004:	01cf82b3          	add	t0,t6,t3
20002008:	0ff00713          	li	a4,255
2000200c:	0082d293          	srli	t0,t0,0x8
20002010:	405772b3          	andn	t0,a4,t0
20002014:	2052a733          	sh1add	a4,t0,t0
20002018:	20574733          	sh2add	a4,a4,t0
2000201c:	20576733          	sh3add	a4,a4,t0
20002020:	0706                	slli	a4,a4,0x1
20002022:	08070713          	addi	a4,a4,128
20002026:	00875293          	srli	t0,a4,0x8
2000202a:	92ba                	add	t0,t0,a4
2000202c:	0082d293          	srli	t0,t0,0x8
20002030:	00550023          	sb	t0,0(a0)
20002034:	009500a3          	sb	s1,1(a0)
20002038:	00050123          	sb	zero,2(a0)
2000203c:	050d                	addi	a0,a0,3
2000203e:	fb151ee3          	bne	a0,a7,20001ffa <eff_marquee+0x390>
20002042:	b3d5                	j	20001e26 <eff_marquee+0x1bc>
20002044:	4291                	li	t0,4
20002046:	02569963          	bne	a3,t0,20002078 <eff_marquee+0x40e>
2000204a:	20e72733          	sh1add	a4,a4,a4
2000204e:	070a                	slli	a4,a4,0x2
20002050:	08070713          	addi	a4,a4,128
20002054:	00875393          	srli	t2,a4,0x8
20002058:	93ba                	add	t2,t2,a4
2000205a:	0083d393          	srli	t2,t2,0x8
2000205e:	42b1                	li	t0,12
20002060:	4701                	li	a4,0
20002062:	bb45                	j	20001e12 <eff_marquee+0x1a8>
20002064:	008f5713          	srli	a4,t5,0x8
20002068:	42b1                	li	t0,12
2000206a:	4381                	li	t2,0
2000206c:	b35d                	j	20001e12 <eff_marquee+0x1a8>
2000206e:	008f5393          	srli	t2,t5,0x8
20002072:	4281                	li	t0,0
20002074:	4731                	li	a4,12
20002076:	bb71                	j	20001e12 <eff_marquee+0x1a8>
20002078:	008f5293          	srli	t0,t5,0x8
2000207c:	4701                	li	a4,0
2000207e:	43b1                	li	t2,12
20002080:	bb49                	j	20001e12 <eff_marquee+0x1a8>
20002082:	0085d713          	srli	a4,a1,0x8
20002086:	972e                	add	a4,a4,a1
20002088:	0ff00693          	li	a3,255
2000208c:	8321                	srli	a4,a4,0x8
2000208e:	40e6f733          	andn	a4,a3,a4
20002092:	00871693          	slli	a3,a4,0x8
20002096:	8e99                	sub	a3,a3,a4
20002098:	08068693          	addi	a3,a3,128
2000209c:	0086d713          	srli	a4,a3,0x8
200020a0:	9736                	add	a4,a4,a3
200020a2:	8321                	srli	a4,a4,0x8
200020a4:	20e72733          	sh1add	a4,a4,a4
200020a8:	070a                	slli	a4,a4,0x2
200020aa:	08070713          	addi	a4,a4,128
200020ae:	aaaab8b7          	lui	a7,0xaaaab
200020b2:	00875f13          	srli	t5,a4,0x8
200020b6:	aab88893          	addi	a7,a7,-1365 # aaaaaaab <__StackTop+0x8aa28aab>
200020ba:	9f3a                	add	t5,t5,a4
200020bc:	03178733          	mul	a4,a5,a7
200020c0:	008e5f93          	srli	t6,t3,0x8
200020c4:	55555337          	lui	t1,0x55555
200020c8:	01cf82b3          	add	t0,t6,t3
200020cc:	55530313          	addi	t1,t1,1365 # 55555555 <__StackTop+0x354d3555>
200020d0:	0082d293          	srli	t0,t0,0x8
200020d4:	04850e93          	addi	t4,a0,72
200020d8:	08e36e63          	bltu	t1,a4,20002174 <eff_marquee+0x50a>
200020dc:	00885913          	srli	s2,a6,0x8
200020e0:	010905b3          	add	a1,s2,a6
200020e4:	0ff00713          	li	a4,255
200020e8:	81a1                	srli	a1,a1,0x8
200020ea:	40b775b3          	andn	a1,a4,a1
200020ee:	0ff00713          	li	a4,255
200020f2:	405773b3          	andn	t2,a4,t0
200020f6:	20b5a6b3          	sh1add	a3,a1,a1
200020fa:	2073a733          	sh1add	a4,t2,t2
200020fe:	20b6c6b3          	sh2add	a3,a3,a1
20002102:	20774733          	sh2add	a4,a4,t2
20002106:	20b6e6b3          	sh3add	a3,a3,a1
2000210a:	20776733          	sh3add	a4,a4,t2
2000210e:	0686                	slli	a3,a3,0x1
20002110:	0706                	slli	a4,a4,0x1
20002112:	08068693          	addi	a3,a3,128
20002116:	08070713          	addi	a4,a4,128
2000211a:	00875593          	srli	a1,a4,0x8
2000211e:	0086d393          	srli	t2,a3,0x8
20002122:	93b6                	add	t2,t2,a3
20002124:	00e586b3          	add	a3,a1,a4
20002128:	4591                	li	a1,4
2000212a:	0083d713          	srli	a4,t2,0x8
2000212e:	82a1                	srli	a3,a3,0x8
20002130:	1ec5ee63          	bltu	a1,a2,2000232c <eff_marquee+0x6c2>
20002134:	2000b5b7          	lui	a1,0x2000b
20002138:	60458593          	addi	a1,a1,1540 # 2000b604 <gfx_sin_q+0x94>
2000213c:	20b645b3          	sh2add	a1,a2,a1
20002140:	418c                	lw	a1,0(a1)
20002142:	8582                	jr	a1
20002144:	0d200693          	li	a3,210
20002148:	00d50023          	sb	a3,0(a0)
2000214c:	00e500a3          	sb	a4,1(a0)
20002150:	00050123          	sb	zero,2(a0)
20002154:	050d                	addi	a0,a0,3
20002156:	0785                	addi	a5,a5,1
20002158:	ccae8ae3          	beq	t4,a0,20001e2c <eff_marquee+0x1c2>
2000215c:	aaaab8b7          	lui	a7,0xaaaab
20002160:	aab88893          	addi	a7,a7,-1365 # aaaaaaab <__StackTop+0x8aa28aab>
20002164:	03178733          	mul	a4,a5,a7
20002168:	55555337          	lui	t1,0x55555
2000216c:	55530313          	addi	t1,t1,1365 # 55555555 <__StackTop+0x354d3555>
20002170:	f6e376e3          	bgeu	t1,a4,200020dc <eff_marquee+0x472>
20002174:	008f5713          	srli	a4,t5,0x8
20002178:	46b1                	li	a3,12
2000217a:	b7f9                	j	20002148 <eff_marquee+0x4de>
2000217c:	fd200313          	li	t1,-46
20002180:	aaaab8b7          	lui	a7,0xaaaab
20002184:	555555b7          	lui	a1,0x55555
20002188:	00e50023          	sb	a4,0(a0)
2000218c:	000500a3          	sb	zero,1(a0)
20002190:	00650123          	sb	t1,2(a0)
20002194:	050d                	addi	a0,a0,3
20002196:	aab88893          	addi	a7,a7,-1365 # aaaaaaab <__StackTop+0x8aa28aab>
2000219a:	55558593          	addi	a1,a1,1365 # 55555555 <__StackTop+0x354d3555>
2000219e:	c9d507e3          	beq	a0,t4,20001e2c <eff_marquee+0x1c2>
200021a2:	0785                	addi	a5,a5,1
200021a4:	03178733          	mul	a4,a5,a7
200021a8:	fce5e6e3          	bltu	a1,a4,20002174 <eff_marquee+0x50a>
200021ac:	010906b3          	add	a3,s2,a6
200021b0:	0ff00713          	li	a4,255
200021b4:	82a1                	srli	a3,a3,0x8
200021b6:	40d776b3          	andn	a3,a4,a3
200021ba:	20d6a733          	sh1add	a4,a3,a3
200021be:	20d74733          	sh2add	a4,a4,a3
200021c2:	20d76733          	sh3add	a4,a4,a3
200021c6:	0706                	slli	a4,a4,0x1
200021c8:	08070713          	addi	a4,a4,128
200021cc:	00875693          	srli	a3,a4,0x8
200021d0:	9736                	add	a4,a4,a3
200021d2:	8321                	srli	a4,a4,0x8
200021d4:	00e50023          	sb	a4,0(a0)
200021d8:	000500a3          	sb	zero,1(a0)
200021dc:	00650123          	sb	t1,2(a0)
200021e0:	050d                	addi	a0,a0,3
200021e2:	fdd510e3          	bne	a0,t4,200021a2 <eff_marquee+0x538>
200021e6:	b199                	j	20001e2c <eff_marquee+0x1c2>
200021e8:	fd200313          	li	t1,-46
200021ec:	aaaab8b7          	lui	a7,0xaaaab
200021f0:	555555b7          	lui	a1,0x55555
200021f4:	00050023          	sb	zero,0(a0)
200021f8:	00d500a3          	sb	a3,1(a0)
200021fc:	00650123          	sb	t1,2(a0)
20002200:	050d                	addi	a0,a0,3
20002202:	aab88893          	addi	a7,a7,-1365 # aaaaaaab <__StackTop+0x8aa28aab>
20002206:	55558593          	addi	a1,a1,1365 # 55555555 <__StackTop+0x354d3555>
2000220a:	c3d501e3          	beq	a0,t4,20001e2c <eff_marquee+0x1c2>
2000220e:	0785                	addi	a5,a5,1
20002210:	03178733          	mul	a4,a5,a7
20002214:	f6e5e0e3          	bltu	a1,a4,20002174 <eff_marquee+0x50a>
20002218:	01cf86b3          	add	a3,t6,t3
2000221c:	0ff00713          	li	a4,255
20002220:	82a1                	srli	a3,a3,0x8
20002222:	40d776b3          	andn	a3,a4,a3
20002226:	20d6a733          	sh1add	a4,a3,a3
2000222a:	20d74733          	sh2add	a4,a4,a3
2000222e:	20d76733          	sh3add	a4,a4,a3
20002232:	0706                	slli	a4,a4,0x1
20002234:	08070713          	addi	a4,a4,128
20002238:	00875693          	srli	a3,a4,0x8
2000223c:	96ba                	add	a3,a3,a4
2000223e:	82a1                	srli	a3,a3,0x8
20002240:	00050023          	sb	zero,0(a0)
20002244:	00d500a3          	sb	a3,1(a0)
20002248:	00650123          	sb	t1,2(a0)
2000224c:	050d                	addi	a0,a0,3
2000224e:	fdd510e3          	bne	a0,t4,2000220e <eff_marquee+0x5a4>
20002252:	bee9                	j	20001e2c <eff_marquee+0x1c2>
20002254:	fd200313          	li	t1,-46
20002258:	aaaab8b7          	lui	a7,0xaaaab
2000225c:	555555b7          	lui	a1,0x55555
20002260:	00050023          	sb	zero,0(a0)
20002264:	006500a3          	sb	t1,1(a0)
20002268:	00e50123          	sb	a4,2(a0)
2000226c:	050d                	addi	a0,a0,3
2000226e:	aab88893          	addi	a7,a7,-1365 # aaaaaaab <__StackTop+0x8aa28aab>
20002272:	55558593          	addi	a1,a1,1365 # 55555555 <__StackTop+0x354d3555>
20002276:	bbd50be3          	beq	a0,t4,20001e2c <eff_marquee+0x1c2>
2000227a:	0785                	addi	a5,a5,1
2000227c:	03178733          	mul	a4,a5,a7
20002280:	eee5eae3          	bltu	a1,a4,20002174 <eff_marquee+0x50a>
20002284:	010906b3          	add	a3,s2,a6
20002288:	0ff00713          	li	a4,255
2000228c:	82a1                	srli	a3,a3,0x8
2000228e:	40d776b3          	andn	a3,a4,a3
20002292:	20d6a733          	sh1add	a4,a3,a3
20002296:	20d74733          	sh2add	a4,a4,a3
2000229a:	20d76733          	sh3add	a4,a4,a3
2000229e:	0706                	slli	a4,a4,0x1
200022a0:	08070713          	addi	a4,a4,128
200022a4:	00875693          	srli	a3,a4,0x8
200022a8:	9736                	add	a4,a4,a3
200022aa:	8321                	srli	a4,a4,0x8
200022ac:	00050023          	sb	zero,0(a0)
200022b0:	006500a3          	sb	t1,1(a0)
200022b4:	00e50123          	sb	a4,2(a0)
200022b8:	050d                	addi	a0,a0,3
200022ba:	fdd510e3          	bne	a0,t4,2000227a <eff_marquee+0x610>
200022be:	b6bd                	j	20001e2c <eff_marquee+0x1c2>
200022c0:	fd200313          	li	t1,-46
200022c4:	aaaab8b7          	lui	a7,0xaaaab
200022c8:	555555b7          	lui	a1,0x55555
200022cc:	00d50023          	sb	a3,0(a0)
200022d0:	006500a3          	sb	t1,1(a0)
200022d4:	00050123          	sb	zero,2(a0)
200022d8:	050d                	addi	a0,a0,3
200022da:	aab88893          	addi	a7,a7,-1365 # aaaaaaab <__StackTop+0x8aa28aab>
200022de:	55558593          	addi	a1,a1,1365 # 55555555 <__StackTop+0x354d3555>
200022e2:	b4ae85e3          	beq	t4,a0,20001e2c <eff_marquee+0x1c2>
200022e6:	0785                	addi	a5,a5,1
200022e8:	03178733          	mul	a4,a5,a7
200022ec:	e8e5e4e3          	bltu	a1,a4,20002174 <eff_marquee+0x50a>
200022f0:	01cf86b3          	add	a3,t6,t3
200022f4:	0ff00713          	li	a4,255
200022f8:	82a1                	srli	a3,a3,0x8
200022fa:	40d776b3          	andn	a3,a4,a3
200022fe:	20d6a733          	sh1add	a4,a3,a3
20002302:	20d74733          	sh2add	a4,a4,a3
20002306:	20d76733          	sh3add	a4,a4,a3
2000230a:	0706                	slli	a4,a4,0x1
2000230c:	08070713          	addi	a4,a4,128
20002310:	00875693          	srli	a3,a4,0x8
20002314:	96ba                	add	a3,a3,a4
20002316:	82a1                	srli	a3,a3,0x8
20002318:	00d50023          	sb	a3,0(a0)
2000231c:	006500a3          	sb	t1,1(a0)
20002320:	00050123          	sb	zero,2(a0)
20002324:	050d                	addi	a0,a0,3
20002326:	fcae90e3          	bne	t4,a0,200022e6 <eff_marquee+0x67c>
2000232a:	b609                	j	20001e2c <eff_marquee+0x1c2>
2000232c:	01cf85b3          	add	a1,t6,t3
20002330:	0ff00713          	li	a4,255
20002334:	81a1                	srli	a1,a1,0x8
20002336:	40b775b3          	andn	a1,a4,a1
2000233a:	20b5a733          	sh1add	a4,a1,a1
2000233e:	20b74733          	sh2add	a4,a4,a1
20002342:	20b76733          	sh3add	a4,a4,a1
20002346:	0706                	slli	a4,a4,0x1
20002348:	08070713          	addi	a4,a4,128
2000234c:	fd200593          	li	a1,-46
20002350:	00875393          	srli	t2,a4,0x8
20002354:	00b50023          	sb	a1,0(a0)
20002358:	000500a3          	sb	zero,1(a0)
2000235c:	00d50123          	sb	a3,2(a0)
20002360:	050d                	addi	a0,a0,3
20002362:	93ba                	add	t2,t2,a4
20002364:	add504e3          	beq	a0,t4,20001e2c <eff_marquee+0x1c2>
20002368:	0785                	addi	a5,a5,1
2000236a:	03178733          	mul	a4,a5,a7
2000236e:	e0e363e3          	bltu	t1,a4,20002174 <eff_marquee+0x50a>
20002372:	0083d693          	srli	a3,t2,0x8
20002376:	00b50023          	sb	a1,0(a0)
2000237a:	000500a3          	sb	zero,1(a0)
2000237e:	00d50123          	sb	a3,2(a0)
20002382:	050d                	addi	a0,a0,3
20002384:	ffd512e3          	bne	a0,t4,20002368 <eff_marquee+0x6fe>
20002388:	b455                	j	20001e2c <eff_marquee+0x1c2>
2000238a:	01cf83b3          	add	t2,t6,t3
2000238e:	0ff00713          	li	a4,255
20002392:	0083d393          	srli	t2,t2,0x8
20002396:	407773b3          	andn	t2,a4,t2
2000239a:	2073a733          	sh1add	a4,t2,t2
2000239e:	20774733          	sh2add	a4,a4,t2
200023a2:	20776733          	sh3add	a4,a4,t2
200023a6:	0706                	slli	a4,a4,0x1
200023a8:	08070713          	addi	a4,a4,128
200023ac:	fd200393          	li	t2,-46
200023b0:	00875913          	srli	s2,a4,0x8
200023b4:	00750023          	sb	t2,0(a0)
200023b8:	000500a3          	sb	zero,1(a0)
200023bc:	00550123          	sb	t0,2(a0)
200023c0:	050d                	addi	a0,a0,3
200023c2:	993a                	add	s2,s2,a4
200023c4:	a6a881e3          	beq	a7,a0,20001e26 <eff_marquee+0x1bc>
200023c8:	0785                	addi	a5,a5,1
200023ca:	02878733          	mul	a4,a5,s0
200023ce:	ace4ece3          	bltu	s1,a4,20001ea6 <eff_marquee+0x23c>
200023d2:	00895293          	srli	t0,s2,0x8
200023d6:	00750023          	sb	t2,0(a0)
200023da:	000500a3          	sb	zero,1(a0)
200023de:	00550123          	sb	t0,2(a0)
200023e2:	050d                	addi	a0,a0,3
200023e4:	fea892e3          	bne	a7,a0,200023c8 <eff_marquee+0x75e>
200023e8:	bc3d                	j	20001e26 <eff_marquee+0x1bc>

200023ea <eff_wipe>:
200023ea:	51eb8737          	lui	a4,0x51eb8
200023ee:	51f70713          	addi	a4,a4,1311 # 51eb851f <__StackTop+0x31e3651f>
200023f2:	02e5b733          	mulhu	a4,a1,a4
200023f6:	2fa0c6b7          	lui	a3,0x2fa0c
200023fa:	e8368693          	addi	a3,a3,-381 # 2fa0be83 <__StackTop+0xf989e83>
200023fe:	fc0fc7b7          	lui	a5,0xfc0fc
20002402:	0fd78793          	addi	a5,a5,253 # fc0fc0fd <__StackTop+0xdc07a0fd>
20002406:	1141                	addi	sp,sp,-16
20002408:	c622                	sw	s0,12(sp)
2000240a:	02a00893          	li	a7,42
2000240e:	8315                	srli	a4,a4,0x5
20002410:	0ff77f93          	zext.b	t6,a4
20002414:	02dfb833          	mulhu	a6,t6,a3
20002418:	0ff77713          	zext.b	a4,a4
2000241c:	02f5b633          	mulhu	a2,a1,a5
20002420:	05af8793          	addi	a5,t6,90
20002424:	0ff7f793          	zext.b	a5,a5
20002428:	00385813          	srli	a6,a6,0x3
2000242c:	02d7b5b3          	mulhu	a1,a5,a3
20002430:	210846b3          	sh2add	a3,a6,a6
20002434:	2106c6b3          	sh2add	a3,a3,a6
20002438:	2106a6b3          	sh1add	a3,a3,a6
2000243c:	8f15                	sub	a4,a4,a3
2000243e:	20e72733          	sh1add	a4,a4,a4
20002442:	f0100693          	li	a3,-255
20002446:	0706                	slli	a4,a4,0x1
20002448:	40e6eeb3          	orn	t4,a3,a4
2000244c:	0ffefe93          	zext.b	t4,t4
20002450:	818d                	srli	a1,a1,0x3
20002452:	20b5c6b3          	sh2add	a3,a1,a1
20002456:	20b6c6b3          	sh2add	a3,a3,a1
2000245a:	20b6a6b3          	sh1add	a3,a3,a1
2000245e:	8f95                	sub	a5,a5,a3
20002460:	20f7a7b3          	sh1add	a5,a5,a5
20002464:	0786                	slli	a5,a5,0x1
20002466:	0ff7f793          	zext.b	a5,a5
2000246a:	0ff7c693          	xori	a3,a5,255
2000246e:	00869e13          	slli	t3,a3,0x8
20002472:	00879293          	slli	t0,a5,0x8
20002476:	008e9313          	slli	t1,t4,0x8
2000247a:	821d                	srli	a2,a2,0x7
2000247c:	40de0e33          	sub	t3,t3,a3
20002480:	40f282b3          	sub	t0,t0,a5
20002484:	41d30333          	sub	t1,t1,t4
20002488:	8a1d                	andi	a2,a2,7
2000248a:	080e0e13          	addi	t3,t3,128
2000248e:	08028293          	addi	t0,t0,128
20002492:	08030313          	addi	t1,t1,128
20002496:	2df8f063          	bgeu	a7,t6,20002756 <eff_wipe+0x36c>
2000249a:	0ff77713          	zext.b	a4,a4
2000249e:	00871793          	slli	a5,a4,0x8
200024a2:	8f99                	sub	a5,a5,a4
200024a4:	08078793          	addi	a5,a5,128
200024a8:	0087d713          	srli	a4,a5,0x8
200024ac:	973e                	add	a4,a4,a5
200024ae:	8321                	srli	a4,a4,0x8
200024b0:	0ff00793          	li	a5,255
200024b4:	40e7f733          	andn	a4,a5,a4
200024b8:	20e727b3          	sh1add	a5,a4,a4
200024bc:	0796                	slli	a5,a5,0x5
200024be:	8f99                	sub	a5,a5,a4
200024c0:	0786                	slli	a5,a5,0x1
200024c2:	08078793          	addi	a5,a5,128
200024c6:	0082d393          	srli	t2,t0,0x8
200024ca:	0087df13          	srli	t5,a5,0x8
200024ce:	005388b3          	add	a7,t2,t0
200024d2:	2000b737          	lui	a4,0x2000b
200024d6:	0088d893          	srli	a7,a7,0x8
200024da:	54070713          	addi	a4,a4,1344 # 2000b540 <gm_row>
200024de:	9f3e                	add	t5,t5,a5
200024e0:	0ff00793          	li	a5,255
200024e4:	c426                	sw	s1,8(sp)
200024e6:	c24a                	sw	s2,4(sp)
200024e8:	4117f8b3          	andn	a7,a5,a7
200024ec:	01870e93          	addi	t4,a4,24
200024f0:	00074783          	lbu	a5,0(a4)
200024f4:	0ef64263          	blt	a2,a5,200025d8 <eff_wipe+0x1ee>
200024f8:	008e5413          	srli	s0,t3,0x8
200024fc:	01c404b3          	add	s1,s0,t3
20002500:	0ff00793          	li	a5,255
20002504:	80a1                	srli	s1,s1,0x8
20002506:	4097f4b3          	andn	s1,a5,s1
2000250a:	2094a6b3          	sh1add	a3,s1,s1
2000250e:	2118a7b3          	sh1add	a5,a7,a7
20002512:	0696                	slli	a3,a3,0x5
20002514:	0796                	slli	a5,a5,0x5
20002516:	8e85                	sub	a3,a3,s1
20002518:	411787b3          	sub	a5,a5,a7
2000251c:	0686                	slli	a3,a3,0x1
2000251e:	0786                	slli	a5,a5,0x1
20002520:	08078793          	addi	a5,a5,128
20002524:	08068693          	addi	a3,a3,128
20002528:	0087d913          	srli	s2,a5,0x8
2000252c:	0086d493          	srli	s1,a3,0x8
20002530:	96a6                	add	a3,a3,s1
20002532:	00f904b3          	add	s1,s2,a5
20002536:	4911                	li	s2,4
20002538:	0086d793          	srli	a5,a3,0x8
2000253c:	0084d693          	srli	a3,s1,0x8
20002540:	48b96d63          	bltu	s2,a1,200029da <eff_wipe+0x5f0>
20002544:	2000b4b7          	lui	s1,0x2000b
20002548:	61848493          	addi	s1,s1,1560 # 2000b618 <gfx_sin_q+0xa8>
2000254c:	2095c4b3          	sh2add	s1,a1,s1
20002550:	4084                	lw	s1,0(s1)
20002552:	8482                	jr	s1
20002554:	86ae                	mv	a3,a1
20002556:	0be00413          	li	s0,190
2000255a:	00850023          	sb	s0,0(a0)
2000255e:	00f500a3          	sb	a5,1(a0)
20002562:	00d50123          	sb	a3,2(a0)
20002566:	0705                	addi	a4,a4,1
20002568:	050d                	addi	a0,a0,3
2000256a:	f8ee93e3          	bne	t4,a4,200024f0 <eff_wipe+0x106>
2000256e:	44a2                	lw	s1,8(sp)
20002570:	4912                	lw	s2,4(sp)
20002572:	4432                	lw	s0,12(sp)
20002574:	0141                	addi	sp,sp,16
20002576:	8082                	ret
20002578:	fbe00493          	li	s1,-66
2000257c:	00f50023          	sb	a5,0(a0)
20002580:	000500a3          	sb	zero,1(a0)
20002584:	00950123          	sb	s1,2(a0)
20002588:	0705                	addi	a4,a4,1
2000258a:	feee82e3          	beq	t4,a4,2000256e <eff_wipe+0x184>
2000258e:	00074783          	lbu	a5,0(a4)
20002592:	050d                	addi	a0,a0,3
20002594:	04f64263          	blt	a2,a5,200025d8 <eff_wipe+0x1ee>
20002598:	01c407b3          	add	a5,s0,t3
2000259c:	0ff00693          	li	a3,255
200025a0:	83a1                	srli	a5,a5,0x8
200025a2:	40f6f7b3          	andn	a5,a3,a5
200025a6:	20f7a6b3          	sh1add	a3,a5,a5
200025aa:	0696                	slli	a3,a3,0x5
200025ac:	8e9d                	sub	a3,a3,a5
200025ae:	0686                	slli	a3,a3,0x1
200025b0:	08068693          	addi	a3,a3,128
200025b4:	0086d793          	srli	a5,a3,0x8
200025b8:	97b6                	add	a5,a5,a3
200025ba:	83a1                	srli	a5,a5,0x8
200025bc:	00f50023          	sb	a5,0(a0)
200025c0:	000500a3          	sb	zero,1(a0)
200025c4:	00950123          	sb	s1,2(a0)
200025c8:	0705                	addi	a4,a4,1
200025ca:	faee82e3          	beq	t4,a4,2000256e <eff_wipe+0x184>
200025ce:	00074783          	lbu	a5,0(a4)
200025d2:	050d                	addi	a0,a0,3
200025d4:	fcf652e3          	bge	a2,a5,20002598 <eff_wipe+0x1ae>
200025d8:	478d                	li	a5,3
200025da:	008f5413          	srli	s0,t5,0x8
200025de:	14f80c63          	beq	a6,a5,20002736 <eff_wipe+0x34c>
200025e2:	00835693          	srli	a3,t1,0x8
200025e6:	969a                	add	a3,a3,t1
200025e8:	0ff00793          	li	a5,255
200025ec:	82a1                	srli	a3,a3,0x8
200025ee:	40d7f6b3          	andn	a3,a5,a3
200025f2:	20d6a7b3          	sh1add	a5,a3,a3
200025f6:	0796                	slli	a5,a5,0x5
200025f8:	8f95                	sub	a5,a5,a3
200025fa:	0786                	slli	a5,a5,0x1
200025fc:	08078793          	addi	a5,a5,128
20002600:	0087d693          	srli	a3,a5,0x8
20002604:	96be                	add	a3,a3,a5
20002606:	0ab00793          	li	a5,171
2000260a:	82a1                	srli	a3,a3,0x8
2000260c:	11f7ed63          	bltu	a5,t6,20002726 <eff_wipe+0x33c>
20002610:	4785                	li	a5,1
20002612:	12f80863          	beq	a6,a5,20002742 <eff_wipe+0x358>
20002616:	0be00793          	li	a5,190
2000261a:	4401                	li	s0,0
2000261c:	bf3d                	j	2000255a <eff_wipe+0x170>
2000261e:	fbe00413          	li	s0,-66
20002622:	00050023          	sb	zero,0(a0)
20002626:	00d500a3          	sb	a3,1(a0)
2000262a:	00850123          	sb	s0,2(a0)
2000262e:	0705                	addi	a4,a4,1
20002630:	f2ee8fe3          	beq	t4,a4,2000256e <eff_wipe+0x184>
20002634:	00074783          	lbu	a5,0(a4)
20002638:	050d                	addi	a0,a0,3
2000263a:	f8f64fe3          	blt	a2,a5,200025d8 <eff_wipe+0x1ee>
2000263e:	005386b3          	add	a3,t2,t0
20002642:	0ff00793          	li	a5,255
20002646:	82a1                	srli	a3,a3,0x8
20002648:	40d7f6b3          	andn	a3,a5,a3
2000264c:	20d6a7b3          	sh1add	a5,a3,a3
20002650:	0796                	slli	a5,a5,0x5
20002652:	8f95                	sub	a5,a5,a3
20002654:	0786                	slli	a5,a5,0x1
20002656:	08078793          	addi	a5,a5,128
2000265a:	0087d693          	srli	a3,a5,0x8
2000265e:	96be                	add	a3,a3,a5
20002660:	82a1                	srli	a3,a3,0x8
20002662:	00050023          	sb	zero,0(a0)
20002666:	00d500a3          	sb	a3,1(a0)
2000266a:	00850123          	sb	s0,2(a0)
2000266e:	0705                	addi	a4,a4,1
20002670:	fcee92e3          	bne	t4,a4,20002634 <eff_wipe+0x24a>
20002674:	bded                	j	2000256e <eff_wipe+0x184>
20002676:	fbe00493          	li	s1,-66
2000267a:	00050023          	sb	zero,0(a0)
2000267e:	009500a3          	sb	s1,1(a0)
20002682:	00f50123          	sb	a5,2(a0)
20002686:	0705                	addi	a4,a4,1
20002688:	eeee83e3          	beq	t4,a4,2000256e <eff_wipe+0x184>
2000268c:	00074783          	lbu	a5,0(a4)
20002690:	050d                	addi	a0,a0,3
20002692:	f4f643e3          	blt	a2,a5,200025d8 <eff_wipe+0x1ee>
20002696:	01c407b3          	add	a5,s0,t3
2000269a:	0ff00693          	li	a3,255
2000269e:	83a1                	srli	a5,a5,0x8
200026a0:	40f6f7b3          	andn	a5,a3,a5
200026a4:	20f7a6b3          	sh1add	a3,a5,a5
200026a8:	0696                	slli	a3,a3,0x5
200026aa:	8e9d                	sub	a3,a3,a5
200026ac:	0686                	slli	a3,a3,0x1
200026ae:	08068693          	addi	a3,a3,128
200026b2:	0086d793          	srli	a5,a3,0x8
200026b6:	97b6                	add	a5,a5,a3
200026b8:	83a1                	srli	a5,a5,0x8
200026ba:	00050023          	sb	zero,0(a0)
200026be:	009500a3          	sb	s1,1(a0)
200026c2:	00f50123          	sb	a5,2(a0)
200026c6:	0705                	addi	a4,a4,1
200026c8:	fcee92e3          	bne	t4,a4,2000268c <eff_wipe+0x2a2>
200026cc:	b54d                	j	2000256e <eff_wipe+0x184>
200026ce:	fbe00413          	li	s0,-66
200026d2:	00d50023          	sb	a3,0(a0)
200026d6:	008500a3          	sb	s0,1(a0)
200026da:	00050123          	sb	zero,2(a0)
200026de:	0705                	addi	a4,a4,1
200026e0:	e8ee87e3          	beq	t4,a4,2000256e <eff_wipe+0x184>
200026e4:	00074783          	lbu	a5,0(a4)
200026e8:	050d                	addi	a0,a0,3
200026ea:	eef647e3          	blt	a2,a5,200025d8 <eff_wipe+0x1ee>
200026ee:	005386b3          	add	a3,t2,t0
200026f2:	0ff00793          	li	a5,255
200026f6:	82a1                	srli	a3,a3,0x8
200026f8:	40d7f6b3          	andn	a3,a5,a3
200026fc:	20d6a7b3          	sh1add	a5,a3,a3
20002700:	0796                	slli	a5,a5,0x5
20002702:	8f95                	sub	a5,a5,a3
20002704:	0786                	slli	a5,a5,0x1
20002706:	08078793          	addi	a5,a5,128
2000270a:	0087d693          	srli	a3,a5,0x8
2000270e:	96be                	add	a3,a3,a5
20002710:	82a1                	srli	a3,a3,0x8
20002712:	00d50023          	sb	a3,0(a0)
20002716:	008500a3          	sb	s0,1(a0)
2000271a:	00050123          	sb	zero,2(a0)
2000271e:	0705                	addi	a4,a4,1
20002720:	fcee92e3          	bne	t4,a4,200026e4 <eff_wipe+0x2fa>
20002724:	b5a9                	j	2000256e <eff_wipe+0x184>
20002726:	4791                	li	a5,4
20002728:	02f81163          	bne	a6,a5,2000274a <eff_wipe+0x360>
2000272c:	8436                	mv	s0,a3
2000272e:	4781                	li	a5,0
20002730:	0be00693          	li	a3,190
20002734:	b51d                	j	2000255a <eff_wipe+0x170>
20002736:	008f5793          	srli	a5,t5,0x8
2000273a:	0be00693          	li	a3,190
2000273e:	4401                	li	s0,0
20002740:	bd29                	j	2000255a <eff_wipe+0x170>
20002742:	4681                	li	a3,0
20002744:	0be00793          	li	a5,190
20002748:	bd09                	j	2000255a <eff_wipe+0x170>
2000274a:	008f5693          	srli	a3,t5,0x8
2000274e:	4781                	li	a5,0
20002750:	0be00413          	li	s0,190
20002754:	b519                	j	2000255a <eff_wipe+0x170>
20002756:	00835793          	srli	a5,t1,0x8
2000275a:	979a                	add	a5,a5,t1
2000275c:	0ff00713          	li	a4,255
20002760:	83a1                	srli	a5,a5,0x8
20002762:	40f777b3          	andn	a5,a4,a5
20002766:	20f7a733          	sh1add	a4,a5,a5
2000276a:	0716                	slli	a4,a4,0x5
2000276c:	8f1d                	sub	a4,a4,a5
2000276e:	0706                	slli	a4,a4,0x1
20002770:	08070713          	addi	a4,a4,128
20002774:	0082df93          	srli	t6,t0,0x8
20002778:	00875313          	srli	t1,a4,0x8
2000277c:	005f8eb3          	add	t4,t6,t0
20002780:	008ede93          	srli	t4,t4,0x8
20002784:	2000b7b7          	lui	a5,0x2000b
20002788:	933a                	add	t1,t1,a4
2000278a:	0ff00713          	li	a4,255
2000278e:	41d77eb3          	andn	t4,a4,t4
20002792:	54078793          	addi	a5,a5,1344 # 2000b540 <gm_row>
20002796:	21deaf33          	sh1add	t5,t4,t4
2000279a:	01878893          	addi	a7,a5,24
2000279e:	0007c703          	lbu	a4,0(a5)
200027a2:	04e64e63          	blt	a2,a4,200027fe <eff_wipe+0x414>
200027a6:	008e5413          	srli	s0,t3,0x8
200027aa:	01c406b3          	add	a3,s0,t3
200027ae:	0ff00713          	li	a4,255
200027b2:	82a1                	srli	a3,a3,0x8
200027b4:	40d776b3          	andn	a3,a4,a3
200027b8:	20d6a733          	sh1add	a4,a3,a3
200027bc:	0716                	slli	a4,a4,0x5
200027be:	005f1813          	slli	a6,t5,0x5
200027c2:	8f15                	sub	a4,a4,a3
200027c4:	41d80833          	sub	a6,a6,t4
200027c8:	0706                	slli	a4,a4,0x1
200027ca:	0806                	slli	a6,a6,0x1
200027cc:	08080813          	addi	a6,a6,128
200027d0:	08070713          	addi	a4,a4,128
200027d4:	00875693          	srli	a3,a4,0x8
200027d8:	00885393          	srli	t2,a6,0x8
200027dc:	9736                	add	a4,a4,a3
200027de:	010386b3          	add	a3,t2,a6
200027e2:	4811                	li	a6,4
200027e4:	8321                	srli	a4,a4,0x8
200027e6:	82a1                	srli	a3,a3,0x8
200027e8:	18b86a63          	bltu	a6,a1,2000297c <eff_wipe+0x592>
200027ec:	2000b837          	lui	a6,0x2000b
200027f0:	62c80813          	addi	a6,a6,1580 # 2000b62c <gfx_sin_q+0xbc>
200027f4:	2105c833          	sh2add	a6,a1,a6
200027f8:	00082803          	lw	a6,0(a6)
200027fc:	8802                	jr	a6
200027fe:	00835713          	srli	a4,t1,0x8
20002802:	fbe00693          	li	a3,-66
20002806:	00e500a3          	sb	a4,1(a0)
2000280a:	00050123          	sb	zero,2(a0)
2000280e:	00d50023          	sb	a3,0(a0)
20002812:	0785                	addi	a5,a5,1
20002814:	050d                	addi	a0,a0,3
20002816:	f8f894e3          	bne	a7,a5,2000279e <eff_wipe+0x3b4>
2000281a:	bba1                	j	20002572 <eff_wipe+0x188>
2000281c:	fbe00813          	li	a6,-66
20002820:	00e50023          	sb	a4,0(a0)
20002824:	000500a3          	sb	zero,1(a0)
20002828:	01050123          	sb	a6,2(a0)
2000282c:	0785                	addi	a5,a5,1
2000282e:	d51782e3          	beq	a5,a7,20002572 <eff_wipe+0x188>
20002832:	0007c703          	lbu	a4,0(a5)
20002836:	050d                	addi	a0,a0,3
20002838:	fce643e3          	blt	a2,a4,200027fe <eff_wipe+0x414>
2000283c:	01c40733          	add	a4,s0,t3
20002840:	0ff00693          	li	a3,255
20002844:	8321                	srli	a4,a4,0x8
20002846:	40e6f733          	andn	a4,a3,a4
2000284a:	20e726b3          	sh1add	a3,a4,a4
2000284e:	0696                	slli	a3,a3,0x5
20002850:	8e99                	sub	a3,a3,a4
20002852:	0686                	slli	a3,a3,0x1
20002854:	08068693          	addi	a3,a3,128
20002858:	0086d713          	srli	a4,a3,0x8
2000285c:	9736                	add	a4,a4,a3
2000285e:	8321                	srli	a4,a4,0x8
20002860:	00e50023          	sb	a4,0(a0)
20002864:	000500a3          	sb	zero,1(a0)
20002868:	01050123          	sb	a6,2(a0)
2000286c:	0785                	addi	a5,a5,1
2000286e:	fd1792e3          	bne	a5,a7,20002832 <eff_wipe+0x448>
20002872:	b301                	j	20002572 <eff_wipe+0x188>
20002874:	fbe00813          	li	a6,-66
20002878:	00050023          	sb	zero,0(a0)
2000287c:	00d500a3          	sb	a3,1(a0)
20002880:	01050123          	sb	a6,2(a0)
20002884:	0785                	addi	a5,a5,1
20002886:	cf1786e3          	beq	a5,a7,20002572 <eff_wipe+0x188>
2000288a:	0007c703          	lbu	a4,0(a5)
2000288e:	050d                	addi	a0,a0,3
20002890:	f6e647e3          	blt	a2,a4,200027fe <eff_wipe+0x414>
20002894:	005f86b3          	add	a3,t6,t0
20002898:	0ff00713          	li	a4,255
2000289c:	82a1                	srli	a3,a3,0x8
2000289e:	40d776b3          	andn	a3,a4,a3
200028a2:	20d6a733          	sh1add	a4,a3,a3
200028a6:	0716                	slli	a4,a4,0x5
200028a8:	8f15                	sub	a4,a4,a3
200028aa:	0706                	slli	a4,a4,0x1
200028ac:	08070713          	addi	a4,a4,128
200028b0:	00875693          	srli	a3,a4,0x8
200028b4:	96ba                	add	a3,a3,a4
200028b6:	82a1                	srli	a3,a3,0x8
200028b8:	00050023          	sb	zero,0(a0)
200028bc:	00d500a3          	sb	a3,1(a0)
200028c0:	01050123          	sb	a6,2(a0)
200028c4:	0785                	addi	a5,a5,1
200028c6:	fd1792e3          	bne	a5,a7,2000288a <eff_wipe+0x4a0>
200028ca:	b165                	j	20002572 <eff_wipe+0x188>
200028cc:	fbe00813          	li	a6,-66
200028d0:	00050023          	sb	zero,0(a0)
200028d4:	010500a3          	sb	a6,1(a0)
200028d8:	00e50123          	sb	a4,2(a0)
200028dc:	0785                	addi	a5,a5,1
200028de:	c8f88ae3          	beq	a7,a5,20002572 <eff_wipe+0x188>
200028e2:	0007c703          	lbu	a4,0(a5)
200028e6:	050d                	addi	a0,a0,3
200028e8:	f0e64be3          	blt	a2,a4,200027fe <eff_wipe+0x414>
200028ec:	01c40733          	add	a4,s0,t3
200028f0:	0ff00693          	li	a3,255
200028f4:	8321                	srli	a4,a4,0x8
200028f6:	40e6f733          	andn	a4,a3,a4
200028fa:	20e726b3          	sh1add	a3,a4,a4
200028fe:	0696                	slli	a3,a3,0x5
20002900:	8e99                	sub	a3,a3,a4
20002902:	0686                	slli	a3,a3,0x1
20002904:	08068693          	addi	a3,a3,128
20002908:	0086d713          	srli	a4,a3,0x8
2000290c:	9736                	add	a4,a4,a3
2000290e:	8321                	srli	a4,a4,0x8
20002910:	00050023          	sb	zero,0(a0)
20002914:	010500a3          	sb	a6,1(a0)
20002918:	00e50123          	sb	a4,2(a0)
2000291c:	0785                	addi	a5,a5,1
2000291e:	fcf892e3          	bne	a7,a5,200028e2 <eff_wipe+0x4f8>
20002922:	b981                	j	20002572 <eff_wipe+0x188>
20002924:	fbe00813          	li	a6,-66
20002928:	00d50023          	sb	a3,0(a0)
2000292c:	010500a3          	sb	a6,1(a0)
20002930:	00050123          	sb	zero,2(a0)
20002934:	0785                	addi	a5,a5,1
20002936:	c2f88ee3          	beq	a7,a5,20002572 <eff_wipe+0x188>
2000293a:	0007c703          	lbu	a4,0(a5)
2000293e:	050d                	addi	a0,a0,3
20002940:	eae64fe3          	blt	a2,a4,200027fe <eff_wipe+0x414>
20002944:	005f86b3          	add	a3,t6,t0
20002948:	0ff00713          	li	a4,255
2000294c:	82a1                	srli	a3,a3,0x8
2000294e:	40d776b3          	andn	a3,a4,a3
20002952:	20d6a733          	sh1add	a4,a3,a3
20002956:	0716                	slli	a4,a4,0x5
20002958:	8f15                	sub	a4,a4,a3
2000295a:	0706                	slli	a4,a4,0x1
2000295c:	08070713          	addi	a4,a4,128
20002960:	00875693          	srli	a3,a4,0x8
20002964:	96ba                	add	a3,a3,a4
20002966:	82a1                	srli	a3,a3,0x8
20002968:	00d50023          	sb	a3,0(a0)
2000296c:	010500a3          	sb	a6,1(a0)
20002970:	00050123          	sb	zero,2(a0)
20002974:	0785                	addi	a5,a5,1
20002976:	fcf892e3          	bne	a7,a5,2000293a <eff_wipe+0x550>
2000297a:	bee5                	j	20002572 <eff_wipe+0x188>
2000297c:	005f8833          	add	a6,t6,t0
20002980:	0ff00713          	li	a4,255
20002984:	00885813          	srli	a6,a6,0x8
20002988:	41077833          	andn	a6,a4,a6
2000298c:	21082733          	sh1add	a4,a6,a6
20002990:	0716                	slli	a4,a4,0x5
20002992:	41070733          	sub	a4,a4,a6
20002996:	0706                	slli	a4,a4,0x1
20002998:	08070713          	addi	a4,a4,128
2000299c:	fbe00813          	li	a6,-66
200029a0:	00875393          	srli	t2,a4,0x8
200029a4:	01050023          	sb	a6,0(a0)
200029a8:	000500a3          	sb	zero,1(a0)
200029ac:	00d50123          	sb	a3,2(a0)
200029b0:	0785                	addi	a5,a5,1
200029b2:	93ba                	add	t2,t2,a4
200029b4:	bb178fe3          	beq	a5,a7,20002572 <eff_wipe+0x188>
200029b8:	0007c703          	lbu	a4,0(a5)
200029bc:	050d                	addi	a0,a0,3
200029be:	e4e640e3          	blt	a2,a4,200027fe <eff_wipe+0x414>
200029c2:	0083d693          	srli	a3,t2,0x8
200029c6:	01050023          	sb	a6,0(a0)
200029ca:	000500a3          	sb	zero,1(a0)
200029ce:	00d50123          	sb	a3,2(a0)
200029d2:	0785                	addi	a5,a5,1
200029d4:	ff1792e3          	bne	a5,a7,200029b8 <eff_wipe+0x5ce>
200029d8:	be69                	j	20002572 <eff_wipe+0x188>
200029da:	00538433          	add	s0,t2,t0
200029de:	0ff00793          	li	a5,255
200029e2:	8021                	srli	s0,s0,0x8
200029e4:	4087f433          	andn	s0,a5,s0
200029e8:	208427b3          	sh1add	a5,s0,s0
200029ec:	0796                	slli	a5,a5,0x5
200029ee:	8f81                	sub	a5,a5,s0
200029f0:	0786                	slli	a5,a5,0x1
200029f2:	08078793          	addi	a5,a5,128
200029f6:	fbe00413          	li	s0,-66
200029fa:	0087d493          	srli	s1,a5,0x8
200029fe:	00850023          	sb	s0,0(a0)
20002a02:	000500a3          	sb	zero,1(a0)
20002a06:	00d50123          	sb	a3,2(a0)
20002a0a:	0705                	addi	a4,a4,1
20002a0c:	94be                	add	s1,s1,a5
20002a0e:	b7d700e3          	beq	a4,t4,2000256e <eff_wipe+0x184>
20002a12:	00074783          	lbu	a5,0(a4)
20002a16:	050d                	addi	a0,a0,3
20002a18:	bcf640e3          	blt	a2,a5,200025d8 <eff_wipe+0x1ee>
20002a1c:	0084d693          	srli	a3,s1,0x8
20002a20:	00850023          	sb	s0,0(a0)
20002a24:	000500a3          	sb	zero,1(a0)
20002a28:	00d50123          	sb	a3,2(a0)
20002a2c:	0705                	addi	a4,a4,1
20002a2e:	ffd712e3          	bne	a4,t4,20002a12 <eff_wipe+0x628>
20002a32:	be35                	j	2000256e <eff_wipe+0x184>

20002a34 <eff_plasma>:
20002a34:	7179                	addi	sp,sp,-48
20002a36:	82c1a783          	lw	a5,-2004(gp) # 2000c7b8 <fpub>
20002a3a:	2000c737          	lui	a4,0x2000c
20002a3e:	20f7a7b3          	sh1add	a5,a5,a5
20002a42:	61470713          	addi	a4,a4,1556 # 2000c614 <fbuf_h>
20002a46:	20e7e733          	sh3add	a4,a5,a4
20002a4a:	00072883          	lw	a7,0(a4)
20002a4e:	00472803          	lw	a6,4(a4)
20002a52:	470c                	lw	a1,8(a4)
20002a54:	4750                	lw	a2,12(a4)
20002a56:	4b14                	lw	a3,16(a4)
20002a58:	c046                	sw	a7,0(sp)
20002a5a:	c242                	sw	a6,4(sp)
20002a5c:	c42e                	sw	a1,8(sp)
20002a5e:	c632                	sw	a2,12(sp)
20002a60:	c836                	sw	a3,16(sp)
20002a62:	4b54                	lw	a3,20(a4)
20002a64:	2000c737          	lui	a4,0x2000c
20002a68:	64470713          	addi	a4,a4,1604 # 2000c644 <fbuf_v>
20002a6c:	ca36                	sw	a3,20(sp)
20002a6e:	20e7e7b3          	sh3add	a5,a5,a4
20002a72:	0007a803          	lw	a6,0(a5)
20002a76:	43cc                	lw	a1,4(a5)
20002a78:	4790                	lw	a2,8(a5)
20002a7a:	47d4                	lw	a3,12(a5)
20002a7c:	4b98                	lw	a4,16(a5)
20002a7e:	cc42                	sw	a6,24(sp)
20002a80:	ce2e                	sw	a1,28(sp)
20002a82:	d032                	sw	a2,32(sp)
20002a84:	d236                	sw	a3,36(sp)
20002a86:	d43a                	sw	a4,40(sp)
20002a88:	4bdc                	lw	a5,20(a5)
20002a8a:	082c                	addi	a1,sp,24
20002a8c:	2000b837          	lui	a6,0x2000b
20002a90:	80808337          	lui	t1,0x80808
20002a94:	2fa0c8b7          	lui	a7,0x2fa0c
20002a98:	d63e                	sw	a5,44(sp)
20002a9a:	8eae                	mv	t4,a1
20002a9c:	860a                	mv	a2,sp
20002a9e:	08130313          	addi	t1,t1,129 # 80808081 <__StackTop+0x60786081>
20002aa2:	e8388893          	addi	a7,a7,-381 # 2fa0be83 <__StackTop+0xf989e83>
20002aa6:	64080813          	addi	a6,a6,1600 # 2000b640 <gfx_sin_q+0xd0>
20002aaa:	4e11                	li	t3,4
20002aac:	00064703          	lbu	a4,0(a2)
20002ab0:	0005c683          	lbu	a3,0(a1)
20002ab4:	03173f33          	mulhu	t5,a4,a7
20002ab8:	20d6c7b3          	sh2add	a5,a3,a3
20002abc:	20d7e7b3          	sh3add	a5,a5,a3
20002ac0:	20f7c7b3          	sh2add	a5,a5,a5
20002ac4:	003f5f13          	srli	t5,t5,0x3
20002ac8:	21ef46b3          	sh2add	a3,t5,t5
20002acc:	21e6c6b3          	sh2add	a3,a3,t5
20002ad0:	21e6a6b3          	sh1add	a3,a3,t5
20002ad4:	0267b7b3          	mulhu	a5,a5,t1
20002ad8:	8f15                	sub	a4,a4,a3
20002ada:	20e72733          	sh1add	a4,a4,a4
20002ade:	0706                	slli	a4,a4,0x1
20002ae0:	0ff77713          	zext.b	a4,a4
20002ae4:	0ff74693          	xori	a3,a4,255
20002ae8:	00869293          	slli	t0,a3,0x8
20002aec:	40d282b3          	sub	t0,t0,a3
20002af0:	00871f93          	slli	t6,a4,0x8
20002af4:	08028293          	addi	t0,t0,128
20002af8:	40ef8fb3          	sub	t6,t6,a4
20002afc:	080f8f93          	addi	t6,t6,128
20002b00:	0082d693          	srli	a3,t0,0x8
20002b04:	008fd713          	srli	a4,t6,0x8
20002b08:	9696                	add	a3,a3,t0
20002b0a:	839d                	srli	a5,a5,0x7
20002b0c:	977e                	add	a4,a4,t6
20002b0e:	82a1                	srli	a3,a3,0x8
20002b10:	0ff00f93          	li	t6,255
20002b14:	03278793          	addi	a5,a5,50
20002b18:	40dff6b3          	andn	a3,t6,a3
20002b1c:	0ff7f793          	zext.b	a5,a5
20002b20:	0ff00f93          	li	t6,255
20002b24:	8321                	srli	a4,a4,0x8
20002b26:	40eff733          	andn	a4,t6,a4
20002b2a:	02f686b3          	mul	a3,a3,a5
20002b2e:	02f70733          	mul	a4,a4,a5
20002b32:	08068693          	addi	a3,a3,128
20002b36:	0086df93          	srli	t6,a3,0x8
20002b3a:	96fe                	add	a3,a3,t6
20002b3c:	82a1                	srli	a3,a3,0x8
20002b3e:	08070713          	addi	a4,a4,128
20002b42:	00875f93          	srli	t6,a4,0x8
20002b46:	9fba                	add	t6,t6,a4
20002b48:	09ee6563          	bltu	t3,t5,20002bd2 <eff_plasma+0x19e>
20002b4c:	210f4733          	sh2add	a4,t5,a6
20002b50:	4318                	lw	a4,0(a4)
20002b52:	8702                	jr	a4
20002b54:	86be                	mv	a3,a5
20002b56:	4f01                	li	t5,0
20002b58:	008fd793          	srli	a5,t6,0x8
20002b5c:	00f50023          	sb	a5,0(a0)
20002b60:	00d500a3          	sb	a3,1(a0)
20002b64:	01e50123          	sb	t5,2(a0)
20002b68:	0605                	addi	a2,a2,1
20002b6a:	0585                	addi	a1,a1,1
20002b6c:	050d                	addi	a0,a0,3
20002b6e:	f3d61fe3          	bne	a2,t4,20002aac <eff_plasma+0x78>
20002b72:	6145                	addi	sp,sp,48
20002b74:	8082                	ret
20002b76:	8f3e                	mv	t5,a5
20002b78:	87b6                	mv	a5,a3
20002b7a:	4681                	li	a3,0
20002b7c:	00f50023          	sb	a5,0(a0)
20002b80:	00d500a3          	sb	a3,1(a0)
20002b84:	01e50123          	sb	t5,2(a0)
20002b88:	0605                	addi	a2,a2,1
20002b8a:	0585                	addi	a1,a1,1
20002b8c:	050d                	addi	a0,a0,3
20002b8e:	f1d61fe3          	bne	a2,t4,20002aac <eff_plasma+0x78>
20002b92:	b7c5                	j	20002b72 <eff_plasma+0x13e>
20002b94:	8f3e                	mv	t5,a5
20002b96:	008fd693          	srli	a3,t6,0x8
20002b9a:	4781                	li	a5,0
20002b9c:	00f50023          	sb	a5,0(a0)
20002ba0:	00d500a3          	sb	a3,1(a0)
20002ba4:	01e50123          	sb	t5,2(a0)
20002ba8:	0605                	addi	a2,a2,1
20002baa:	0585                	addi	a1,a1,1
20002bac:	050d                	addi	a0,a0,3
20002bae:	efd61fe3          	bne	a2,t4,20002aac <eff_plasma+0x78>
20002bb2:	b7c1                	j	20002b72 <eff_plasma+0x13e>
20002bb4:	8f36                	mv	t5,a3
20002bb6:	86be                	mv	a3,a5
20002bb8:	4781                	li	a5,0
20002bba:	00f50023          	sb	a5,0(a0)
20002bbe:	00d500a3          	sb	a3,1(a0)
20002bc2:	01e50123          	sb	t5,2(a0)
20002bc6:	0605                	addi	a2,a2,1
20002bc8:	0585                	addi	a1,a1,1
20002bca:	050d                	addi	a0,a0,3
20002bcc:	efd610e3          	bne	a2,t4,20002aac <eff_plasma+0x78>
20002bd0:	b74d                	j	20002b72 <eff_plasma+0x13e>
20002bd2:	008fdf13          	srli	t5,t6,0x8
20002bd6:	4681                	li	a3,0
20002bd8:	00f50023          	sb	a5,0(a0)
20002bdc:	00d500a3          	sb	a3,1(a0)
20002be0:	01e50123          	sb	t5,2(a0)
20002be4:	0605                	addi	a2,a2,1
20002be6:	0585                	addi	a1,a1,1
20002be8:	050d                	addi	a0,a0,3
20002bea:	edd611e3          	bne	a2,t4,20002aac <eff_plasma+0x78>
20002bee:	b751                	j	20002b72 <eff_plasma+0x13e>

20002bf0 <eff_comet>:
20002bf0:	6c16c7b7          	lui	a5,0x6c16c
20002bf4:	16d78793          	addi	a5,a5,365 # 6c16c16d <__StackTop+0x4c0ea16d>
20002bf8:	02f5b7b3          	mulhu	a5,a1,a5
20002bfc:	aaaab737          	lui	a4,0xaaaab
20002c00:	aab70713          	addi	a4,a4,-1365 # aaaaaaab <__StackTop+0x8aa28aab>
20002c04:	ccccd6b7          	lui	a3,0xccccd
20002c08:	ccd68693          	addi	a3,a3,-819 # cccccccd <__StackTop+0xacc4accd>
20002c0c:	00357893          	andi	a7,a0,3
20002c10:	40f58633          	sub	a2,a1,a5
20002c14:	8205                	srli	a2,a2,0x1
20002c16:	97b2                	add	a5,a5,a2
20002c18:	8395                	srli	a5,a5,0x5
20002c1a:	02e7b733          	mulhu	a4,a5,a4
20002c1e:	02d5b5b3          	mulhu	a1,a1,a3
20002c22:	8311                	srli	a4,a4,0x4
20002c24:	20e72733          	sh1add	a4,a4,a4
20002c28:	070e                	slli	a4,a4,0x3
20002c2a:	40e78733          	sub	a4,a5,a4
20002c2e:	8191                	srli	a1,a1,0x4
20002c30:	0ff5f813          	zext.b	a6,a1
20002c34:	1a089b63          	bnez	a7,20002dea <eff_comet+0x1fa>
20002c38:	00052023          	sw	zero,0(a0)
20002c3c:	00052223          	sw	zero,4(a0)
20002c40:	00052423          	sw	zero,8(a0)
20002c44:	00052623          	sw	zero,12(a0)
20002c48:	00052823          	sw	zero,16(a0)
20002c4c:	00052a23          	sw	zero,20(a0)
20002c50:	00052c23          	sw	zero,24(a0)
20002c54:	00052e23          	sw	zero,28(a0)
20002c58:	02052023          	sw	zero,32(a0)
20002c5c:	02052223          	sw	zero,36(a0)
20002c60:	02052423          	sw	zero,40(a0)
20002c64:	02052623          	sw	zero,44(a0)
20002c68:	02052823          	sw	zero,48(a0)
20002c6c:	02052a23          	sw	zero,52(a0)
20002c70:	02052c23          	sw	zero,56(a0)
20002c74:	02052e23          	sw	zero,60(a0)
20002c78:	04052023          	sw	zero,64(a0)
20002c7c:	04052223          	sw	zero,68(a0)
20002c80:	2fa0c8b7          	lui	a7,0x2fa0c
20002c84:	e8388893          	addi	a7,a7,-381 # 2fa0be83 <__StackTop+0xf989e83>
20002c88:	031838b3          	mulhu	a7,a6,a7
20002c8c:	0ff5f793          	zext.b	a5,a1
20002c90:	f0100613          	li	a2,-255
20002c94:	02a00593          	li	a1,42
20002c98:	0038d893          	srli	a7,a7,0x3
20002c9c:	2118c6b3          	sh2add	a3,a7,a7
20002ca0:	2116c6b3          	sh2add	a3,a3,a7
20002ca4:	2116a6b3          	sh1add	a3,a3,a7
20002ca8:	8f95                	sub	a5,a5,a3
20002caa:	20f7a7b3          	sh1add	a5,a5,a5
20002cae:	0786                	slli	a5,a5,0x1
20002cb0:	40f666b3          	orn	a3,a2,a5
20002cb4:	0ff6f693          	zext.b	a3,a3
20002cb8:	00869613          	slli	a2,a3,0x8
20002cbc:	8e15                	sub	a2,a2,a3
20002cbe:	08060613          	addi	a2,a2,128
20002cc2:	00865693          	srli	a3,a2,0x8
20002cc6:	96b2                	add	a3,a3,a2
20002cc8:	82a1                	srli	a3,a3,0x8
20002cca:	0ff00613          	li	a2,255
20002cce:	40d676b3          	andn	a3,a2,a3
20002cd2:	00869613          	slli	a2,a3,0x8
20002cd6:	40d606b3          	sub	a3,a2,a3
20002cda:	08068693          	addi	a3,a3,128
20002cde:	0086d313          	srli	t1,a3,0x8
20002ce2:	9336                	add	t1,t1,a3
20002ce4:	0ff7f793          	zext.b	a5,a5
20002ce8:	00835313          	srli	t1,t1,0x8
20002cec:	1105fc63          	bgeu	a1,a6,20002e04 <eff_comet+0x214>
20002cf0:	00879693          	slli	a3,a5,0x8
20002cf4:	8e9d                	sub	a3,a3,a5
20002cf6:	08068693          	addi	a3,a3,128
20002cfa:	0086d793          	srli	a5,a3,0x8
20002cfe:	97b6                	add	a5,a5,a3
20002d00:	83a1                	srli	a5,a5,0x8
20002d02:	0ff00693          	li	a3,255
20002d06:	40f6f7b3          	andn	a5,a3,a5
20002d0a:	00879693          	slli	a3,a5,0x8
20002d0e:	40f687b3          	sub	a5,a3,a5
20002d12:	08078793          	addi	a5,a5,128
20002d16:	0087de13          	srli	t3,a5,0x8
20002d1a:	9e3e                	add	t3,t3,a5
20002d1c:	4785                	li	a5,1
20002d1e:	008e5e13          	srli	t3,t3,0x8
20002d22:	30f88163          	beq	a7,a5,20003024 <eff_comet+0x434>
20002d26:	1141                	addi	sp,sp,-16
20002d28:	aaaabeb7          	lui	t4,0xaaaab
20002d2c:	c622                	sw	s0,12(sp)
20002d2e:	aabe8e93          	addi	t4,t4,-1365 # aaaaaaab <__StackTop+0x8aa28aab>
20002d32:	01870813          	addi	a6,a4,24
20002d36:	01070f93          	addi	t6,a4,16
20002d3a:	0ff00613          	li	a2,255
20002d3e:	4f0d                	li	t5,3
20002d40:	4291                	li	t0,4
20002d42:	4389                	li	t2,2
20002d44:	a825                	j	20002d7c <eff_comet+0x18c>
20002d46:	08789463          	bne	a7,t2,20002dce <eff_comet+0x1de>
20002d4a:	02c30433          	mul	s0,t1,a2
20002d4e:	86ba                	mv	a3,a4
20002d50:	4581                	li	a1,0
20002d52:	08040413          	addi	s0,s0,128
20002d56:	00845713          	srli	a4,s0,0x8
20002d5a:	9722                	add	a4,a4,s0
20002d5c:	8321                	srli	a4,a4,0x8
20002d5e:	20f7a7b3          	sh1add	a5,a5,a5
20002d62:	97aa                	add	a5,a5,a0
20002d64:	1601                	addi	a2,a2,-32
20002d66:	00b78023          	sb	a1,0(a5)
20002d6a:	00d780a3          	sb	a3,1(a5)
20002d6e:	00e78123          	sb	a4,2(a5)
20002d72:	187d                	addi	a6,a6,-1
20002d74:	0ff67613          	zext.b	a2,a2
20002d78:	070f8663          	beq	t6,a6,20002de4 <eff_comet+0x1f4>
20002d7c:	03d837b3          	mulhu	a5,a6,t4
20002d80:	00861713          	slli	a4,a2,0x8
20002d84:	8f11                	sub	a4,a4,a2
20002d86:	08070713          	addi	a4,a4,128
20002d8a:	00875693          	srli	a3,a4,0x8
20002d8e:	9736                	add	a4,a4,a3
20002d90:	8321                	srli	a4,a4,0x8
20002d92:	8391                	srli	a5,a5,0x4
20002d94:	20f7a7b3          	sh1add	a5,a5,a5
20002d98:	078e                	slli	a5,a5,0x3
20002d9a:	40f807b3          	sub	a5,a6,a5
20002d9e:	01e88e63          	beq	a7,t5,20002dba <eff_comet+0x1ca>
20002da2:	fa5892e3          	bne	a7,t0,20002d46 <eff_comet+0x156>
20002da6:	02c30433          	mul	s0,t1,a2
20002daa:	4681                	li	a3,0
20002dac:	08040413          	addi	s0,s0,128
20002db0:	00845593          	srli	a1,s0,0x8
20002db4:	95a2                	add	a1,a1,s0
20002db6:	81a1                	srli	a1,a1,0x8
20002db8:	b75d                	j	20002d5e <eff_comet+0x16e>
20002dba:	02ce0433          	mul	s0,t3,a2
20002dbe:	4581                	li	a1,0
20002dc0:	08040413          	addi	s0,s0,128
20002dc4:	00845693          	srli	a3,s0,0x8
20002dc8:	96a2                	add	a3,a3,s0
20002dca:	82a1                	srli	a3,a3,0x8
20002dcc:	bf49                	j	20002d5e <eff_comet+0x16e>
20002dce:	02ce0433          	mul	s0,t3,a2
20002dd2:	85ba                	mv	a1,a4
20002dd4:	4681                	li	a3,0
20002dd6:	08040713          	addi	a4,s0,128
20002dda:	00875413          	srli	s0,a4,0x8
20002dde:	9722                	add	a4,a4,s0
20002de0:	8321                	srli	a4,a4,0x8
20002de2:	bfb5                	j	20002d5e <eff_comet+0x16e>
20002de4:	4432                	lw	s0,12(sp)
20002de6:	0141                	addi	sp,sp,16
20002de8:	8082                	ret
20002dea:	87aa                	mv	a5,a0
20002dec:	04850693          	addi	a3,a0,72
20002df0:	00078023          	sb	zero,0(a5)
20002df4:	000780a3          	sb	zero,1(a5)
20002df8:	00078123          	sb	zero,2(a5)
20002dfc:	078d                	addi	a5,a5,3
20002dfe:	fef699e3          	bne	a3,a5,20002df0 <eff_comet+0x200>
20002e02:	bdbd                	j	20002c80 <eff_comet+0x90>
20002e04:	aaaab7b7          	lui	a5,0xaaaab
20002e08:	aab78793          	addi	a5,a5,-1365 # aaaaaaab <__StackTop+0x8aa28aab>
20002e0c:	01870e93          	addi	t4,a4,24
20002e10:	02febf33          	mulhu	t5,t4,a5
20002e14:	00831293          	slli	t0,t1,0x8
20002e18:	406282b3          	sub	t0,t0,t1
20002e1c:	08028293          	addi	t0,t0,128
20002e20:	01770e13          	addi	t3,a4,23
20002e24:	00331f93          	slli	t6,t1,0x3
20002e28:	406f8fb3          	sub	t6,t6,t1
20002e2c:	0f96                	slli	t6,t6,0x5
20002e2e:	406f8fb3          	sub	t6,t6,t1
20002e32:	080f8f93          	addi	t6,t6,128
20002e36:	004f5f13          	srli	t5,t5,0x4
20002e3a:	21ef2f33          	sh1add	t5,t5,t5
20002e3e:	0f0e                	slli	t5,t5,0x3
20002e40:	41ee8eb3          	sub	t4,t4,t5
20002e44:	21deaeb3          	sh1add	t4,t4,t4
20002e48:	9eaa                	add	t4,t4,a0
20002e4a:	5f7d                	li	t5,-1
20002e4c:	01ee8023          	sb	t5,0(t4)
20002e50:	0082df13          	srli	t5,t0,0x8
20002e54:	92fa                	add	t0,t0,t5
20002e56:	02fe3f33          	mulhu	t5,t3,a5
20002e5a:	0082d293          	srli	t0,t0,0x8
20002e5e:	005e80a3          	sb	t0,1(t4)
20002e62:	000e8123          	sb	zero,2(t4)
20002e66:	01670893          	addi	a7,a4,22
20002e6a:	20632eb3          	sh1add	t4,t1,t1
20002e6e:	006e9293          	slli	t0,t4,0x6
20002e72:	406282b3          	sub	t0,t0,t1
20002e76:	08028293          	addi	t0,t0,128
20002e7a:	01570813          	addi	a6,a4,21
20002e7e:	004f5f13          	srli	t5,t5,0x4
20002e82:	21ef2f33          	sh1add	t5,t5,t5
20002e86:	0f0e                	slli	t5,t5,0x3
20002e88:	41ee0e33          	sub	t3,t3,t5
20002e8c:	21ce2e33          	sh1add	t3,t3,t3
20002e90:	9e2a                	add	t3,t3,a0
20002e92:	fdf00f13          	li	t5,-33
20002e96:	01ee0023          	sb	t5,0(t3)
20002e9a:	008fdf13          	srli	t5,t6,0x8
20002e9e:	9ffa                	add	t6,t6,t5
20002ea0:	02f8bf33          	mulhu	t5,a7,a5
20002ea4:	008fdf93          	srli	t6,t6,0x8
20002ea8:	01fe00a3          	sb	t6,1(t3)
20002eac:	000e0123          	sb	zero,2(t3)
20002eb0:	01470593          	addi	a1,a4,20
20002eb4:	20634fb3          	sh2add	t6,t1,t1
20002eb8:	0f96                	slli	t6,t6,0x5
20002eba:	406f8fb3          	sub	t6,t6,t1
20002ebe:	080f8f93          	addi	t6,t6,128
20002ec2:	01370613          	addi	a2,a4,19
20002ec6:	004f5e13          	srli	t3,t5,0x4
20002eca:	21ce2e33          	sh1add	t3,t3,t3
20002ece:	0e0e                	slli	t3,t3,0x3
20002ed0:	41c888b3          	sub	a7,a7,t3
20002ed4:	2118a8b3          	sh1add	a7,a7,a7
20002ed8:	98aa                	add	a7,a7,a0
20002eda:	fbf00e13          	li	t3,-65
20002ede:	01c88023          	sb	t3,0(a7)
20002ee2:	0082de13          	srli	t3,t0,0x8
20002ee6:	02f83f33          	mulhu	t5,a6,a5
20002eea:	9e16                	add	t3,t3,t0
20002eec:	008e5e13          	srli	t3,t3,0x8
20002ef0:	01c880a3          	sb	t3,1(a7)
20002ef4:	00088123          	sb	zero,2(a7)
20002ef8:	008fd293          	srli	t0,t6,0x8
20002efc:	92fe                	add	t0,t0,t6
20002efe:	01270693          	addi	a3,a4,18
20002f02:	0082d293          	srli	t0,t0,0x8
20002f06:	0745                	addi	a4,a4,17
20002f08:	02f5b8b3          	mulhu	a7,a1,a5
20002f0c:	004f5f13          	srli	t5,t5,0x4
20002f10:	21ef2f33          	sh1add	t5,t5,t5
20002f14:	0f0e                	slli	t5,t5,0x3
20002f16:	41e80833          	sub	a6,a6,t5
20002f1a:	21082833          	sh1add	a6,a6,a6
20002f1e:	982a                	add	a6,a6,a0
20002f20:	f9f00f13          	li	t5,-97
20002f24:	01e80023          	sb	t5,0(a6)
20002f28:	00080123          	sb	zero,2(a6)
20002f2c:	0048d893          	srli	a7,a7,0x4
20002f30:	2118a8b3          	sh1add	a7,a7,a7
20002f34:	088e                	slli	a7,a7,0x3
20002f36:	411585b3          	sub	a1,a1,a7
20002f3a:	02f638b3          	mulhu	a7,a2,a5
20002f3e:	005800a3          	sb	t0,1(a6)
20002f42:	00731393          	slli	t2,t1,0x7
20002f46:	406383b3          	sub	t2,t2,t1
20002f4a:	08038393          	addi	t2,t2,128
20002f4e:	0e96                	slli	t4,t4,0x5
20002f50:	406e8eb3          	sub	t4,t4,t1
20002f54:	00631e13          	slli	t3,t1,0x6
20002f58:	0083df93          	srli	t6,t2,0x8
20002f5c:	080e8e93          	addi	t4,t4,128
20002f60:	02f6b833          	mulhu	a6,a3,a5
20002f64:	0048d893          	srli	a7,a7,0x4
20002f68:	2118a8b3          	sh1add	a7,a7,a7
20002f6c:	406e0e33          	sub	t3,t3,t1
20002f70:	9f9e                	add	t6,t6,t2
20002f72:	088e                	slli	a7,a7,0x3
20002f74:	00531393          	slli	t2,t1,0x5
20002f78:	080e0e13          	addi	t3,t3,128
20002f7c:	406383b3          	sub	t2,t2,t1
20002f80:	41160633          	sub	a2,a2,a7
20002f84:	02f737b3          	mulhu	a5,a4,a5
20002f88:	00485813          	srli	a6,a6,0x4
20002f8c:	21082833          	sh1add	a6,a6,a6
20002f90:	008ed313          	srli	t1,t4,0x8
20002f94:	080e                	slli	a6,a6,0x3
20002f96:	20b5a5b3          	sh1add	a1,a1,a1
20002f9a:	95aa                	add	a1,a1,a0
20002f9c:	07f00f13          	li	t5,127
20002fa0:	9e9a                	add	t4,t4,t1
20002fa2:	08038893          	addi	a7,t2,128
20002fa6:	8391                	srli	a5,a5,0x4
20002fa8:	20f7a7b3          	sh1add	a5,a5,a5
20002fac:	008e5313          	srli	t1,t3,0x8
20002fb0:	410686b3          	sub	a3,a3,a6
20002fb4:	008fdf93          	srli	t6,t6,0x8
20002fb8:	20c62633          	sh1add	a2,a2,a2
20002fbc:	078e                	slli	a5,a5,0x3
20002fbe:	01e58023          	sb	t5,0(a1)
20002fc2:	00058123          	sb	zero,2(a1)
20002fc6:	01f580a3          	sb	t6,1(a1)
20002fca:	962a                	add	a2,a2,a0
20002fcc:	20d6a6b3          	sh1add	a3,a3,a3
20002fd0:	40f707b3          	sub	a5,a4,a5
20002fd4:	01c30833          	add	a6,t1,t3
20002fd8:	05f00f13          	li	t5,95
20002fdc:	008ede93          	srli	t4,t4,0x8
20002fe0:	0088d593          	srli	a1,a7,0x8
20002fe4:	00060123          	sb	zero,2(a2)
20002fe8:	01e60023          	sb	t5,0(a2)
20002fec:	01d600a3          	sb	t4,1(a2)
20002ff0:	00d50733          	add	a4,a0,a3
20002ff4:	20f7a7b3          	sh1add	a5,a5,a5
20002ff8:	03f00313          	li	t1,63
20002ffc:	00885613          	srli	a2,a6,0x8
20003000:	011586b3          	add	a3,a1,a7
20003004:	00070123          	sb	zero,2(a4)
20003008:	00670023          	sb	t1,0(a4)
2000300c:	00c700a3          	sb	a2,1(a4)
20003010:	97aa                	add	a5,a5,a0
20003012:	477d                	li	a4,31
20003014:	82a1                	srli	a3,a3,0x8
20003016:	00078123          	sb	zero,2(a5)
2000301a:	00e78023          	sb	a4,0(a5)
2000301e:	00d780a3          	sb	a3,1(a5)
20003022:	8082                	ret
20003024:	aaaab7b7          	lui	a5,0xaaaab
20003028:	aab78793          	addi	a5,a5,-1365 # aaaaaaab <__StackTop+0x8aa28aab>
2000302c:	01870e93          	addi	t4,a4,24
20003030:	02febf33          	mulhu	t5,t4,a5
20003034:	01770313          	addi	t1,a4,23
20003038:	003e1293          	slli	t0,t3,0x3
2000303c:	008e1393          	slli	t2,t3,0x8
20003040:	41c282b3          	sub	t0,t0,t3
20003044:	41c383b3          	sub	t2,t2,t3
20003048:	08038393          	addi	t2,t2,128
2000304c:	0296                	slli	t0,t0,0x5
2000304e:	01670893          	addi	a7,a4,22
20003052:	01570813          	addi	a6,a4,21
20003056:	004f5f13          	srli	t5,t5,0x4
2000305a:	21ef2f33          	sh1add	t5,t5,t5
2000305e:	003f1f93          	slli	t6,t5,0x3
20003062:	41fe8eb3          	sub	t4,t4,t6
20003066:	02f33fb3          	mulhu	t6,t1,a5
2000306a:	41c28f33          	sub	t5,t0,t3
2000306e:	0083d293          	srli	t0,t2,0x8
20003072:	929e                	add	t0,t0,t2
20003074:	21deaeb3          	sh1add	t4,t4,t4
20003078:	9eaa                	add	t4,t4,a0
2000307a:	0082d293          	srli	t0,t0,0x8
2000307e:	005e8023          	sb	t0,0(t4)
20003082:	52fd                	li	t0,-1
20003084:	005e80a3          	sb	t0,1(t4)
20003088:	000e8123          	sb	zero,2(t4)
2000308c:	004fde93          	srli	t4,t6,0x4
20003090:	21deaeb3          	sh1add	t4,t4,t4
20003094:	080f0f13          	addi	t5,t5,128
20003098:	0e8e                	slli	t4,t4,0x3
2000309a:	41d30333          	sub	t1,t1,t4
2000309e:	008f5e93          	srli	t4,t5,0x8
200030a2:	9efa                	add	t4,t4,t5
200030a4:	20632333          	sh1add	t1,t1,t1
200030a8:	932a                	add	t1,t1,a0
200030aa:	008ede93          	srli	t4,t4,0x8
200030ae:	01d30023          	sb	t4,0(t1)
200030b2:	02f8bf33          	mulhu	t5,a7,a5
200030b6:	fdf00e93          	li	t4,-33
200030ba:	01d300a3          	sb	t4,1(t1)
200030be:	01470593          	addi	a1,a4,20
200030c2:	01370613          	addi	a2,a4,19
200030c6:	21ce22b3          	sh1add	t0,t3,t3
200030ca:	00629393          	slli	t2,t0,0x6
200030ce:	41c383b3          	sub	t2,t2,t3
200030d2:	08038393          	addi	t2,t2,128
200030d6:	00030123          	sb	zero,2(t1)
200030da:	02f83eb3          	mulhu	t4,a6,a5
200030de:	004f5f13          	srli	t5,t5,0x4
200030e2:	21ef2f33          	sh1add	t5,t5,t5
200030e6:	0f0e                	slli	t5,t5,0x3
200030e8:	41e888b3          	sub	a7,a7,t5
200030ec:	0083d313          	srli	t1,t2,0x8
200030f0:	0296                	slli	t0,t0,0x5
200030f2:	41c282b3          	sub	t0,t0,t3
200030f6:	939a                	add	t2,t2,t1
200030f8:	2118a8b3          	sh1add	a7,a7,a7
200030fc:	004ede93          	srli	t4,t4,0x4
20003100:	21deaeb3          	sh1add	t4,t4,t4
20003104:	003e9f13          	slli	t5,t4,0x3
20003108:	02f5beb3          	mulhu	t4,a1,a5
2000310c:	98aa                	add	a7,a7,a0
2000310e:	08028313          	addi	t1,t0,128
20003112:	0083d293          	srli	t0,t2,0x8
20003116:	00588023          	sb	t0,0(a7)
2000311a:	fbf00293          	li	t0,-65
2000311e:	005880a3          	sb	t0,1(a7)
20003122:	00088123          	sb	zero,2(a7)
20003126:	01270693          	addi	a3,a4,18
2000312a:	0745                	addi	a4,a4,17
2000312c:	004ede93          	srli	t4,t4,0x4
20003130:	21deaeb3          	sh1add	t4,t4,t4
20003134:	0e8e                	slli	t4,t4,0x3
20003136:	41d585b3          	sub	a1,a1,t4
2000313a:	02f63eb3          	mulhu	t4,a2,a5
2000313e:	21ce4fb3          	sh2add	t6,t3,t3
20003142:	0f96                	slli	t6,t6,0x5
20003144:	41cf8fb3          	sub	t6,t6,t3
20003148:	080f8f93          	addi	t6,t6,128
2000314c:	41e80833          	sub	a6,a6,t5
20003150:	008fd293          	srli	t0,t6,0x8
20003154:	007e1f13          	slli	t5,t3,0x7
20003158:	006e1393          	slli	t2,t3,0x6
2000315c:	41c383b3          	sub	t2,t2,t3
20003160:	004ed893          	srli	a7,t4,0x4
20003164:	2118a8b3          	sh1add	a7,a7,a7
20003168:	00389e93          	slli	t4,a7,0x3
2000316c:	02f6b8b3          	mulhu	a7,a3,a5
20003170:	41cf0f33          	sub	t5,t5,t3
20003174:	92fe                	add	t0,t0,t6
20003176:	21082833          	sh1add	a6,a6,a6
2000317a:	982a                	add	a6,a6,a0
2000317c:	080f0f13          	addi	t5,t5,128
20003180:	0082d293          	srli	t0,t0,0x8
20003184:	41d60633          	sub	a2,a2,t4
20003188:	08038e93          	addi	t4,t2,128
2000318c:	f9f00393          	li	t2,-97
20003190:	02f737b3          	mulhu	a5,a4,a5
20003194:	00580023          	sb	t0,0(a6)
20003198:	00080123          	sb	zero,2(a6)
2000319c:	007800a3          	sb	t2,1(a6)
200031a0:	008f5f93          	srli	t6,t5,0x8
200031a4:	0048d813          	srli	a6,a7,0x4
200031a8:	9f7e                	add	t5,t5,t6
200031aa:	21082833          	sh1add	a6,a6,a6
200031ae:	005e1f93          	slli	t6,t3,0x5
200031b2:	41cf8fb3          	sub	t6,t6,t3
200031b6:	8391                	srli	a5,a5,0x4
200031b8:	00835e13          	srli	t3,t1,0x8
200031bc:	080e                	slli	a6,a6,0x3
200031be:	20b5a5b3          	sh1add	a1,a1,a1
200031c2:	20f7a7b3          	sh1add	a5,a5,a5
200031c6:	95aa                	add	a1,a1,a0
200031c8:	006e08b3          	add	a7,t3,t1
200031cc:	410686b3          	sub	a3,a3,a6
200031d0:	080f8313          	addi	t1,t6,128
200031d4:	008f5f13          	srli	t5,t5,0x8
200031d8:	07f00293          	li	t0,127
200031dc:	20c62633          	sh1add	a2,a2,a2
200031e0:	078e                	slli	a5,a5,0x3
200031e2:	008ed813          	srli	a6,t4,0x8
200031e6:	00058123          	sb	zero,2(a1)
200031ea:	01e58023          	sb	t5,0(a1)
200031ee:	005580a3          	sb	t0,1(a1)
200031f2:	962a                	add	a2,a2,a0
200031f4:	20d6a6b3          	sh1add	a3,a3,a3
200031f8:	40f707b3          	sub	a5,a4,a5
200031fc:	9876                	add	a6,a6,t4
200031fe:	0088d893          	srli	a7,a7,0x8
20003202:	05f00e13          	li	t3,95
20003206:	00835593          	srli	a1,t1,0x8
2000320a:	00060123          	sb	zero,2(a2)
2000320e:	01160023          	sb	a7,0(a2)
20003212:	01c600a3          	sb	t3,1(a2)
20003216:	00d50733          	add	a4,a0,a3
2000321a:	00885613          	srli	a2,a6,0x8
2000321e:	20f7a7b3          	sh1add	a5,a5,a5
20003222:	03f00813          	li	a6,63
20003226:	006586b3          	add	a3,a1,t1
2000322a:	00070123          	sb	zero,2(a4)
2000322e:	00c70023          	sb	a2,0(a4)
20003232:	010700a3          	sb	a6,1(a4)
20003236:	97aa                	add	a5,a5,a0
20003238:	82a1                	srli	a3,a3,0x8
2000323a:	477d                	li	a4,31
2000323c:	00078123          	sb	zero,2(a5)
20003240:	00d78023          	sb	a3,0(a5)
20003244:	00e780a3          	sb	a4,1(a5)
20003248:	8082                	ret

2000324a <eff_noise_warp>:
2000324a:	92492737          	lui	a4,0x92492
2000324e:	aaaabf37          	lui	t5,0xaaaab
20003252:	38e39eb7          	lui	t4,0x38e39
20003256:	ccccd7b7          	lui	a5,0xccccd
2000325a:	7179                	addi	sp,sp,-48
2000325c:	0015df93          	srli	t6,a1,0x1
20003260:	49370713          	addi	a4,a4,1171 # 92492493 <__StackTop+0x72410493>
20003264:	aabf0f13          	addi	t5,t5,-1365 # aaaaaaab <__StackTop+0x8aa28aab>
20003268:	e39e8e93          	addi	t4,t4,-455 # 38e38e39 <__StackTop+0x18db6e39>
2000326c:	ccd78793          	addi	a5,a5,-819 # cccccccd <__StackTop+0xacc4accd>
20003270:	03e5bf33          	mulhu	t5,a1,t5
20003274:	ce52                	sw	s4,28(sp)
20003276:	0045da13          	srli	s4,a1,0x4
2000327a:	2000b6b7          	lui	a3,0x2000b
2000327e:	d622                	sw	s0,44(sp)
20003280:	55868693          	addi	a3,a3,1368 # 2000b558 <gm_col>
20003284:	2000b8b7          	lui	a7,0x2000b
20003288:	2000b637          	lui	a2,0x2000b
2000328c:	55555437          	lui	s0,0x55555
20003290:	2000b2b7          	lui	t0,0x2000b
20003294:	03d5beb3          	mulhu	t4,a1,t4
20003298:	2fa0c3b7          	lui	t2,0x2fa0c
2000329c:	d426                	sw	s1,40(sp)
2000329e:	d24a                	sw	s2,36(sp)
200032a0:	d04e                	sw	s3,32(sp)
200032a2:	cc56                	sw	s5,24(sp)
200032a4:	ca5a                	sw	s6,20(sp)
200032a6:	c85e                	sw	s7,16(sp)
200032a8:	c662                	sw	s8,12(sp)
200032aa:	01868993          	addi	s3,a3,24
200032ae:	02efbfb3          	mulhu	t6,t6,a4
200032b2:	54088893          	addi	a7,a7,1344 # 2000b540 <gm_row>
200032b6:	57060613          	addi	a2,a2,1392 # 2000b570 <gfx_sin_q>
200032ba:	55640413          	addi	s0,s0,1366 # 55555556 <__StackTop+0x354d3556>
200032be:	003f5f13          	srli	t5,t5,0x3
200032c2:	e8338393          	addi	t2,t2,-381 # 2fa0be83 <__StackTop+0xf989e83>
200032c6:	65428293          	addi	t0,t0,1620 # 2000b654 <gfx_sin_q+0xe4>
200032ca:	4805                	li	a6,1
200032cc:	04000e13          	li	t3,64
200032d0:	4309                	li	t1,2
200032d2:	02f5b5b3          	mulhu	a1,a1,a5
200032d6:	002fdf93          	srli	t6,t6,0x2
200032da:	4959                	li	s2,22
200032dc:	4491                	li	s1,4
200032de:	001ede93          	srli	t4,t4,0x1
200032e2:	8191                	srli	a1,a1,0x4
200032e4:	0006c703          	lbu	a4,0(a3)
200032e8:	0008cb03          	lbu	s6,0(a7)
200032ec:	00371793          	slli	a5,a4,0x3
200032f0:	8f99                	sub	a5,a5,a4
200032f2:	21e7c7b3          	sh2add	a5,a5,t5
200032f6:	0ff7f793          	zext.b	a5,a5
200032fa:	0067da93          	srli	s5,a5,0x6
200032fe:	03f7f793          	andi	a5,a5,63
20003302:	210a8463          	beq	s5,a6,2000350a <eff_noise_warp+0x2c0>
20003306:	006a8663          	beq	s5,t1,20003312 <eff_noise_warp+0xc8>
2000330a:	200a8263          	beqz	s5,2000350e <eff_noise_warp+0x2c4>
2000330e:	40fe07b3          	sub	a5,t3,a5
20003312:	97b2                	add	a5,a5,a2
20003314:	0007ca83          	lbu	s5,0(a5)
20003318:	41500ab3          	neg	s5,s5
2000331c:	216b67b3          	sh3add	a5,s6,s6
20003320:	078a                	slli	a5,a5,0x2
20003322:	414787b3          	sub	a5,a5,s4
20003326:	0ff7f793          	zext.b	a5,a5
2000332a:	0067db93          	srli	s7,a5,0x6
2000332e:	03f7f793          	andi	a5,a5,63
20003332:	1d0b8663          	beq	s7,a6,200034fe <eff_noise_warp+0x2b4>
20003336:	006b8663          	beq	s7,t1,20003342 <eff_noise_warp+0xf8>
2000333a:	1c0b8463          	beqz	s7,20003502 <eff_noise_warp+0x2b8>
2000333e:	40fe07b3          	sub	a5,t3,a5
20003342:	97b2                	add	a5,a5,a2
20003344:	0007c783          	lbu	a5,0(a5)
20003348:	40f007b3          	neg	a5,a5
2000334c:	975a                	add	a4,a4,s6
2000334e:	03270733          	mul	a4,a4,s2
20003352:	97d6                	add	a5,a5,s5
20003354:	9776                	add	a4,a4,t4
20003356:	0ff77713          	zext.b	a4,a4
2000335a:	00675a93          	srli	s5,a4,0x6
2000335e:	03f77713          	andi	a4,a4,63
20003362:	190a8863          	beq	s5,a6,200034f2 <eff_noise_warp+0x2a8>
20003366:	006a8663          	beq	s5,t1,20003372 <eff_noise_warp+0x128>
2000336a:	180a8663          	beqz	s5,200034f6 <eff_noise_warp+0x2ac>
2000336e:	40ee0733          	sub	a4,t3,a4
20003372:	9732                	add	a4,a4,a2
20003374:	00074703          	lbu	a4,0(a4)
20003378:	40e00733          	neg	a4,a4
2000337c:	97ba                	add	a5,a5,a4
2000337e:	02879733          	mulh	a4,a5,s0
20003382:	41f7db13          	srai	s6,a5,0x1f
20003386:	97fe                	add	a5,a5,t6
20003388:	0ff7f793          	zext.b	a5,a5
2000338c:	0067da93          	srli	s5,a5,0x6
20003390:	03f7f793          	andi	a5,a5,63
20003394:	41670733          	sub	a4,a4,s6
20003398:	972e                	add	a4,a4,a1
2000339a:	0ff77713          	zext.b	a4,a4
2000339e:	150a8463          	beq	s5,a6,200034e6 <eff_noise_warp+0x29c>
200033a2:	006a8663          	beq	s5,t1,200033ae <eff_noise_warp+0x164>
200033a6:	140a8263          	beqz	s5,200034ea <eff_noise_warp+0x2a0>
200033aa:	40fe07b3          	sub	a5,t3,a5
200033ae:	97b2                	add	a5,a5,a2
200033b0:	0007cb03          	lbu	s6,0(a5)
200033b4:	41600b33          	neg	s6,s6
200033b8:	02773ab3          	mulhu	s5,a4,t2
200033bc:	41fb5793          	srai	a5,s6,0x1f
200033c0:	8b8d                	andi	a5,a5,3
200033c2:	97da                	add	a5,a5,s6
200033c4:	8789                	srai	a5,a5,0x2
200033c6:	f8c78793          	addi	a5,a5,-116
200033ca:	0ff7f793          	zext.b	a5,a5
200033ce:	003ada93          	srli	s5,s5,0x3
200033d2:	215acb33          	sh2add	s6,s5,s5
200033d6:	215b4b33          	sh2add	s6,s6,s5
200033da:	215b2b33          	sh1add	s6,s6,s5
200033de:	41670733          	sub	a4,a4,s6
200033e2:	20e72733          	sh1add	a4,a4,a4
200033e6:	0706                	slli	a4,a4,0x1
200033e8:	0ff77713          	zext.b	a4,a4
200033ec:	0ff74b13          	xori	s6,a4,255
200033f0:	008b1c13          	slli	s8,s6,0x8
200033f4:	416c0c33          	sub	s8,s8,s6
200033f8:	00871b93          	slli	s7,a4,0x8
200033fc:	080c0c13          	addi	s8,s8,128
20003400:	40eb8bb3          	sub	s7,s7,a4
20003404:	080b8b93          	addi	s7,s7,128
20003408:	008c5b13          	srli	s6,s8,0x8
2000340c:	008bd713          	srli	a4,s7,0x8
20003410:	9b62                	add	s6,s6,s8
20003412:	975e                	add	a4,a4,s7
20003414:	008b5b13          	srli	s6,s6,0x8
20003418:	0ff00b93          	li	s7,255
2000341c:	416bfb33          	andn	s6,s7,s6
20003420:	8321                	srli	a4,a4,0x8
20003422:	0ff00b93          	li	s7,255
20003426:	40ebf733          	andn	a4,s7,a4
2000342a:	02fb0b33          	mul	s6,s6,a5
2000342e:	02f70733          	mul	a4,a4,a5
20003432:	080b0b13          	addi	s6,s6,128
20003436:	008b5b93          	srli	s7,s6,0x8
2000343a:	9b5e                	add	s6,s6,s7
2000343c:	008b5b13          	srli	s6,s6,0x8
20003440:	08070713          	addi	a4,a4,128
20003444:	00875b93          	srli	s7,a4,0x8
20003448:	9bba                	add	s7,s7,a4
2000344a:	0d54e663          	bltu	s1,s5,20003516 <eff_noise_warp+0x2cc>
2000344e:	205ac733          	sh2add	a4,s5,t0
20003452:	4318                	lw	a4,0(a4)
20003454:	8702                	jr	a4
20003456:	8b3e                	mv	s6,a5
20003458:	4a81                	li	s5,0
2000345a:	008bd793          	srli	a5,s7,0x8
2000345e:	00f50023          	sb	a5,0(a0)
20003462:	016500a3          	sb	s6,1(a0)
20003466:	01550123          	sb	s5,2(a0)
2000346a:	0685                	addi	a3,a3,1
2000346c:	0885                	addi	a7,a7,1
2000346e:	050d                	addi	a0,a0,3
20003470:	e7369ae3          	bne	a3,s3,200032e4 <eff_noise_warp+0x9a>
20003474:	5432                	lw	s0,44(sp)
20003476:	54a2                	lw	s1,40(sp)
20003478:	5912                	lw	s2,36(sp)
2000347a:	5982                	lw	s3,32(sp)
2000347c:	4a72                	lw	s4,28(sp)
2000347e:	4ae2                	lw	s5,24(sp)
20003480:	4b52                	lw	s6,20(sp)
20003482:	4bc2                	lw	s7,16(sp)
20003484:	4c32                	lw	s8,12(sp)
20003486:	6145                	addi	sp,sp,48
20003488:	8082                	ret
2000348a:	8abe                	mv	s5,a5
2000348c:	87da                	mv	a5,s6
2000348e:	4b01                	li	s6,0
20003490:	00f50023          	sb	a5,0(a0)
20003494:	016500a3          	sb	s6,1(a0)
20003498:	01550123          	sb	s5,2(a0)
2000349c:	0685                	addi	a3,a3,1
2000349e:	0885                	addi	a7,a7,1
200034a0:	050d                	addi	a0,a0,3
200034a2:	e53691e3          	bne	a3,s3,200032e4 <eff_noise_warp+0x9a>
200034a6:	b7f9                	j	20003474 <eff_noise_warp+0x22a>
200034a8:	8abe                	mv	s5,a5
200034aa:	008bdb13          	srli	s6,s7,0x8
200034ae:	4781                	li	a5,0
200034b0:	00f50023          	sb	a5,0(a0)
200034b4:	016500a3          	sb	s6,1(a0)
200034b8:	01550123          	sb	s5,2(a0)
200034bc:	0685                	addi	a3,a3,1
200034be:	0885                	addi	a7,a7,1
200034c0:	050d                	addi	a0,a0,3
200034c2:	e33691e3          	bne	a3,s3,200032e4 <eff_noise_warp+0x9a>
200034c6:	b77d                	j	20003474 <eff_noise_warp+0x22a>
200034c8:	8ada                	mv	s5,s6
200034ca:	8b3e                	mv	s6,a5
200034cc:	4781                	li	a5,0
200034ce:	00f50023          	sb	a5,0(a0)
200034d2:	016500a3          	sb	s6,1(a0)
200034d6:	01550123          	sb	s5,2(a0)
200034da:	0685                	addi	a3,a3,1
200034dc:	0885                	addi	a7,a7,1
200034de:	050d                	addi	a0,a0,3
200034e0:	e13692e3          	bne	a3,s3,200032e4 <eff_noise_warp+0x9a>
200034e4:	bf41                	j	20003474 <eff_noise_warp+0x22a>
200034e6:	40fe07b3          	sub	a5,t3,a5
200034ea:	97b2                	add	a5,a5,a2
200034ec:	0007cb03          	lbu	s6,0(a5)
200034f0:	b5e1                	j	200033b8 <eff_noise_warp+0x16e>
200034f2:	40ee0733          	sub	a4,t3,a4
200034f6:	9732                	add	a4,a4,a2
200034f8:	00074703          	lbu	a4,0(a4)
200034fc:	b541                	j	2000337c <eff_noise_warp+0x132>
200034fe:	40fe07b3          	sub	a5,t3,a5
20003502:	97b2                	add	a5,a5,a2
20003504:	0007c783          	lbu	a5,0(a5)
20003508:	b591                	j	2000334c <eff_noise_warp+0x102>
2000350a:	40fe07b3          	sub	a5,t3,a5
2000350e:	97b2                	add	a5,a5,a2
20003510:	0007ca83          	lbu	s5,0(a5)
20003514:	b521                	j	2000331c <eff_noise_warp+0xd2>
20003516:	008bda93          	srli	s5,s7,0x8
2000351a:	4b01                	li	s6,0
2000351c:	00f50023          	sb	a5,0(a0)
20003520:	016500a3          	sb	s6,1(a0)
20003524:	01550123          	sb	s5,2(a0)
20003528:	0685                	addi	a3,a3,1
2000352a:	0885                	addi	a7,a7,1
2000352c:	050d                	addi	a0,a0,3
2000352e:	db369be3          	bne	a3,s3,200032e4 <eff_noise_warp+0x9a>
20003532:	b789                	j	20003474 <eff_noise_warp+0x22a>

20003534 <eff_float_bob>:
20003534:	aaaab7b7          	lui	a5,0xaaaab
20003538:	aab78793          	addi	a5,a5,-1365 # aaaaaaab <__StackTop+0x8aa28aab>
2000353c:	02f5b7b3          	mulhu	a5,a1,a5
20003540:	4685                	li	a3,1
20003542:	8391                	srli	a5,a5,0x4
20003544:	0ff7f793          	zext.b	a5,a5
20003548:	0067d713          	srli	a4,a5,0x6
2000354c:	03f7f793          	andi	a5,a5,63
20003550:	12d70b63          	beq	a4,a3,20003686 <eff_float_bob+0x152>
20003554:	4689                	li	a3,2
20003556:	10d70e63          	beq	a4,a3,20003672 <eff_float_bob+0x13e>
2000355a:	2000b6b7          	lui	a3,0x2000b
2000355e:	57068693          	addi	a3,a3,1392 # 2000b570 <gfx_sin_q>
20003562:	eb75                	bnez	a4,20003656 <eff_float_bob+0x122>
20003564:	97b6                	add	a5,a5,a3
20003566:	0007c783          	lbu	a5,0(a5)
2000356a:	ccccd737          	lui	a4,0xccccd
2000356e:	ccd70713          	addi	a4,a4,-819 # cccccccd <__StackTop+0xacc4accd>
20003572:	02e5b5b3          	mulhu	a1,a1,a4
20003576:	41f7d613          	srai	a2,a5,0x1f
2000357a:	03f67613          	andi	a2,a2,63
2000357e:	963e                	add	a2,a2,a5
20003580:	2000b737          	lui	a4,0x2000b
20003584:	8619                	srai	a2,a2,0x6
20003586:	54070713          	addi	a4,a4,1344 # 2000b540 <gm_row>
2000358a:	80808837          	lui	a6,0x80808
2000358e:	0612                	slli	a2,a2,0x4
20003590:	01870313          	addi	t1,a4,24
20003594:	8191                	srli	a1,a1,0x4
20003596:	08180813          	addi	a6,a6,129 # 80808081 <__StackTop+0x60786081>
2000359a:	4885                	li	a7,1
2000359c:	04000e93          	li	t4,64
200035a0:	4e09                	li	t3,2
200035a2:	a059                	j	20003628 <eff_float_bob+0xf4>
200035a4:	40fe8fb3          	sub	t6,t4,a5
200035a8:	9fb6                	add	t6,t6,a3
200035aa:	97b6                	add	a5,a5,a3
200035ac:	0a0f0f63          	beqz	t5,2000366a <eff_float_bob+0x136>
200035b0:	000fcf03          	lbu	t5,0(t6)
200035b4:	41e00f33          	neg	t5,t5
200035b8:	0fff0f13          	addi	t5,t5,255
200035bc:	401f5f13          	srai	t5,t5,0x1
200035c0:	21ef4f33          	sh2add	t5,t5,t5
200035c4:	004f1793          	slli	a5,t5,0x4
200035c8:	41e787b3          	sub	a5,a5,t5
200035cc:	0786                	slli	a5,a5,0x1
200035ce:	0307b7b3          	mulhu	a5,a5,a6
200035d2:	0705                	addi	a4,a4,1
200035d4:	050d                	addi	a0,a0,3
200035d6:	839d                	srli	a5,a5,0x7
200035d8:	04678793          	addi	a5,a5,70
200035dc:	0ff7f793          	zext.b	a5,a5
200035e0:	20f7af33          	sh1add	t5,a5,a5
200035e4:	21ef6f33          	sh3add	t5,t5,t5
200035e8:	20f7cfb3          	sh2add	t6,a5,a5
200035ec:	0f0e                	slli	t5,t5,0x3
200035ee:	20ffafb3          	sh1add	t6,t6,a5
200035f2:	40ff0f33          	sub	t5,t5,a5
200035f6:	21ffcfb3          	sh2add	t6,t6,t6
200035fa:	080f0f13          	addi	t5,t5,128
200035fe:	080f8f93          	addi	t6,t6,128
20003602:	008f5393          	srli	t2,t5,0x8
20003606:	008fd293          	srli	t0,t6,0x8
2000360a:	93fa                	add	t2,t2,t5
2000360c:	01f28f33          	add	t5,t0,t6
20003610:	008f5f13          	srli	t5,t5,0x8
20003614:	0083df93          	srli	t6,t2,0x8
20003618:	fef50f23          	sb	a5,-2(a0)
2000361c:	fff50fa3          	sb	t6,-1(a0)
20003620:	ffe50ea3          	sb	t5,-3(a0)
20003624:	04670663          	beq	a4,t1,20003670 <eff_float_bob+0x13c>
20003628:	00074783          	lbu	a5,0(a4)
2000362c:	20f7c7b3          	sh2add	a5,a5,a5
20003630:	078e                	slli	a5,a5,0x3
20003632:	8f91                	sub	a5,a5,a2
20003634:	97ae                	add	a5,a5,a1
20003636:	0ff7f793          	zext.b	a5,a5
2000363a:	0067df13          	srli	t5,a5,0x6
2000363e:	03f7f793          	andi	a5,a5,63
20003642:	031f0163          	beq	t5,a7,20003664 <eff_float_bob+0x130>
20003646:	f5cf1fe3          	bne	t5,t3,200035a4 <eff_float_bob+0x70>
2000364a:	97b6                	add	a5,a5,a3
2000364c:	0007cf03          	lbu	t5,0(a5)
20003650:	41e00f33          	neg	t5,t5
20003654:	b795                	j	200035b8 <eff_float_bob+0x84>
20003656:	40f687b3          	sub	a5,a3,a5
2000365a:	0407c783          	lbu	a5,64(a5)
2000365e:	40f007b3          	neg	a5,a5
20003662:	b721                	j	2000356a <eff_float_bob+0x36>
20003664:	40fe87b3          	sub	a5,t4,a5
20003668:	97b6                	add	a5,a5,a3
2000366a:	0007cf03          	lbu	t5,0(a5)
2000366e:	b7a9                	j	200035b8 <eff_float_bob+0x84>
20003670:	8082                	ret
20003672:	2000b6b7          	lui	a3,0x2000b
20003676:	57068693          	addi	a3,a3,1392 # 2000b570 <gfx_sin_q>
2000367a:	97b6                	add	a5,a5,a3
2000367c:	0007c783          	lbu	a5,0(a5)
20003680:	40f007b3          	neg	a5,a5
20003684:	b5dd                	j	2000356a <eff_float_bob+0x36>
20003686:	2000b6b7          	lui	a3,0x2000b
2000368a:	57068693          	addi	a3,a3,1392 # 2000b570 <gfx_sin_q>
2000368e:	40f687b3          	sub	a5,a3,a5
20003692:	0407c783          	lbu	a5,64(a5)
20003696:	bdd1                	j	2000356a <eff_float_bob+0x36>

20003698 <eff_eyeglow>:
20003698:	ccccd7b7          	lui	a5,0xccccd
2000369c:	ccd78793          	addi	a5,a5,-819 # cccccccd <__StackTop+0xacc4accd>
200036a0:	02f5b7b3          	mulhu	a5,a1,a5
200036a4:	4685                	li	a3,1
200036a6:	8395                	srli	a5,a5,0x5
200036a8:	0ff7f793          	zext.b	a5,a5
200036ac:	0067d713          	srli	a4,a5,0x6
200036b0:	03f7f793          	andi	a5,a5,63
200036b4:	14d70663          	beq	a4,a3,20003800 <eff_eyeglow+0x168>
200036b8:	4689                	li	a3,2
200036ba:	12d70963          	beq	a4,a3,200037ec <eff_eyeglow+0x154>
200036be:	2000b6b7          	lui	a3,0x2000b
200036c2:	57068693          	addi	a3,a3,1392 # 2000b570 <gfx_sin_q>
200036c6:	ef65                	bnez	a4,200037be <eff_eyeglow+0x126>
200036c8:	97b6                	add	a5,a5,a3
200036ca:	0007c603          	lbu	a2,0(a5)
200036ce:	ccccd7b7          	lui	a5,0xccccd
200036d2:	ccd78793          	addi	a5,a5,-819 # cccccccd <__StackTop+0xacc4accd>
200036d6:	02f5b733          	mulhu	a4,a1,a5
200036da:	41f65793          	srai	a5,a2,0x1f
200036de:	8bbd                	andi	a5,a5,15
200036e0:	97b2                	add	a5,a5,a2
200036e2:	8791                	srai	a5,a5,0x4
200036e4:	05078793          	addi	a5,a5,80
200036e8:	4585                	li	a1,1
200036ea:	0ff7f793          	zext.b	a5,a5
200036ee:	8311                	srli	a4,a4,0x4
200036f0:	0ff77713          	zext.b	a4,a4
200036f4:	00675613          	srli	a2,a4,0x6
200036f8:	03f77713          	andi	a4,a4,63
200036fc:	0cb60863          	beq	a2,a1,200037cc <eff_eyeglow+0x134>
20003700:	4589                	li	a1,2
20003702:	0cb60f63          	beq	a2,a1,200037e0 <eff_eyeglow+0x148>
20003706:	e679                	bnez	a2,200037d4 <eff_eyeglow+0x13c>
20003708:	96ba                	add	a3,a3,a4
2000370a:	0006c703          	lbu	a4,0(a3)
2000370e:	2fa0c637          	lui	a2,0x2fa0c
20003712:	e8360613          	addi	a2,a2,-381 # 2fa0be83 <__StackTop+0xf989e83>
20003716:	02c7b633          	mulhu	a2,a5,a2
2000371a:	0ff70713          	addi	a4,a4,255
2000371e:	8705                	srai	a4,a4,0x1
20003720:	00671893          	slli	a7,a4,0x6
20003724:	98ba                	add	a7,a7,a4
20003726:	80808737          	lui	a4,0x80808
2000372a:	08170713          	addi	a4,a4,129 # 80808081 <__StackTop+0x60786081>
2000372e:	0886                	slli	a7,a7,0x1
20003730:	4309                	li	t1,2
20003732:	02e8b8b3          	mulhu	a7,a7,a4
20003736:	820d                	srli	a2,a2,0x3
20003738:	20c64733          	sh2add	a4,a2,a2
2000373c:	20c74733          	sh2add	a4,a4,a2
20003740:	20c72733          	sh1add	a4,a4,a2
20003744:	8f99                	sub	a5,a5,a4
20003746:	20f7a7b3          	sh1add	a5,a5,a5
2000374a:	0786                	slli	a5,a5,0x1
2000374c:	0ff7f793          	zext.b	a5,a5
20003750:	0078d893          	srli	a7,a7,0x7
20003754:	03788593          	addi	a1,a7,55
20003758:	0a660d63          	beq	a2,t1,20003812 <eff_eyeglow+0x17a>
2000375c:	00879713          	slli	a4,a5,0x8
20003760:	40f707b3          	sub	a5,a4,a5
20003764:	08078793          	addi	a5,a5,128
20003768:	0087d613          	srli	a2,a5,0x8
2000376c:	963e                	add	a2,a2,a5
2000376e:	2000b6b7          	lui	a3,0x2000b
20003772:	8221                	srli	a2,a2,0x8
20003774:	54068693          	addi	a3,a3,1344 # 2000b540 <gm_row>
20003778:	0ff00793          	li	a5,255
2000377c:	07388893          	addi	a7,a7,115
20003780:	40c7f633          	andn	a2,a5,a2
20003784:	01868813          	addi	a6,a3,24
20003788:	0006c703          	lbu	a4,0(a3)
2000378c:	0ff5f793          	zext.b	a5,a1
20003790:	0685                	addi	a3,a3,1
20003792:	00671463          	bne	a4,t1,2000379a <eff_eyeglow+0x102>
20003796:	0ff8f793          	zext.b	a5,a7
2000379a:	02c78733          	mul	a4,a5,a2
2000379e:	00f500a3          	sb	a5,1(a0)
200037a2:	00050123          	sb	zero,2(a0)
200037a6:	050d                	addi	a0,a0,3
200037a8:	08070713          	addi	a4,a4,128
200037ac:	00875793          	srli	a5,a4,0x8
200037b0:	97ba                	add	a5,a5,a4
200037b2:	83a1                	srli	a5,a5,0x8
200037b4:	fef50ea3          	sb	a5,-3(a0)
200037b8:	fcd818e3          	bne	a6,a3,20003788 <eff_eyeglow+0xf0>
200037bc:	8082                	ret
200037be:	40f687b3          	sub	a5,a3,a5
200037c2:	0407c603          	lbu	a2,64(a5)
200037c6:	40c00633          	neg	a2,a2
200037ca:	b711                	j	200036ce <eff_eyeglow+0x36>
200037cc:	8e99                	sub	a3,a3,a4
200037ce:	0406c703          	lbu	a4,64(a3)
200037d2:	bf35                	j	2000370e <eff_eyeglow+0x76>
200037d4:	8e99                	sub	a3,a3,a4
200037d6:	0406c703          	lbu	a4,64(a3)
200037da:	40e00733          	neg	a4,a4
200037de:	bf05                	j	2000370e <eff_eyeglow+0x76>
200037e0:	96ba                	add	a3,a3,a4
200037e2:	0006c703          	lbu	a4,0(a3)
200037e6:	40e00733          	neg	a4,a4
200037ea:	b715                	j	2000370e <eff_eyeglow+0x76>
200037ec:	2000b6b7          	lui	a3,0x2000b
200037f0:	57068693          	addi	a3,a3,1392 # 2000b570 <gfx_sin_q>
200037f4:	97b6                	add	a5,a5,a3
200037f6:	0007c603          	lbu	a2,0(a5)
200037fa:	40c00633          	neg	a2,a2
200037fe:	bdc1                	j	200036ce <eff_eyeglow+0x36>
20003800:	2000b6b7          	lui	a3,0x2000b
20003804:	57068693          	addi	a3,a3,1392 # 2000b570 <gfx_sin_q>
20003808:	40f687b3          	sub	a5,a3,a5
2000380c:	0407c603          	lbu	a2,64(a5)
20003810:	bd7d                	j	200036ce <eff_eyeglow+0x36>
20003812:	0ff7c793          	xori	a5,a5,255
20003816:	00879713          	slli	a4,a5,0x8
2000381a:	40f707b3          	sub	a5,a4,a5
2000381e:	08078793          	addi	a5,a5,128
20003822:	0087d813          	srli	a6,a5,0x8
20003826:	983e                	add	a6,a6,a5
20003828:	2000b6b7          	lui	a3,0x2000b
2000382c:	00885813          	srli	a6,a6,0x8
20003830:	54068693          	addi	a3,a3,1344 # 2000b540 <gm_row>
20003834:	0ff00793          	li	a5,255
20003838:	07388893          	addi	a7,a7,115
2000383c:	4107f833          	andn	a6,a5,a6
20003840:	01868313          	addi	t1,a3,24
20003844:	0006c703          	lbu	a4,0(a3)
20003848:	0ff5f793          	zext.b	a5,a1
2000384c:	0685                	addi	a3,a3,1
2000384e:	00c71463          	bne	a4,a2,20003856 <eff_eyeglow+0x1be>
20003852:	0ff8f793          	zext.b	a5,a7
20003856:	03078733          	mul	a4,a5,a6
2000385a:	00f500a3          	sb	a5,1(a0)
2000385e:	00050023          	sb	zero,0(a0)
20003862:	050d                	addi	a0,a0,3
20003864:	08070713          	addi	a4,a4,128
20003868:	00875793          	srli	a5,a4,0x8
2000386c:	97ba                	add	a5,a5,a4
2000386e:	83a1                	srli	a5,a5,0x8
20003870:	fef50fa3          	sb	a5,-1(a0)
20003874:	fcd318e3          	bne	t1,a3,20003844 <eff_eyeglow+0x1ac>
20003878:	8082                	ret

2000387a <eff_breathe>:
2000387a:	aaaab7b7          	lui	a5,0xaaaab
2000387e:	aab78793          	addi	a5,a5,-1365 # aaaaaaab <__StackTop+0x8aa28aab>
20003882:	02f5b7b3          	mulhu	a5,a1,a5
20003886:	88889737          	lui	a4,0x88889
2000388a:	88970713          	addi	a4,a4,-1911 # 88888889 <__StackTop+0x68806889>
2000388e:	4605                	li	a2,1
20003890:	02e5b6b3          	mulhu	a3,a1,a4
20003894:	838d                	srli	a5,a5,0x3
20003896:	0ff7f793          	zext.b	a5,a5
2000389a:	0067d713          	srli	a4,a5,0x6
2000389e:	03f7f793          	andi	a5,a5,63
200038a2:	8295                	srli	a3,a3,0x5
200038a4:	0ff6f593          	zext.b	a1,a3
200038a8:	16c70063          	beq	a4,a2,20003a08 <eff_breathe+0x18e>
200038ac:	4609                	li	a2,2
200038ae:	14c70363          	beq	a4,a2,200039f4 <eff_breathe+0x17a>
200038b2:	ef7d                	bnez	a4,200039b0 <eff_breathe+0x136>
200038b4:	2000b737          	lui	a4,0x2000b
200038b8:	57070713          	addi	a4,a4,1392 # 2000b570 <gfx_sin_q>
200038bc:	97ba                	add	a5,a5,a4
200038be:	0007c783          	lbu	a5,0(a5)
200038c2:	2fa0c737          	lui	a4,0x2fa0c
200038c6:	e8370713          	addi	a4,a4,-381 # 2fa0be83 <__StackTop+0xf989e83>
200038ca:	02e5b733          	mulhu	a4,a1,a4
200038ce:	0ff78793          	addi	a5,a5,255
200038d2:	8785                	srai	a5,a5,0x1
200038d4:	20f7c7b3          	sh2add	a5,a5,a5
200038d8:	20f7c7b3          	sh2add	a5,a5,a5
200038dc:	80808837          	lui	a6,0x80808
200038e0:	08180813          	addi	a6,a6,129 # 80808081 <__StackTop+0x60786081>
200038e4:	078e                	slli	a5,a5,0x3
200038e6:	0ff6f693          	zext.b	a3,a3
200038ea:	02a00893          	li	a7,42
200038ee:	830d                	srli	a4,a4,0x3
200038f0:	20e74633          	sh2add	a2,a4,a4
200038f4:	20e64633          	sh2add	a2,a2,a4
200038f8:	0307b7b3          	mulhu	a5,a5,a6
200038fc:	20e62633          	sh1add	a2,a2,a4
20003900:	8e91                	sub	a3,a3,a2
20003902:	20d6a6b3          	sh1add	a3,a3,a3
20003906:	0686                	slli	a3,a3,0x1
20003908:	f0100813          	li	a6,-255
2000390c:	40d86633          	orn	a2,a6,a3
20003910:	0ff67613          	zext.b	a2,a2
20003914:	00861813          	slli	a6,a2,0x8
20003918:	40c80833          	sub	a6,a6,a2
2000391c:	08080813          	addi	a6,a6,128
20003920:	00885613          	srli	a2,a6,0x8
20003924:	9642                	add	a2,a2,a6
20003926:	839d                	srli	a5,a5,0x7
20003928:	0ff00813          	li	a6,255
2000392c:	02878793          	addi	a5,a5,40
20003930:	8221                	srli	a2,a2,0x8
20003932:	40c87633          	andn	a2,a6,a2
20003936:	0ff7f793          	zext.b	a5,a5
2000393a:	02f60633          	mul	a2,a2,a5
2000393e:	0ff6f693          	zext.b	a3,a3
20003942:	08060613          	addi	a2,a2,128
20003946:	00865813          	srli	a6,a2,0x8
2000394a:	9642                	add	a2,a2,a6
2000394c:	8221                	srli	a2,a2,0x8
2000394e:	0ff67813          	zext.b	a6,a2
20003952:	0cb8f463          	bgeu	a7,a1,20003a1a <eff_breathe+0x1a0>
20003956:	00869593          	slli	a1,a3,0x8
2000395a:	40d586b3          	sub	a3,a1,a3
2000395e:	08068693          	addi	a3,a3,128
20003962:	0086d613          	srli	a2,a3,0x8
20003966:	9636                	add	a2,a2,a3
20003968:	8221                	srli	a2,a2,0x8
2000396a:	0ff00693          	li	a3,255
2000396e:	40c6f633          	andn	a2,a3,a2
20003972:	02f60633          	mul	a2,a2,a5
20003976:	4585                	li	a1,1
20003978:	08060613          	addi	a2,a2,128
2000397c:	00865693          	srli	a3,a2,0x8
20003980:	96b2                	add	a3,a3,a2
20003982:	82a1                	srli	a3,a3,0x8
20003984:	0ff6f693          	zext.b	a3,a3
20003988:	0eb70663          	beq	a4,a1,20003a74 <eff_breathe+0x1fa>
2000398c:	4609                	li	a2,2
2000398e:	12c70263          	beq	a4,a2,20003ab2 <eff_breathe+0x238>
20003992:	04850613          	addi	a2,a0,72
20003996:	458d                	li	a1,3
20003998:	02b71763          	bne	a4,a1,200039c6 <eff_breathe+0x14c>
2000399c:	00050023          	sb	zero,0(a0)
200039a0:	00d500a3          	sb	a3,1(a0)
200039a4:	00f50123          	sb	a5,2(a0)
200039a8:	050d                	addi	a0,a0,3
200039aa:	fea617e3          	bne	a2,a0,20003998 <eff_breathe+0x11e>
200039ae:	8082                	ret
200039b0:	2000b737          	lui	a4,0x2000b
200039b4:	57070713          	addi	a4,a4,1392 # 2000b570 <gfx_sin_q>
200039b8:	40f707b3          	sub	a5,a4,a5
200039bc:	0407c783          	lbu	a5,64(a5)
200039c0:	40f007b3          	neg	a5,a5
200039c4:	bdfd                	j	200038c2 <eff_breathe+0x48>
200039c6:	4591                	li	a1,4
200039c8:	00b70c63          	beq	a4,a1,200039e0 <eff_breathe+0x166>
200039cc:	00f50023          	sb	a5,0(a0)
200039d0:	000500a3          	sb	zero,1(a0)
200039d4:	00d50123          	sb	a3,2(a0)
200039d8:	050d                	addi	a0,a0,3
200039da:	fec517e3          	bne	a0,a2,200039c8 <eff_breathe+0x14e>
200039de:	8082                	ret
200039e0:	01050023          	sb	a6,0(a0)
200039e4:	000500a3          	sb	zero,1(a0)
200039e8:	00f50123          	sb	a5,2(a0)
200039ec:	050d                	addi	a0,a0,3
200039ee:	fec519e3          	bne	a0,a2,200039e0 <eff_breathe+0x166>
200039f2:	8082                	ret
200039f4:	2000b737          	lui	a4,0x2000b
200039f8:	57070713          	addi	a4,a4,1392 # 2000b570 <gfx_sin_q>
200039fc:	97ba                	add	a5,a5,a4
200039fe:	0007c783          	lbu	a5,0(a5)
20003a02:	40f007b3          	neg	a5,a5
20003a06:	bd75                	j	200038c2 <eff_breathe+0x48>
20003a08:	2000b737          	lui	a4,0x2000b
20003a0c:	57070713          	addi	a4,a4,1392 # 2000b570 <gfx_sin_q>
20003a10:	40f707b3          	sub	a5,a4,a5
20003a14:	0407c783          	lbu	a5,64(a5)
20003a18:	b56d                	j	200038c2 <eff_breathe+0x48>
20003a1a:	00357713          	andi	a4,a0,3
20003a1e:	e77d                	bnez	a4,20003b0c <eff_breathe+0x292>
20003a20:	01079693          	slli	a3,a5,0x10
20003a24:	01000637          	lui	a2,0x1000
20003a28:	167d                	addi	a2,a2,-1 # ffffff <HeapSize+0xfff7ff>
20003a2a:	00881713          	slli	a4,a6,0x8
20003a2e:	00d866b3          	or	a3,a6,a3
20003a32:	8f5d                	or	a4,a4,a5
20003a34:	8ef1                	and	a3,a3,a2
20003a36:	01881893          	slli	a7,a6,0x18
20003a3a:	0116e6b3          	or	a3,a3,a7
20003a3e:	8f71                	and	a4,a4,a2
20003a40:	01879593          	slli	a1,a5,0x18
20003a44:	01081613          	slli	a2,a6,0x10
20003a48:	07a2                	slli	a5,a5,0x8
20003a4a:	8f4d                	or	a4,a4,a1
20003a4c:	8fd1                	or	a5,a5,a2
20003a4e:	c154                	sw	a3,4(a0)
20003a50:	c914                	sw	a3,16(a0)
20003a52:	cd54                	sw	a3,28(a0)
20003a54:	d514                	sw	a3,40(a0)
20003a56:	d954                	sw	a3,52(a0)
20003a58:	c134                	sw	a3,64(a0)
20003a5a:	c118                	sw	a4,0(a0)
20003a5c:	c558                	sw	a4,12(a0)
20003a5e:	cd18                	sw	a4,24(a0)
20003a60:	d158                	sw	a4,36(a0)
20003a62:	d918                	sw	a4,48(a0)
20003a64:	dd58                	sw	a4,60(a0)
20003a66:	c51c                	sw	a5,8(a0)
20003a68:	c95c                	sw	a5,20(a0)
20003a6a:	d11c                	sw	a5,32(a0)
20003a6c:	d55c                	sw	a5,44(a0)
20003a6e:	dd1c                	sw	a5,56(a0)
20003a70:	c17c                	sw	a5,68(a0)
20003a72:	8082                	ret
20003a74:	00357713          	andi	a4,a0,3
20003a78:	e755                	bnez	a4,20003b24 <eff_breathe+0x2aa>
20003a7a:	01069613          	slli	a2,a3,0x10
20003a7e:	010005b7          	lui	a1,0x1000
20003a82:	15fd                	addi	a1,a1,-1 # ffffff <HeapSize+0xfff7ff>
20003a84:	00879713          	slli	a4,a5,0x8
20003a88:	8e5d                	or	a2,a2,a5
20003a8a:	8f55                	or	a4,a4,a3
20003a8c:	8e6d                	and	a2,a2,a1
20003a8e:	01879813          	slli	a6,a5,0x18
20003a92:	01066633          	or	a2,a2,a6
20003a96:	8f6d                	and	a4,a4,a1
20003a98:	07c2                	slli	a5,a5,0x10
20003a9a:	01869593          	slli	a1,a3,0x18
20003a9e:	06a2                	slli	a3,a3,0x8
20003aa0:	8f4d                	or	a4,a4,a1
20003aa2:	8fd5                	or	a5,a5,a3
20003aa4:	c150                	sw	a2,4(a0)
20003aa6:	c910                	sw	a2,16(a0)
20003aa8:	cd50                	sw	a2,28(a0)
20003aaa:	d510                	sw	a2,40(a0)
20003aac:	d950                	sw	a2,52(a0)
20003aae:	c130                	sw	a2,64(a0)
20003ab0:	b76d                	j	20003a5a <eff_breathe+0x1e0>
20003ab2:	00357713          	andi	a4,a0,3
20003ab6:	e359                	bnez	a4,20003b3c <eff_breathe+0x2c2>
20003ab8:	01079693          	slli	a3,a5,0x10
20003abc:	01000637          	lui	a2,0x1000
20003ac0:	00881713          	slli	a4,a6,0x8
20003ac4:	167d                	addi	a2,a2,-1 # ffffff <HeapSize+0xfff7ff>
20003ac6:	8f5d                	or	a4,a4,a5
20003ac8:	00d866b3          	or	a3,a6,a3
20003acc:	8ef1                	and	a3,a3,a2
20003ace:	8f71                	and	a4,a4,a2
20003ad0:	01879593          	slli	a1,a5,0x18
20003ad4:	01881893          	slli	a7,a6,0x18
20003ad8:	01081613          	slli	a2,a6,0x10
20003adc:	07a2                	slli	a5,a5,0x8
20003ade:	0116e6b3          	or	a3,a3,a7
20003ae2:	8f4d                	or	a4,a4,a1
20003ae4:	8fd1                	or	a5,a5,a2
20003ae6:	c514                	sw	a3,8(a0)
20003ae8:	c954                	sw	a3,20(a0)
20003aea:	d114                	sw	a3,32(a0)
20003aec:	d554                	sw	a3,44(a0)
20003aee:	dd14                	sw	a3,56(a0)
20003af0:	c174                	sw	a3,68(a0)
20003af2:	c158                	sw	a4,4(a0)
20003af4:	c918                	sw	a4,16(a0)
20003af6:	cd58                	sw	a4,28(a0)
20003af8:	d518                	sw	a4,40(a0)
20003afa:	d958                	sw	a4,52(a0)
20003afc:	c138                	sw	a4,64(a0)
20003afe:	c11c                	sw	a5,0(a0)
20003b00:	c55c                	sw	a5,12(a0)
20003b02:	cd1c                	sw	a5,24(a0)
20003b04:	d15c                	sw	a5,36(a0)
20003b06:	d91c                	sw	a5,48(a0)
20003b08:	dd5c                	sw	a5,60(a0)
20003b0a:	8082                	ret
20003b0c:	04850713          	addi	a4,a0,72
20003b10:	00f50023          	sb	a5,0(a0)
20003b14:	010500a3          	sb	a6,1(a0)
20003b18:	00050123          	sb	zero,2(a0)
20003b1c:	050d                	addi	a0,a0,3
20003b1e:	fee519e3          	bne	a0,a4,20003b10 <eff_breathe+0x296>
20003b22:	8082                	ret
20003b24:	04850713          	addi	a4,a0,72
20003b28:	00d50023          	sb	a3,0(a0)
20003b2c:	00f500a3          	sb	a5,1(a0)
20003b30:	00050123          	sb	zero,2(a0)
20003b34:	050d                	addi	a0,a0,3
20003b36:	fee519e3          	bne	a0,a4,20003b28 <eff_breathe+0x2ae>
20003b3a:	8082                	ret
20003b3c:	04850713          	addi	a4,a0,72
20003b40:	00050023          	sb	zero,0(a0)
20003b44:	00f500a3          	sb	a5,1(a0)
20003b48:	01050123          	sb	a6,2(a0)
20003b4c:	050d                	addi	a0,a0,3
20003b4e:	fea719e3          	bne	a4,a0,20003b40 <eff_breathe+0x2c6>
20003b52:	8082                	ret

20003b54 <field_compute>:
20003b54:	7159                	addi	sp,sp,-112
20003b56:	2000c7b7          	lui	a5,0x2000c
20003b5a:	c4e2                	sw	s8,72(sp)
20003b5c:	8c2e                	mv	s8,a1
20003b5e:	e687a583          	lw	a1,-408(a5) # 2000be68 <__clz_tab+0x124>
20003b62:	cece                	sw	s3,92(sp)
20003b64:	89aa                	mv	s3,a0
20003b66:	8532                	mv	a0,a2
20003b68:	d686                	sw	ra,108(sp)
20003b6a:	d4a2                	sw	s0,104(sp)
20003b6c:	d2a6                	sw	s1,100(sp)
20003b6e:	d0ca                	sw	s2,96(sp)
20003b70:	ccd2                	sw	s4,88(sp)
20003b72:	cad6                	sw	s5,84(sp)
20003b74:	8a32                	mv	s4,a2
20003b76:	c8da                	sw	s6,80(sp)
20003b78:	c6de                	sw	s7,76(sp)
20003b7a:	de6e                	sw	s11,60(sp)
20003b7c:	2000c4b7          	lui	s1,0x2000c
20003b80:	c2e6                	sw	s9,68(sp)
20003b82:	c0ea                	sw	s10,64(sp)
20003b84:	041010ef          	jal	200053c4 <__mulsf3>
20003b88:	e6c4a583          	lw	a1,-404(s1) # 2000be6c <__clz_tab+0x128>
20003b8c:	d42a                	sw	a0,40(sp)
20003b8e:	8552                	mv	a0,s4
20003b90:	035010ef          	jal	200053c4 <__mulsf3>
20003b94:	e6c4a783          	lw	a5,-404(s1)
20003b98:	d62a                	sw	a0,44(sp)
20003b9a:	2000c837          	lui	a6,0x2000c
20003b9e:	2000c537          	lui	a0,0x2000c
20003ba2:	2000c5b7          	lui	a1,0x2000c
20003ba6:	2000c6b7          	lui	a3,0x2000c
20003baa:	2000c737          	lui	a4,0x2000c
20003bae:	e7482403          	lw	s0,-396(a6) # 2000be74 <__clz_tab+0x130>
20003bb2:	e7852503          	lw	a0,-392(a0) # 2000be78 <__clz_tab+0x134>
20003bb6:	e7c5a583          	lw	a1,-388(a1) # 2000be7c <__clz_tab+0x138>
20003bba:	e846a683          	lw	a3,-380(a3) # 2000be84 <__clz_tab+0x140>
20003bbe:	e8872703          	lw	a4,-376(a4) # 2000be88 <__clz_tab+0x144>
20003bc2:	2000c8b7          	lui	a7,0x2000c
20003bc6:	2000c637          	lui	a2,0x2000c
20003bca:	e708ab83          	lw	s7,-400(a7) # 2000be70 <__clz_tab+0x12c>
20003bce:	e8062b03          	lw	s6,-384(a2) # 2000be80 <__clz_tab+0x13c>
20003bd2:	c83e                	sw	a5,16(sp)
20003bd4:	2000b937          	lui	s2,0x2000b
20003bd8:	2000b7b7          	lui	a5,0x2000b
20003bdc:	ca22                	sw	s0,20(sp)
20003bde:	cc2a                	sw	a0,24(sp)
20003be0:	ce2e                	sw	a1,28(sp)
20003be2:	d036                	sw	a3,32(sp)
20003be4:	d23a                	sw	a4,36(sp)
20003be6:	55878d93          	addi	s11,a5,1368 # 2000b558 <gm_col>
20003bea:	54090913          	addi	s2,s2,1344 # 2000b540 <gm_row>
20003bee:	2000cab7          	lui	s5,0x2000c
20003bf2:	000dc503          	lbu	a0,0(s11)
20003bf6:	0d85                	addi	s11,s11,1
20003bf8:	555060ef          	jal	2000a94c <__floatsisf>
20003bfc:	85de                	mv	a1,s7
20003bfe:	7c6010ef          	jal	200053c4 <__mulsf3>
20003c02:	84aa                	mv	s1,a0
20003c04:	00094503          	lbu	a0,0(s2)
20003c08:	545060ef          	jal	2000a94c <__floatsisf>
20003c0c:	85de                	mv	a1,s7
20003c0e:	7b6010ef          	jal	200053c4 <__mulsf3>
20003c12:	45c2                	lw	a1,16(sp)
20003c14:	842a                	mv	s0,a0
20003c16:	8526                	mv	a0,s1
20003c18:	7ac010ef          	jal	200053c4 <__mulsf3>
20003c1c:	85d2                	mv	a1,s4
20003c1e:	656010ef          	jal	20005274 <__addsf3>
20003c22:	213030ef          	jal	20007634 <sinf>
20003c26:	45d2                	lw	a1,20(sp)
20003c28:	8caa                	mv	s9,a0
20003c2a:	8522                	mv	a0,s0
20003c2c:	798010ef          	jal	200053c4 <__mulsf3>
20003c30:	55a2                	lw	a1,40(sp)
20003c32:	63e010ef          	jal	20005270 <__subsf3>
20003c36:	1ff030ef          	jal	20007634 <sinf>
20003c3a:	85a2                	mv	a1,s0
20003c3c:	8d2a                	mv	s10,a0
20003c3e:	8526                	mv	a0,s1
20003c40:	634010ef          	jal	20005274 <__addsf3>
20003c44:	45e2                	lw	a1,24(sp)
20003c46:	77e010ef          	jal	200053c4 <__mulsf3>
20003c4a:	55b2                	lw	a1,44(sp)
20003c4c:	628010ef          	jal	20005274 <__addsf3>
20003c50:	1e5030ef          	jal	20007634 <sinf>
20003c54:	85a6                	mv	a1,s1
20003c56:	c62a                	sw	a0,12(sp)
20003c58:	8526                	mv	a0,s1
20003c5a:	76a010ef          	jal	200053c4 <__mulsf3>
20003c5e:	85a2                	mv	a1,s0
20003c60:	84aa                	mv	s1,a0
20003c62:	8522                	mv	a0,s0
20003c64:	760010ef          	jal	200053c4 <__mulsf3>
20003c68:	85aa                	mv	a1,a0
20003c6a:	8526                	mv	a0,s1
20003c6c:	608010ef          	jal	20005274 <__addsf3>
20003c70:	171030ef          	jal	200075e0 <sqrtf>
20003c74:	45f2                	lw	a1,28(sp)
20003c76:	74e010ef          	jal	200053c4 <__mulsf3>
20003c7a:	842a                	mv	s0,a0
20003c7c:	85da                	mv	a1,s6
20003c7e:	8552                	mv	a0,s4
20003c80:	744010ef          	jal	200053c4 <__mulsf3>
20003c84:	85aa                	mv	a1,a0
20003c86:	8522                	mv	a0,s0
20003c88:	5e8010ef          	jal	20005270 <__subsf3>
20003c8c:	1a9030ef          	jal	20007634 <sinf>
20003c90:	842a                	mv	s0,a0
20003c92:	85ea                	mv	a1,s10
20003c94:	8566                	mv	a0,s9
20003c96:	5de010ef          	jal	20005274 <__addsf3>
20003c9a:	45b2                	lw	a1,12(sp)
20003c9c:	5d8010ef          	jal	20005274 <__addsf3>
20003ca0:	85a2                	mv	a1,s0
20003ca2:	5d2010ef          	jal	20005274 <__addsf3>
20003ca6:	5582                	lw	a1,32(sp)
20003ca8:	842a                	mv	s0,a0
20003caa:	5ca010ef          	jal	20005274 <__addsf3>
20003cae:	5592                	lw	a1,36(sp)
20003cb0:	714010ef          	jal	200053c4 <__mulsf3>
20003cb4:	3ed060ef          	jal	2000a8a0 <__fixsfsi>
20003cb8:	00a98023          	sb	a0,0(s3)
20003cbc:	85da                	mv	a1,s6
20003cbe:	8522                	mv	a0,s0
20003cc0:	704010ef          	jal	200053c4 <__mulsf3>
20003cc4:	e8caa583          	lw	a1,-372(s5) # 2000be8c <__clz_tab+0x148>
20003cc8:	842a                	mv	s0,a0
20003cca:	8552                	mv	a0,s4
20003ccc:	6f8010ef          	jal	200053c4 <__mulsf3>
20003cd0:	85aa                	mv	a1,a0
20003cd2:	8522                	mv	a0,s0
20003cd4:	5a0010ef          	jal	20005274 <__addsf3>
20003cd8:	15d030ef          	jal	20007634 <sinf>
20003cdc:	e8caa583          	lw	a1,-372(s5)
20003ce0:	6e4010ef          	jal	200053c4 <__mulsf3>
20003ce4:	e8caa583          	lw	a1,-372(s5)
20003ce8:	58c010ef          	jal	20005274 <__addsf3>
20003cec:	2000c7b7          	lui	a5,0x2000c
20003cf0:	e907a583          	lw	a1,-368(a5) # 2000be90 <__clz_tab+0x14c>
20003cf4:	6d0010ef          	jal	200053c4 <__mulsf3>
20003cf8:	3a9060ef          	jal	2000a8a0 <__fixsfsi>
20003cfc:	4701                	li	a4,0
20003cfe:	00054663          	bltz	a0,20003d0a <field_compute+0x1b6>
20003d02:	0ff00713          	li	a4,255
20003d06:	0aa74733          	min	a4,a4,a0
20003d0a:	2000b7b7          	lui	a5,0x2000b
20003d0e:	00ec0023          	sb	a4,0(s8)
20003d12:	57078793          	addi	a5,a5,1392 # 2000b570 <gfx_sin_q>
20003d16:	0905                	addi	s2,s2,1
20003d18:	0985                	addi	s3,s3,1
20003d1a:	0c05                	addi	s8,s8,1
20003d1c:	edb79be3          	bne	a5,s11,20003bf2 <field_compute+0x9e>
20003d20:	50b6                	lw	ra,108(sp)
20003d22:	5426                	lw	s0,104(sp)
20003d24:	5496                	lw	s1,100(sp)
20003d26:	5906                	lw	s2,96(sp)
20003d28:	49f6                	lw	s3,92(sp)
20003d2a:	4a66                	lw	s4,88(sp)
20003d2c:	4ad6                	lw	s5,84(sp)
20003d2e:	4b46                	lw	s6,80(sp)
20003d30:	4bb6                	lw	s7,76(sp)
20003d32:	4c26                	lw	s8,72(sp)
20003d34:	4c96                	lw	s9,68(sp)
20003d36:	4d06                	lw	s10,64(sp)
20003d38:	5df2                	lw	s11,60(sp)
20003d3a:	6165                	addi	sp,sp,112
20003d3c:	8082                	ret

20003d3e <field_core1_entry>:
20003d3e:	1101                	addi	sp,sp,-32
20003d40:	2000c7b7          	lui	a5,0x2000c
20003d44:	c256                	sw	s5,4(sp)
20003d46:	e947aa83          	lw	s5,-364(a5) # 2000be94 <__clz_tab+0x150>
20003d4a:	c64e                	sw	s3,12(sp)
20003d4c:	c452                	sw	s4,8(sp)
20003d4e:	2000c9b7          	lui	s3,0x2000c
20003d52:	2000ca37          	lui	s4,0x2000c
20003d56:	ca26                	sw	s1,20(sp)
20003d58:	c84a                	sw	s2,16(sp)
20003d5a:	c05a                	sw	s6,0(sp)
20003d5c:	ce06                	sw	ra,28(sp)
20003d5e:	cc22                	sw	s0,24(sp)
20003d60:	644a0a13          	addi	s4,s4,1604 # 2000c644 <fbuf_v>
20003d64:	61498993          	addi	s3,s3,1556 # 2000c614 <fbuf_h>
20003d68:	4485                	li	s1,1
20003d6a:	763000ef          	jal	20004ccc <time_us_64>
20003d6e:	4ff060ef          	jal	2000aa6c <__floatundisf>
20003d72:	85d6                	mv	a1,s5
20003d74:	40900433          	neg	s0,s1
20003d78:	64c010ef          	jal	200053c4 <__mulsf3>
20003d7c:	8861                	andi	s0,s0,24
20003d7e:	862a                	mv	a2,a0
20003d80:	008a05b3          	add	a1,s4,s0
20003d84:	00898533          	add	a0,s3,s0
20003d88:	33f1                	jal	20003b54 <field_compute>
20003d8a:	8291a623          	sw	s1,-2004(gp) # 2000c7b8 <fpub>
20003d8e:	8281a783          	lw	a5,-2008(gp) # 2000c7b4 <fcount>
20003d92:	0014c493          	xori	s1,s1,1
20003d96:	0785                	addi	a5,a5,1
20003d98:	82f1a423          	sw	a5,-2008(gp) # 2000c7b4 <fcount>
20003d9c:	b7f9                	j	20003d6a <field_core1_entry+0x2c>

20003d9e <gpio_set_function>:
20003d9e:	400387b7          	lui	a5,0x40038
20003da2:	0791                	addi	a5,a5,4 # 40038004 <__StackTop+0x1ffb6004>
20003da4:	20f547b3          	sh2add	a5,a0,a5
20003da8:	4398                	lw	a4,0(a5)
20003daa:	6685                	lui	a3,0x1
20003dac:	96be                	add	a3,a3,a5
20003dae:	04074713          	xori	a4,a4,64
20003db2:	0c077713          	andi	a4,a4,192
20003db6:	40028637          	lui	a2,0x40028
20003dba:	c298                	sw	a4,0(a3)
20003dbc:	20c56533          	sh3add	a0,a0,a2
20003dc0:	670d                	lui	a4,0x3
20003dc2:	97ba                	add	a5,a5,a4
20003dc4:	c14c                	sw	a1,4(a0)
20003dc6:	10000713          	li	a4,256
20003dca:	c398                	sw	a4,0(a5)
20003dcc:	8082                	ret

20003dce <panic>:
20003dce:	7139                	addi	sp,sp,-64
20003dd0:	2000b337          	lui	t1,0x2000b
20003dd4:	cc22                	sw	s0,24(sp)
20003dd6:	842a                	mv	s0,a0
20003dd8:	0d830513          	addi	a0,t1,216 # 2000b0d8 <strcmp+0x454>
20003ddc:	ce06                	sw	ra,28(sp)
20003dde:	d22e                	sw	a1,36(sp)
20003de0:	d432                	sw	a2,40(sp)
20003de2:	d636                	sw	a3,44(sp)
20003de4:	d83a                	sw	a4,48(sp)
20003de6:	da3e                	sw	a5,52(sp)
20003de8:	dc42                	sw	a6,56(sp)
20003dea:	de46                	sw	a7,60(sp)
20003dec:	170030ef          	jal	20006f5c <__wrap_puts>
20003df0:	cc01                	beqz	s0,20003e08 <panic+0x3a>
20003df2:	104c                	addi	a1,sp,36
20003df4:	8522                	mv	a0,s0
20003df6:	c62e                	sw	a1,12(sp)
20003df8:	635020ef          	jal	20006c2c <weak_raw_vprintf>
20003dfc:	2000b537          	lui	a0,0x2000b
20003e00:	04450513          	addi	a0,a0,68 # 2000b044 <strcmp+0x3c0>
20003e04:	158030ef          	jal	20006f5c <__wrap_puts>
20003e08:	4505                	li	a0,1
20003e0a:	671020ef          	jal	20006c7a <_exit>

20003e0e <hw_claim_lock>:
20003e0e:	30047573          	csrrci	a0,mstatus,8
20003e12:	2000c7b7          	lui	a5,0x2000c
20003e16:	4ab78793          	addi	a5,a5,1195 # 2000c4ab <_sw_spin_locks+0xb>
20003e1a:	00379713          	slli	a4,a5,0x3
20003e1e:	28e01733          	bset	a4,zero,a4
20003e22:	9bf1                	andi	a5,a5,-4
20003e24:	44e7a6af          	amoor.w.aq	a3,a4,(a5)
20003e28:	8ef9                	and	a3,a3,a4
20003e2a:	feed                	bnez	a3,20003e24 <hw_claim_lock+0x16>
20003e2c:	0330000f          	fence	rw,rw
20003e30:	8082                	ret

20003e32 <hw_claim_unlock>:
20003e32:	0330000f          	fence	rw,rw
20003e36:	2000c7b7          	lui	a5,0x2000c
20003e3a:	4a078793          	addi	a5,a5,1184 # 2000c4a0 <_sw_spin_locks>
20003e3e:	000785a3          	sb	zero,11(a5)
20003e42:	8921                	andi	a0,a0,8
20003e44:	30052073          	csrs	mstatus,a0
20003e48:	8082                	ret

20003e4a <hw_claim_or_assert>:
20003e4a:	300476f3          	csrrci	a3,mstatus,8
20003e4e:	2000c7b7          	lui	a5,0x2000c
20003e52:	4ab78793          	addi	a5,a5,1195 # 2000c4ab <_sw_spin_locks+0xb>
20003e56:	00379713          	slli	a4,a5,0x3
20003e5a:	28e01733          	bset	a4,zero,a4
20003e5e:	9bf1                	andi	a5,a5,-4
20003e60:	44e7a82f          	amoor.w.aq	a6,a4,(a5)
20003e64:	00e87833          	and	a6,a6,a4
20003e68:	fe081ce3          	bnez	a6,20003e60 <hw_claim_or_assert+0x16>
20003e6c:	0330000f          	fence	rw,rw
20003e70:	0035d793          	srli	a5,a1,0x3
20003e74:	953e                	add	a0,a0,a5
20003e76:	00054703          	lbu	a4,0(a0)
20003e7a:	0075f793          	andi	a5,a1,7
20003e7e:	28f017b3          	bset	a5,zero,a5
20003e82:	00f77833          	and	a6,a4,a5
20003e86:	02081163          	bnez	a6,20003ea8 <hw_claim_or_assert+0x5e>
20003e8a:	8f5d                	or	a4,a4,a5
20003e8c:	00e50023          	sb	a4,0(a0)
20003e90:	0330000f          	fence	rw,rw
20003e94:	2000c7b7          	lui	a5,0x2000c
20003e98:	4a078793          	addi	a5,a5,1184 # 2000c4a0 <_sw_spin_locks>
20003e9c:	000785a3          	sb	zero,11(a5)
20003ea0:	8aa1                	andi	a3,a3,8
20003ea2:	3006a073          	csrs	mstatus,a3
20003ea6:	8082                	ret
20003ea8:	1141                	addi	sp,sp,-16
20003eaa:	8532                	mv	a0,a2
20003eac:	c606                	sw	ra,12(sp)
20003eae:	3705                	jal	20003dce <panic>

20003eb0 <hw_claim_unused_from_range>:
20003eb0:	30047e73          	csrrci	t3,mstatus,8
20003eb4:	2000c7b7          	lui	a5,0x2000c
20003eb8:	4ab78793          	addi	a5,a5,1195 # 2000c4ab <_sw_spin_locks+0xb>
20003ebc:	00379813          	slli	a6,a5,0x3
20003ec0:	29001833          	bset	a6,zero,a6
20003ec4:	9bf1                	andi	a5,a5,-4
20003ec6:	4507a8af          	amoor.w.aq	a7,a6,(a5)
20003eca:	0108f8b3          	and	a7,a7,a6
20003ece:	fe089ce3          	bnez	a7,20003ec6 <hw_claim_unused_from_range+0x16>
20003ed2:	0330000f          	fence	rw,rw
20003ed6:	00c6f663          	bgeu	a3,a2,20003ee2 <hw_claim_unused_from_range+0x32>
20003eda:	a815                	j	20003f0e <hw_claim_unused_from_range+0x5e>
20003edc:	0605                	addi	a2,a2,1 # 40028001 <__StackTop+0x1ffa6001>
20003ede:	02c6e863          	bltu	a3,a2,20003f0e <hw_claim_unused_from_range+0x5e>
20003ee2:	00365793          	srli	a5,a2,0x3
20003ee6:	97aa                	add	a5,a5,a0
20003ee8:	0007c883          	lbu	a7,0(a5)
20003eec:	00767813          	andi	a6,a2,7
20003ef0:	29001833          	bset	a6,zero,a6
20003ef4:	0108f333          	and	t1,a7,a6
20003ef8:	fe0312e3          	bnez	t1,20003edc <hw_claim_unused_from_range+0x2c>
20003efc:	0108e8b3          	or	a7,a7,a6
20003f00:	01f65693          	srli	a3,a2,0x1f
20003f04:	8532                	mv	a0,a2
20003f06:	01178023          	sb	a7,0(a5)
20003f0a:	8df5                	and	a1,a1,a3
20003f0c:	a011                	j	20003f10 <hw_claim_unused_from_range+0x60>
20003f0e:	557d                	li	a0,-1
20003f10:	0330000f          	fence	rw,rw
20003f14:	2000c7b7          	lui	a5,0x2000c
20003f18:	4a078793          	addi	a5,a5,1184 # 2000c4a0 <_sw_spin_locks>
20003f1c:	000785a3          	sb	zero,11(a5)
20003f20:	008e7e13          	andi	t3,t3,8
20003f24:	300e2073          	csrs	mstatus,t3
20003f28:	e191                	bnez	a1,20003f2c <hw_claim_unused_from_range+0x7c>
20003f2a:	8082                	ret
20003f2c:	1141                	addi	sp,sp,-16
20003f2e:	853a                	mv	a0,a4
20003f30:	c606                	sw	ra,12(sp)
20003f32:	3d71                	jal	20003dce <panic>

20003f34 <next_striped_spin_lock_num>:
20003f34:	2000c737          	lui	a4,0x2000c
20003f38:	19974503          	lbu	a0,409(a4) # 2000c199 <striped_spin_lock_num>
20003f3c:	46dd                	li	a3,23
20003f3e:	00150793          	addi	a5,a0,1
20003f42:	0ff7f793          	zext.b	a5,a5
20003f46:	00f6f363          	bgeu	a3,a5,20003f4c <next_striped_spin_lock_num+0x18>
20003f4a:	47c1                	li	a5,16
20003f4c:	18f70ca3          	sb	a5,409(a4)
20003f50:	8082                	ret

20003f52 <spin_locks_reset>:
20003f52:	2000c6b7          	lui	a3,0x2000c
20003f56:	4a068693          	addi	a3,a3,1184 # 2000c4a0 <_sw_spin_locks>
20003f5a:	4781                	li	a5,0
20003f5c:	02000613          	li	a2,32
20003f60:	0330000f          	fence	rw,rw
20003f64:	00f68733          	add	a4,a3,a5
20003f68:	00070023          	sb	zero,0(a4)
20003f6c:	0785                	addi	a5,a5,1
20003f6e:	fec799e3          	bne	a5,a2,20003f60 <spin_locks_reset+0xe>
20003f72:	8082                	ret

20003f74 <runtime_init_per_core_irq_priorities>:
20003f74:	4681                	li	a3,0
20003f76:	483d                	li	a6,15
20003f78:	451d                	li	a0,7
20003f7a:	03400593          	li	a1,52
20003f7e:	0036f793          	andi	a5,a3,3
20003f82:	078a                	slli	a5,a5,0x2
20003f84:	00f81733          	sll	a4,a6,a5
20003f88:	0026d613          	srli	a2,a3,0x2
20003f8c:	0742                	slli	a4,a4,0x10
20003f8e:	8f51                	or	a4,a4,a2
20003f90:	be373073          	csrc	0xbe3,a4
20003f94:	00f517b3          	sll	a5,a0,a5
20003f98:	07c2                	slli	a5,a5,0x10
20003f9a:	8fd1                	or	a5,a5,a2
20003f9c:	be37a073          	csrs	0xbe3,a5
20003fa0:	0685                	addi	a3,a3,1
20003fa2:	fcb69ee3          	bne	a3,a1,20003f7e <runtime_init_per_core_irq_priorities+0xa>
20003fa6:	30046073          	csrsi	mstatus,8
20003faa:	8082                	ret

20003fac <irq_set_enabled>:
20003fac:	00555793          	srli	a5,a0,0x5
20003fb0:	0786                	slli	a5,a5,0x1
20003fb2:	28a01533          	bset	a0,zero,a0
20003fb6:	76c1                	lui	a3,0xffff0
20003fb8:	8ee9                	and	a3,a3,a0
20003fba:	00178713          	addi	a4,a5,1
20003fbe:	0542                	slli	a0,a0,0x10
20003fc0:	8f55                	or	a4,a4,a3
20003fc2:	8d5d                	or	a0,a0,a5
20003fc4:	c991                	beqz	a1,20003fd8 <irq_set_enabled+0x2c>
20003fc6:	be253073          	csrc	0xbe2,a0
20003fca:	be273073          	csrc	0xbe2,a4
20003fce:	be052073          	csrs	0xbe0,a0
20003fd2:	be072073          	csrs	0xbe0,a4
20003fd6:	8082                	ret
20003fd8:	be053073          	csrc	0xbe0,a0
20003fdc:	be073073          	csrc	0xbe0,a4
20003fe0:	8082                	ret

20003fe2 <irq_is_enabled>:
20003fe2:	00455793          	srli	a5,a0,0x4
20003fe6:	be07a7f3          	csrrs	a5,0xbe0,a5
20003fea:	83c1                	srli	a5,a5,0x10
20003fec:	893d                	andi	a0,a0,15
20003fee:	48a7d533          	bext	a0,a5,a0
20003ff2:	8082                	ret

20003ff4 <irq_set_exclusive_handler>:
20003ff4:	1101                	addi	sp,sp,-32
20003ff6:	ce06                	sw	ra,28(sp)
20003ff8:	30047773          	csrrci	a4,mstatus,8
20003ffc:	2000c7b7          	lui	a5,0x2000c
20004000:	4a978793          	addi	a5,a5,1193 # 2000c4a9 <_sw_spin_locks+0x9>
20004004:	00379693          	slli	a3,a5,0x3
20004008:	28d016b3          	bset	a3,zero,a3
2000400c:	9bf1                	andi	a5,a5,-4
2000400e:	44d7a62f          	amoor.w.aq	a2,a3,(a5)
20004012:	8e75                	and	a2,a2,a3
20004014:	fe6d                	bnez	a2,2000400e <irq_set_exclusive_handler+0x1a>
20004016:	0330000f          	fence	rw,rw
2000401a:	305027f3          	csrr	a5,mtvec
2000401e:	03450513          	addi	a0,a0,52
20004022:	9bf1                	andi	a5,a5,-4
20004024:	20f547b3          	sh2add	a5,a0,a5
20004028:	4394                	lw	a3,0(a5)
2000402a:	02d58063          	beq	a1,a3,2000404a <irq_set_exclusive_handler+0x56>
2000402e:	200007b7          	lui	a5,0x20000
20004032:	1a478793          	addi	a5,a5,420 # 200001a4 <__unhandled_user_irq>
20004036:	00f68a63          	beq	a3,a5,2000404a <irq_set_exclusive_handler+0x56>
2000403a:	c62e                	sw	a1,12(sp)
2000403c:	c42a                	sw	a0,8(sp)
2000403e:	c23a                	sw	a4,4(sp)
20004040:	044010ef          	jal	20005084 <hard_assertion_failure>
20004044:	45b2                	lw	a1,12(sp)
20004046:	4522                	lw	a0,8(sp)
20004048:	4712                	lw	a4,4(sp)
2000404a:	305027f3          	csrr	a5,mtvec
2000404e:	9bf1                	andi	a5,a5,-4
20004050:	20f54533          	sh2add	a0,a0,a5
20004054:	c10c                	sw	a1,0(a0)
20004056:	0330000f          	fence	rw,rw
2000405a:	0330000f          	fence	rw,rw
2000405e:	2000c7b7          	lui	a5,0x2000c
20004062:	4a078793          	addi	a5,a5,1184 # 2000c4a0 <_sw_spin_locks>
20004066:	000784a3          	sb	zero,9(a5)
2000406a:	8b21                	andi	a4,a4,8
2000406c:	30072073          	csrs	mstatus,a4
20004070:	40f2                	lw	ra,28(sp)
20004072:	6105                	addi	sp,sp,32
20004074:	8082                	ret

20004076 <irq_remove_handler>:
20004076:	7179                	addi	sp,sp,-48
20004078:	d606                	sw	ra,44(sp)
2000407a:	30047e73          	csrrci	t3,mstatus,8
2000407e:	2000c7b7          	lui	a5,0x2000c
20004082:	4a978793          	addi	a5,a5,1193 # 2000c4a9 <_sw_spin_locks+0x9>
20004086:	00379713          	slli	a4,a5,0x3
2000408a:	28e01733          	bset	a4,zero,a4
2000408e:	9bf1                	andi	a5,a5,-4
20004090:	44e7a6af          	amoor.w.aq	a3,a4,(a5)
20004094:	8ef9                	and	a3,a3,a4
20004096:	feed                	bnez	a3,20004090 <irq_remove_handler+0x1a>
20004098:	0330000f          	fence	rw,rw
2000409c:	305027f3          	csrr	a5,mtvec
200040a0:	9bf1                	andi	a5,a5,-4
200040a2:	03450f93          	addi	t6,a0,52
200040a6:	20ffc7b3          	sh2add	a5,t6,a5
200040aa:	0007a803          	lw	a6,0(a5)
200040ae:	20000737          	lui	a4,0x20000
200040b2:	1a470e93          	addi	t4,a4,420 # 200001a4 <__unhandled_user_irq>
200040b6:	0bd80063          	beq	a6,t4,20004156 <irq_remove_handler+0xe0>
200040ba:	08b80e63          	beq	a6,a1,20004156 <irq_remove_handler+0xe0>
200040be:	2000cf37          	lui	t5,0x2000c
200040c2:	ff8f0f13          	addi	t5,t5,-8 # 2000bff8 <__data_start__>
200040c6:	41e80733          	sub	a4,a6,t5
200040ca:	02f00793          	li	a5,47
200040ce:	08e7e563          	bltu	a5,a4,20004158 <irq_remove_handler+0xe2>
200040d2:	d422                	sw	s0,40(sp)
200040d4:	00455793          	srli	a5,a0,0x4
200040d8:	be07a7f3          	csrrs	a5,0xbe0,a5
200040dc:	00f57293          	andi	t0,a0,15
200040e0:	28a01733          	bset	a4,zero,a0
200040e4:	00555893          	srli	a7,a0,0x5
200040e8:	83c1                	srli	a5,a5,0x10
200040ea:	01071393          	slli	t2,a4,0x10
200040ee:	0886                	slli	a7,a7,0x1
200040f0:	285012b3          	bset	t0,zero,t0
200040f4:	00f2f2b3          	and	t0,t0,a5
200040f8:	0113e3b3          	or	t2,t2,a7
200040fc:	be03b073          	csrc	0xbe0,t2
20004100:	77c1                	lui	a5,0xffff0
20004102:	8f7d                	and	a4,a4,a5
20004104:	0885                	addi	a7,a7,1
20004106:	00e8e8b3          	or	a7,a7,a4
2000410a:	be08b073          	csrc	0xbe0,a7
2000410e:	0330000f          	fence	rw,rw
20004112:	be5027f3          	csrr	a5,0xbe5
20004116:	01079713          	slli	a4,a5,0x10
2000411a:	4401                	li	s0,0
2000411c:	1c075063          	bgez	a4,200042dc <irq_remove_handler+0x266>
20004120:	87c2                	mv	a5,a6
20004122:	4301                	li	t1,0
20004124:	4398                	lw	a4,0(a5)
20004126:	43d4                	lw	a3,4(a5)
20004128:	00877613          	andi	a2,a4,8
2000412c:	80077713          	andi	a4,a4,-2048
20004130:	48b71713          	bclri	a4,a4,0xb
20004134:	4146d513          	srai	a0,a3,0x14
20004138:	e219                	bnez	a2,2000413e <irq_remove_handler+0xc8>
2000413a:	00a706b3          	add	a3,a4,a0
2000413e:	04d58563          	beq	a1,a3,20004188 <irq_remove_handler+0x112>
20004142:	00a78703          	lb	a4,10(a5) # ffff000a <__StackTop+0xdff6e00a>
20004146:	833e                	mv	t1,a5
20004148:	20e727b3          	sh1add	a5,a4,a4
2000414c:	16074c63          	bltz	a4,200042c4 <irq_remove_handler+0x24e>
20004150:	21e7c7b3          	sh2add	a5,a5,t5
20004154:	bfc1                	j	20004124 <irq_remove_handler+0xae>
20004156:	8876                	mv	a6,t4
20004158:	305027f3          	csrr	a5,mtvec
2000415c:	9bf1                	andi	a5,a5,-4
2000415e:	20ffc7b3          	sh2add	a5,t6,a5
20004162:	0107a023          	sw	a6,0(a5)
20004166:	0330000f          	fence	rw,rw
2000416a:	0330000f          	fence	rw,rw
2000416e:	2000c7b7          	lui	a5,0x2000c
20004172:	4a078793          	addi	a5,a5,1184 # 2000c4a0 <_sw_spin_locks>
20004176:	000784a3          	sb	zero,9(a5)
2000417a:	008e7793          	andi	a5,t3,8
2000417e:	3007a073          	csrs	mstatus,a5
20004182:	50b2                	lw	ra,44(sp)
20004184:	6145                	addi	sp,sp,48
20004186:	8082                	ret
20004188:	00a78603          	lb	a2,10(a5)
2000418c:	18064e63          	bltz	a2,20004328 <irq_remove_handler+0x2b2>
20004190:	20c62733          	sh1add	a4,a2,a2
20004194:	21e74733          	sh2add	a4,a4,t5
20004198:	4314                	lw	a3,0(a4)
2000419a:	4358                	lw	a4,4(a4)
2000419c:	0086f593          	andi	a1,a3,8
200041a0:	e599                	bnez	a1,200041ae <irq_remove_handler+0x138>
200041a2:	8006f693          	andi	a3,a3,-2048
200041a6:	48b69693          	bclri	a3,a3,0xb
200041aa:	8751                	srai	a4,a4,0x14
200041ac:	9736                	add	a4,a4,a3
200041ae:	03078363          	beq	a5,a6,200041d4 <irq_remove_handler+0x15e>
200041b2:	00171693          	slli	a3,a4,0x1
200041b6:	6585                	lui	a1,0x1
200041b8:	8eed                	and	a3,a3,a1
200041ba:	96ba                	add	a3,a3,a4
200041bc:	8006f693          	andi	a3,a3,-2048
200041c0:	48b69693          	bclri	a3,a3,0xb
200041c4:	0752                	slli	a4,a4,0x14
200041c6:	0b76e693          	ori	a3,a3,183
200041ca:	0e776713          	ori	a4,a4,231
200041ce:	c394                	sw	a3,0(a5)
200041d0:	28f71713          	bseti	a4,a4,0xf
200041d4:	20c626b3          	sh1add	a3,a2,a2
200041d8:	21e6c533          	sh2add	a0,a3,t5
200041dc:	00b54303          	lbu	t1,11(a0)
200041e0:	00269593          	slli	a1,a3,0x2
200041e4:	c3d8                	sw	a4,4(a5)
200041e6:	006785a3          	sb	t1,11(a5)
200041ea:	00a50683          	lb	a3,10(a0)
200041ee:	6731                	lui	a4,0xc
200041f0:	e4270713          	addi	a4,a4,-446 # be42 <HeapSize+0xb642>
200041f4:	00d78523          	sb	a3,10(a5)
200041f8:	0a06ca63          	bltz	a3,200042ac <irq_remove_handler+0x236>
200041fc:	00855683          	lhu	a3,8(a0)
20004200:	05a1                	addi	a1,a1,8 # 1008 <HeapSize+0x808>
20004202:	95fa                	add	a1,a1,t5
20004204:	0016d513          	srli	a0,a3,0x1
20004208:	00369713          	slli	a4,a3,0x3
2000420c:	04057313          	andi	t1,a0,64
20004210:	02077713          	andi	a4,a4,32
20004214:	00676733          	or	a4,a4,t1
20004218:	00878313          	addi	t1,a5,8
2000421c:	40670733          	sub	a4,a4,t1
20004220:	00169313          	slli	t1,a3,0x1
20004224:	08037313          	andi	t1,t1,128
20004228:	30057513          	andi	a0,a0,768
2000422c:	971a                	add	a4,a4,t1
2000422e:	00269313          	slli	t1,a3,0x2
20004232:	972a                	add	a4,a4,a0
20004234:	40037313          	andi	t1,t1,1024
20004238:	0026d513          	srli	a0,a3,0x2
2000423c:	829d                	srli	a3,a3,0x7
2000423e:	971a                	add	a4,a4,t1
20004240:	8ac1                	andi	a3,a3,16
20004242:	00e57313          	andi	t1,a0,14
20004246:	0066e6b3          	or	a3,a3,t1
2000424a:	9736                	add	a4,a4,a3
2000424c:	28b01313          	bseti	t1,zero,0xb
20004250:	972e                	add	a4,a4,a1
20004252:	00657533          	and	a0,a0,t1
20004256:	8f09                	sub	a4,a4,a0
20004258:	00171693          	slli	a3,a4,0x1
2000425c:	6585                	lui	a1,0x1
2000425e:	8eed                	and	a3,a3,a1
20004260:	00375593          	srli	a1,a4,0x3
20004264:	00771513          	slli	a0,a4,0x7
20004268:	8991                	andi	a1,a1,4
2000426a:	00657533          	and	a0,a0,t1
2000426e:	8ecd                	or	a3,a3,a1
20004270:	00171593          	slli	a1,a4,0x1
20004274:	8ec9                	or	a3,a3,a0
20004276:	6005f593          	andi	a1,a1,1536
2000427a:	00275513          	srli	a0,a4,0x2
2000427e:	8ecd                	or	a3,a3,a1
20004280:	10057513          	andi	a0,a0,256
20004284:	00171593          	slli	a1,a4,0x1
20004288:	8ec9                	or	a3,a3,a0
2000428a:	0805f593          	andi	a1,a1,128
2000428e:	00175513          	srli	a0,a4,0x1
20004292:	8ecd                	or	a3,a3,a1
20004294:	04057513          	andi	a0,a0,64
20004298:	00271593          	slli	a1,a4,0x2
2000429c:	00a6e733          	or	a4,a3,a0
200042a0:	0385f693          	andi	a3,a1,56
200042a4:	8f55                	or	a4,a4,a3
200042a6:	76e9                	lui	a3,0xffffa
200042a8:	0685                	addi	a3,a3,1 # ffffa001 <__StackTop+0xdff78001>
200042aa:	8f55                	or	a4,a4,a3
200042ac:	8301c503          	lbu	a0,-2000(gp) # 2000c7bc <irq_handler_chain_free_slot_head>
200042b0:	20c626b3          	sh1add	a3,a2,a2
200042b4:	00e79423          	sh	a4,8(a5)
200042b8:	21e6c7b3          	sh2add	a5,a3,t5
200042bc:	82c18823          	sb	a2,-2000(gp) # 2000c7bc <irq_handler_chain_free_slot_head>
200042c0:	00a78523          	sb	a0,10(a5)
200042c4:	04028c63          	beqz	t0,2000431c <irq_remove_handler+0x2a6>
200042c8:	be23b073          	csrc	0xbe2,t2
200042cc:	be28b073          	csrc	0xbe2,a7
200042d0:	be03a073          	csrs	0xbe0,t2
200042d4:	be08a073          	csrs	0xbe0,a7
200042d8:	5422                	lw	s0,40(sp)
200042da:	bdbd                	j	20004158 <irq_remove_handler+0xe2>
200042dc:	8391                	srli	a5,a5,0x4
200042de:	1ff7f793          	andi	a5,a5,511
200042e2:	03478413          	addi	s0,a5,52
200042e6:	e2f50de3          	beq	a0,a5,20004120 <irq_remove_handler+0xaa>
200042ea:	ce2e                	sw	a1,28(sp)
200042ec:	cc7e                	sw	t6,24(sp)
200042ee:	ca72                	sw	t3,20(sp)
200042f0:	c846                	sw	a7,16(sp)
200042f2:	c61e                	sw	t2,12(sp)
200042f4:	c416                	sw	t0,8(sp)
200042f6:	c242                	sw	a6,4(sp)
200042f8:	58d000ef          	jal	20005084 <hard_assertion_failure>
200042fc:	200007b7          	lui	a5,0x20000
20004300:	1a478e93          	addi	t4,a5,420 # 200001a4 <__unhandled_user_irq>
20004304:	2000c7b7          	lui	a5,0x2000c
20004308:	4812                	lw	a6,4(sp)
2000430a:	42a2                	lw	t0,8(sp)
2000430c:	43b2                	lw	t2,12(sp)
2000430e:	48c2                	lw	a7,16(sp)
20004310:	4e52                	lw	t3,20(sp)
20004312:	4fe2                	lw	t6,24(sp)
20004314:	45f2                	lw	a1,28(sp)
20004316:	ff878f13          	addi	t5,a5,-8 # 2000bff8 <__data_start__>
2000431a:	b519                	j	20004120 <irq_remove_handler+0xaa>
2000431c:	be03b073          	csrc	0xbe0,t2
20004320:	be08b073          	csrc	0xbe0,a7
20004324:	5422                	lw	s0,40(sp)
20004326:	bd0d                	j	20004158 <irq_remove_handler+0xe2>
20004328:	ec0d                	bnez	s0,20004362 <irq_remove_handler+0x2ec>
2000432a:	0a030263          	beqz	t1,200043ce <irq_remove_handler+0x358>
2000432e:	7771                	lui	a4,0xffffc
20004330:	e4270713          	addi	a4,a4,-446 # ffffbe42 <__StackTop+0xdff79e42>
20004334:	56fd                	li	a3,-1
20004336:	00e31423          	sh	a4,8(t1)
2000433a:	00d30523          	sb	a3,10(t1)
2000433e:	41e78733          	sub	a4,a5,t5
20004342:	aaaab6b7          	lui	a3,0xaaaab
20004346:	aab68693          	addi	a3,a3,-1365 # aaaaaaab <__StackTop+0x8aa28aab>
2000434a:	8709                	srai	a4,a4,0x2
2000434c:	02d70733          	mul	a4,a4,a3
20004350:	8301c603          	lbu	a2,-2000(gp) # 2000c7bc <irq_handler_chain_free_slot_head>
20004354:	00c78523          	sb	a2,10(a5)
20004358:	82e18823          	sb	a4,-2000(gp) # 2000c7bc <irq_handler_chain_free_slot_head>
2000435c:	fc0280e3          	beqz	t0,2000431c <irq_remove_handler+0x2a6>
20004360:	b7a5                	j	200042c8 <irq_remove_handler+0x252>
20004362:	2000c6b7          	lui	a3,0x2000c
20004366:	00878713          	addi	a4,a5,8
2000436a:	03468693          	addi	a3,a3,52 # 2000c034 <irq_handler_chain_remove_tail>
2000436e:	8e99                	sub	a3,a3,a4
20004370:	00169713          	slli	a4,a3,0x1
20004374:	6605                	lui	a2,0x1
20004376:	8f71                	and	a4,a4,a2
20004378:	0036d613          	srli	a2,a3,0x3
2000437c:	8a11                	andi	a2,a2,4
2000437e:	8f51                	or	a4,a4,a2
20004380:	28b01593          	bseti	a1,zero,0xb
20004384:	00769613          	slli	a2,a3,0x7
20004388:	8e6d                	and	a2,a2,a1
2000438a:	00169593          	slli	a1,a3,0x1
2000438e:	8f51                	or	a4,a4,a2
20004390:	6005f593          	andi	a1,a1,1536
20004394:	0026d613          	srli	a2,a3,0x2
20004398:	8f4d                	or	a4,a4,a1
2000439a:	10067613          	andi	a2,a2,256
2000439e:	00169593          	slli	a1,a3,0x1
200043a2:	8f51                	or	a4,a4,a2
200043a4:	0805f593          	andi	a1,a1,128
200043a8:	0016d613          	srli	a2,a3,0x1
200043ac:	8f4d                	or	a4,a4,a1
200043ae:	04067613          	andi	a2,a2,64
200043b2:	068a                	slli	a3,a3,0x2
200043b4:	8f51                	or	a4,a4,a2
200043b6:	0386f693          	andi	a3,a3,56
200043ba:	8f55                	or	a4,a4,a3
200043bc:	00176713          	ori	a4,a4,1
200043c0:	28d71713          	bseti	a4,a4,0xd
200043c4:	00e79423          	sh	a4,8(a5)
200043c8:	f4028ae3          	beqz	t0,2000431c <irq_remove_handler+0x2a6>
200043cc:	bdf5                	j	200042c8 <irq_remove_handler+0x252>
200043ce:	8876                	mv	a6,t4
200043d0:	b7bd                	j	2000433e <irq_remove_handler+0x2c8>

200043d2 <irq_add_tail_to_free_list>:
200043d2:	be5027f3          	csrr	a5,0xbe5
200043d6:	01079713          	slli	a4,a5,0x10
200043da:	4581                	li	a1,0
200043dc:	00074963          	bltz	a4,200043ee <irq_add_tail_to_free_list+0x1c>
200043e0:	8391                	srli	a5,a5,0x4
200043e2:	1ff7f793          	andi	a5,a5,511
200043e6:	03478793          	addi	a5,a5,52
200043ea:	00279593          	slli	a1,a5,0x2
200043ee:	30047673          	csrrci	a2,mstatus,8
200043f2:	2000c7b7          	lui	a5,0x2000c
200043f6:	4a978793          	addi	a5,a5,1193 # 2000c4a9 <_sw_spin_locks+0x9>
200043fa:	00379713          	slli	a4,a5,0x3
200043fe:	28e01733          	bset	a4,zero,a4
20004402:	9bf1                	andi	a5,a5,-4
20004404:	44e7a6af          	amoor.w.aq	a3,a4,(a5)
20004408:	8ef9                	and	a3,a3,a4
2000440a:	feed                	bnez	a3,20004404 <irq_add_tail_to_free_list+0x32>
2000440c:	0330000f          	fence	rw,rw
20004410:	2000c737          	lui	a4,0x2000c
20004414:	ff870713          	addi	a4,a4,-8 # 2000bff8 <__data_start__>
20004418:	40e507b3          	sub	a5,a0,a4
2000441c:	aaaab6b7          	lui	a3,0xaaaab
20004420:	aab68693          	addi	a3,a3,-1365 # aaaaaaab <__StackTop+0x8aa28aab>
20004424:	8789                	srai	a5,a5,0x2
20004426:	02d787b3          	mul	a5,a5,a3
2000442a:	60479793          	sext.b	a5,a5
2000442e:	305026f3          	csrr	a3,mtvec
20004432:	9af1                	andi	a3,a3,-4
20004434:	96ae                	add	a3,a3,a1
20004436:	4294                	lw	a3,0(a3)
20004438:	04a68463          	beq	a3,a0,20004480 <irq_add_tail_to_free_list+0xae>
2000443c:	00a70683          	lb	a3,10(a4)
20004440:	04f68a63          	beq	a3,a5,20004494 <irq_add_tail_to_free_list+0xc2>
20004444:	01670683          	lb	a3,22(a4)
20004448:	06f68463          	beq	a3,a5,200044b0 <irq_add_tail_to_free_list+0xde>
2000444c:	02270683          	lb	a3,34(a4)
20004450:	06f68263          	beq	a3,a5,200044b4 <irq_add_tail_to_free_list+0xe2>
20004454:	02e70683          	lb	a3,46(a4)
20004458:	06f68063          	beq	a3,a5,200044b8 <irq_add_tail_to_free_list+0xe6>
2000445c:	8301c683          	lbu	a3,-2000(gp) # 2000c7bc <irq_handler_chain_free_slot_head>
20004460:	82f18823          	sb	a5,-2000(gp) # 2000c7bc <irq_handler_chain_free_slot_head>
20004464:	00d50523          	sb	a3,10(a0)
20004468:	0330000f          	fence	rw,rw
2000446c:	2000c7b7          	lui	a5,0x2000c
20004470:	4a078793          	addi	a5,a5,1184 # 2000c4a0 <_sw_spin_locks>
20004474:	000784a3          	sb	zero,9(a5)
20004478:	8a21                	andi	a2,a2,8
2000447a:	30062073          	csrs	mstatus,a2
2000447e:	8082                	ret
20004480:	30502773          	csrr	a4,mtvec
20004484:	200006b7          	lui	a3,0x20000
20004488:	9b71                	andi	a4,a4,-4
2000448a:	972e                	add	a4,a4,a1
2000448c:	1a468693          	addi	a3,a3,420 # 200001a4 <__unhandled_user_irq>
20004490:	c314                	sw	a3,0(a4)
20004492:	b7e9                	j	2000445c <irq_add_tail_to_free_list+0x8a>
20004494:	4681                	li	a3,0
20004496:	20d6a6b3          	sh1add	a3,a3,a3
2000449a:	20e6c6b3          	sh2add	a3,a3,a4
2000449e:	7771                	lui	a4,0xffffc
200044a0:	587d                	li	a6,-1
200044a2:	e4270713          	addi	a4,a4,-446 # ffffbe42 <__StackTop+0xdff79e42>
200044a6:	01068523          	sb	a6,10(a3)
200044aa:	00e69423          	sh	a4,8(a3)
200044ae:	b77d                	j	2000445c <irq_add_tail_to_free_list+0x8a>
200044b0:	4685                	li	a3,1
200044b2:	b7d5                	j	20004496 <irq_add_tail_to_free_list+0xc4>
200044b4:	4689                	li	a3,2
200044b6:	b7c5                	j	20004496 <irq_add_tail_to_free_list+0xc4>
200044b8:	468d                	li	a3,3
200044ba:	bff1                	j	20004496 <irq_add_tail_to_free_list+0xc4>

200044bc <lock_init>:
200044bc:	2000c7b7          	lui	a5,0x2000c
200044c0:	4a078793          	addi	a5,a5,1184 # 2000c4a0 <_sw_spin_locks>
200044c4:	97ae                	add	a5,a5,a1
200044c6:	c11c                	sw	a5,0(a0)
200044c8:	8082                	ret

200044ca <runtime_init_mutex>:
200044ca:	1101                	addi	sp,sp,-32
200044cc:	cc22                	sw	s0,24(sp)
200044ce:	ca26                	sw	s1,20(sp)
200044d0:	2000c437          	lui	s0,0x2000c
200044d4:	2000c4b7          	lui	s1,0x2000c
200044d8:	ce06                	sw	ra,28(sp)
200044da:	1a040413          	addi	s0,s0,416 # 2000c1a0 <malloc_mutex>
200044de:	1b048493          	addi	s1,s1,432 # 2000c1b0 <__pre_init_runtime_init_bootrom_reset>
200044e2:	02947763          	bgeu	s0,s1,20004510 <runtime_init_mutex+0x46>
200044e6:	c84a                	sw	s2,16(sp)
200044e8:	c64e                	sw	s3,12(sp)
200044ea:	0ff00913          	li	s2,255
200044ee:	59fd                	li	s3,-1
200044f0:	401c                	lw	a5,0(s0)
200044f2:	c785                	beqz	a5,2000451a <runtime_init_mutex+0x50>
200044f4:	a41ff0ef          	jal	20003f34 <next_striped_spin_lock_num>
200044f8:	85aa                	mv	a1,a0
200044fa:	8522                	mv	a0,s0
200044fc:	37c1                	jal	200044bc <lock_init>
200044fe:	01241223          	sh	s2,4(s0)
20004502:	0330000f          	fence	rw,rw
20004506:	0421                	addi	s0,s0,8
20004508:	fe9464e3          	bltu	s0,s1,200044f0 <runtime_init_mutex+0x26>
2000450c:	4942                	lw	s2,16(sp)
2000450e:	49b2                	lw	s3,12(sp)
20004510:	40f2                	lw	ra,28(sp)
20004512:	4462                	lw	s0,24(sp)
20004514:	44d2                	lw	s1,20(sp)
20004516:	6105                	addi	sp,sp,32
20004518:	8082                	ret
2000451a:	a1bff0ef          	jal	20003f34 <next_striped_spin_lock_num>
2000451e:	85aa                	mv	a1,a0
20004520:	8522                	mv	a0,s0
20004522:	3f69                	jal	200044bc <lock_init>
20004524:	01340223          	sb	s3,4(s0)
20004528:	0330000f          	fence	rw,rw
2000452c:	0421                	addi	s0,s0,8
2000452e:	fc9461e3          	bltu	s0,s1,200044f0 <runtime_init_mutex+0x26>
20004532:	bfe9                	j	2000450c <runtime_init_mutex+0x42>

20004534 <sleep_until_callback>:
20004534:	8341a783          	lw	a5,-1996(gp) # 2000c7c0 <sleep_notifier>
20004538:	30047773          	csrrci	a4,mstatus,8
2000453c:	00379613          	slli	a2,a5,0x3
20004540:	28c01633          	bset	a2,zero,a2
20004544:	9bf1                	andi	a5,a5,-4
20004546:	44c7a5af          	amoor.w.aq	a1,a2,(a5)
2000454a:	8df1                	and	a1,a1,a2
2000454c:	fded                	bnez	a1,20004546 <sleep_until_callback+0x12>
2000454e:	0330000f          	fence	rw,rw
20004552:	8341a783          	lw	a5,-1996(gp) # 2000c7c0 <sleep_notifier>
20004556:	0330000f          	fence	rw,rw
2000455a:	00078023          	sb	zero,0(a5)
2000455e:	00877793          	andi	a5,a4,8
20004562:	3007a073          	csrs	mstatus,a5
20004566:	00102033          	sgtz	zero,ra
2000456a:	4501                	li	a0,0
2000456c:	4581                	li	a1,0
2000456e:	8082                	ret

20004570 <alarm_pool_irq_handler>:
20004570:	7139                	addi	sp,sp,-64
20004572:	de06                	sw	ra,60(sp)
20004574:	dc22                	sw	s0,56(sp)
20004576:	da26                	sw	s1,52(sp)
20004578:	d84a                	sw	s2,48(sp)
2000457a:	d64e                	sw	s3,44(sp)
2000457c:	d452                	sw	s4,40(sp)
2000457e:	d256                	sw	s5,36(sp)
20004580:	d05a                	sw	s6,32(sp)
20004582:	ce5e                	sw	s7,28(sp)
20004584:	cc62                	sw	s8,24(sp)
20004586:	ca66                	sw	s9,20(sp)
20004588:	c86a                	sw	s10,16(sp)
2000458a:	be5027f3          	csrr	a5,0xbe5
2000458e:	01079713          	slli	a4,a5,0x10
20004592:	32074763          	bltz	a4,200048c0 <alarm_pool_irq_handler+0x350>
20004596:	0047d913          	srli	s2,a5,0x4
2000459a:	1fc97793          	andi	a5,s2,508
2000459e:	00397913          	andi	s2,s2,3
200045a2:	292019b3          	bset	s3,zero,s2
200045a6:	400b0bb7          	lui	s7,0x400b0
200045aa:	34079763          	bnez	a5,200048f8 <alarm_pool_irq_handler+0x388>
200045ae:	2000c737          	lui	a4,0x2000c
200045b2:	2127c7b3          	sh2add	a5,a5,s2
200045b6:	6dc70713          	addi	a4,a4,1756 # 2000c6dc <pools>
200045ba:	20e7c7b3          	sh2add	a5,a5,a4
200045be:	0007aa83          	lw	s5,0(a5)
200045c2:	678d                	lui	a5,0x3
200045c4:	04478793          	addi	a5,a5,68 # 3044 <HeapSize+0x2844>
200045c8:	97de                	add	a5,a5,s7
200045ca:	20004a37          	lui	s4,0x20004
200045ce:	0137a023          	sw	s3,0(a5)
200045d2:	570a0a13          	addi	s4,s4,1392 # 20004570 <alarm_pool_irq_handler>
200045d6:	547d                	li	s0,-1
200045d8:	54fd                	li	s1,-1
200045da:	008a9b03          	lh	s6,8(s5)
200045de:	033bae23          	sw	s3,60(s7) # 400b003c <__StackTop+0x2002e03c>
200045e2:	080b5763          	bgez	s6,20004670 <alarm_pool_irq_handler+0x100>
200045e6:	004ad783          	lhu	a5,4(s5)
200045ea:	60579793          	sext.h	a5,a5
200045ee:	1407dc63          	bgez	a5,20004746 <alarm_pool_irq_handler+0x1d6>
200045f2:	006ac783          	lbu	a5,6(s5)
200045f6:	1e079563          	bnez	a5,200047e0 <alarm_pool_irq_handler+0x270>
200045fa:	008a9b03          	lh	s6,8(s5)
200045fe:	040b4663          	bltz	s6,2000464a <alarm_pool_irq_handler+0xda>
20004602:	014aa703          	lw	a4,20(s5)
20004606:	216b2b33          	sh1add	s6,s6,s6
2000460a:	57fd                	li	a5,-1
2000460c:	20eb6b33          	sh3add	s6,s6,a4
20004610:	008b2c03          	lw	s8,8(s6)
20004614:	00cb2b03          	lw	s6,12(s6)
20004618:	2afc0163          	beq	s8,a5,200048ba <alarm_pool_irq_handler+0x34a>
2000461c:	217946b3          	sh2add	a3,s2,s7
20004620:	028ba703          	lw	a4,40(s7)
20004624:	4a9c                	lw	a5,16(a3)
20004626:	40ec0633          	sub	a2,s8,a4
2000462a:	8f99                	sub	a5,a5,a4
2000462c:	02f66f63          	bltu	a2,a5,2000466a <alarm_pool_irq_handler+0xfa>
20004630:	020ba783          	lw	a5,32(s7)
20004634:	4927d7b3          	bext	a5,a5,s2
20004638:	cb8d                	beqz	a5,2000466a <alarm_pool_irq_handler+0xfa>
2000463a:	855e                	mv	a0,s7
2000463c:	2541                	jal	20004cbc <timer_time_us_64>
2000463e:	0165c663          	blt	a1,s6,2000464a <alarm_pool_irq_handler+0xda>
20004642:	f8bb1ce3          	bne	s6,a1,200045da <alarm_pool_irq_handler+0x6a>
20004646:	f9857ae3          	bgeu	a0,s8,200045da <alarm_pool_irq_handler+0x6a>
2000464a:	00102033          	sgtz	zero,ra
2000464e:	50f2                	lw	ra,60(sp)
20004650:	5462                	lw	s0,56(sp)
20004652:	54d2                	lw	s1,52(sp)
20004654:	5942                	lw	s2,48(sp)
20004656:	59b2                	lw	s3,44(sp)
20004658:	5a22                	lw	s4,40(sp)
2000465a:	5a92                	lw	s5,36(sp)
2000465c:	5b02                	lw	s6,32(sp)
2000465e:	4bf2                	lw	s7,28(sp)
20004660:	4c62                	lw	s8,24(sp)
20004662:	4cd2                	lw	s9,20(sp)
20004664:	4d42                	lw	s10,16(sp)
20004666:	6121                	addi	sp,sp,64
20004668:	8082                	ret
2000466a:	0186a823          	sw	s8,16(a3)
2000466e:	b7f1                	j	2000463a <alarm_pool_irq_handler+0xca>
20004670:	014aa783          	lw	a5,20(s5)
20004674:	216b2c33          	sh1add	s8,s6,s6
20004678:	855e                	mv	a0,s7
2000467a:	20fc6c33          	sh3add	s8,s8,a5
2000467e:	00cc2c83          	lw	s9,12(s8)
20004682:	008c2d03          	lw	s10,8(s8)
20004686:	2d1d                	jal	20004cbc <timer_time_us_64>
20004688:	f595cfe3          	blt	a1,s9,200045e6 <alarm_pool_irq_handler+0x76>
2000468c:	1cbc8363          	beq	s9,a1,20004852 <alarm_pool_irq_handler+0x2e2>
20004690:	1c0cc563          	bltz	s9,2000485a <alarm_pool_irq_handler+0x2ea>
20004694:	010c2783          	lw	a5,16(s8)
20004698:	014c2583          	lw	a1,20(s8)
2000469c:	25478563          	beq	a5,s4,200048e6 <alarm_pool_irq_handler+0x376>
200046a0:	008a9703          	lh	a4,8(s5)
200046a4:	002c5503          	lhu	a0,2(s8)
200046a8:	0742                	slli	a4,a4,0x10
200046aa:	8d59                	or	a0,a0,a4
200046ac:	9782                	jalr	a5
200046ae:	872e                	mv	a4,a1
200046b0:	87aa                	mv	a5,a0
200046b2:	00e7e6b3          	or	a3,a5,a4
200046b6:	1a068263          	beqz	a3,2000485a <alarm_pool_irq_handler+0x2ea>
200046ba:	20075963          	bgez	a4,200048cc <alarm_pool_irq_handler+0x35c>
200046be:	40fd06b3          	sub	a3,s10,a5
200046c2:	00dd3d33          	sltu	s10,s10,a3
200046c6:	40ec87b3          	sub	a5,s9,a4
200046ca:	41a787b3          	sub	a5,a5,s10
200046ce:	000c1703          	lh	a4,0(s8)
200046d2:	00dc2423          	sw	a3,8(s8)
200046d6:	00fc2623          	sw	a5,12(s8)
200046da:	f00746e3          	bltz	a4,200045e6 <alarm_pool_irq_handler+0x76>
200046de:	014aa803          	lw	a6,20(s5)
200046e2:	20e72533          	sh1add	a0,a4,a4
200046e6:	00171613          	slli	a2,a4,0x1
200046ea:	21056533          	sh3add	a0,a0,a6
200046ee:	454c                	lw	a1,12(a0)
200046f0:	00852883          	lw	a7,8(a0)
200046f4:	eeb7c9e3          	blt	a5,a1,200045e6 <alarm_pool_irq_handler+0x76>
200046f8:	00f59463          	bne	a1,a5,20004700 <alarm_pool_irq_handler+0x190>
200046fc:	ef16e5e3          	bltu	a3,a7,200045e6 <alarm_pool_irq_handler+0x76>
20004700:	00ea9423          	sh	a4,8(s5)
20004704:	008a8513          	addi	a0,s5,8
20004708:	a031                	j	20004714 <alarm_pool_irq_handler+0x1a4>
2000470a:	00862883          	lw	a7,8(a2) # 1008 <HeapSize+0x808>
2000470e:	464c                	lw	a1,12(a2)
20004710:	00171613          	slli	a2,a4,0x1
20004714:	963a                	add	a2,a2,a4
20004716:	00b7ce63          	blt	a5,a1,20004732 <alarm_pool_irq_handler+0x1c2>
2000471a:	1ef58363          	beq	a1,a5,20004900 <alarm_pool_irq_handler+0x390>
2000471e:	21066533          	sh3add	a0,a2,a6
20004722:	00051703          	lh	a4,0(a0)
20004726:	20e72633          	sh1add	a2,a4,a4
2000472a:	21066633          	sh3add	a2,a2,a6
2000472e:	fc075ee3          	bgez	a4,2000470a <alarm_pool_irq_handler+0x19a>
20004732:	00ec1023          	sh	a4,0(s8)
20004736:	01651023          	sh	s6,0(a0)
2000473a:	004ad783          	lhu	a5,4(s5)
2000473e:	60579793          	sext.h	a5,a5
20004742:	ea07c8e3          	bltz	a5,200045f2 <alarm_pool_irq_handler+0x82>
20004746:	010aa783          	lw	a5,16(s5)
2000474a:	30047773          	csrrci	a4,mstatus,8
2000474e:	00379693          	slli	a3,a5,0x3
20004752:	28d016b3          	bset	a3,zero,a3
20004756:	9bf1                	andi	a5,a5,-4
20004758:	44d7a62f          	amoor.w.aq	a2,a3,(a5)
2000475c:	8e75                	and	a2,a2,a3
2000475e:	fe6d                	bnez	a2,20004758 <alarm_pool_irq_handler+0x1e8>
20004760:	0330000f          	fence	rw,rw
20004764:	004ad883          	lhu	a7,4(s5)
20004768:	57fd                	li	a5,-1
2000476a:	00fa9223          	sh	a5,4(s5)
2000476e:	60589893          	sext.h	a7,a7
20004772:	010aa783          	lw	a5,16(s5)
20004776:	0330000f          	fence	rw,rw
2000477a:	00078023          	sb	zero,0(a5)
2000477e:	00877793          	andi	a5,a4,8
20004782:	3007a073          	csrs	mstatus,a5
20004786:	e608c6e3          	bltz	a7,200045f2 <alarm_pool_irq_handler+0x82>
2000478a:	014aa503          	lw	a0,20(s5)
2000478e:	008a9703          	lh	a4,8(s5)
20004792:	2118a833          	sh1add	a6,a7,a7
20004796:	20a86833          	sh3add	a6,a6,a0
2000479a:	008a8593          	addi	a1,s5,8
2000479e:	02074563          	bltz	a4,200047c8 <alarm_pool_irq_handler+0x258>
200047a2:	00882303          	lw	t1,8(a6)
200047a6:	00c82603          	lw	a2,12(a6)
200047aa:	a801                	j	200047ba <alarm_pool_irq_handler+0x24a>
200047ac:	0ec68b63          	beq	a3,a2,200048a2 <alarm_pool_irq_handler+0x332>
200047b0:	00079703          	lh	a4,0(a5)
200047b4:	85be                	mv	a1,a5
200047b6:	00074963          	bltz	a4,200047c8 <alarm_pool_irq_handler+0x258>
200047ba:	20e727b3          	sh1add	a5,a4,a4
200047be:	20a7e7b3          	sh3add	a5,a5,a0
200047c2:	47d4                	lw	a3,12(a5)
200047c4:	fed654e3          	bge	a2,a3,200047ac <alarm_pool_irq_handler+0x23c>
200047c8:	01159023          	sh	a7,0(a1) # 1000 <HeapSize+0x800>
200047cc:	00081883          	lh	a7,0(a6)
200047d0:	00e81023          	sh	a4,0(a6)
200047d4:	fa08dde3          	bgez	a7,2000478e <alarm_pool_irq_handler+0x21e>
200047d8:	006ac783          	lbu	a5,6(s5)
200047dc:	e0078fe3          	beqz	a5,200045fa <alarm_pool_irq_handler+0x8a>
200047e0:	000a8323          	sb	zero,6(s5)
200047e4:	008a9b03          	lh	s6,8(s5)
200047e8:	55fd                	li	a1,-1
200047ea:	875a                	mv	a4,s6
200047ec:	e4bb0fe3          	beq	s6,a1,2000464a <alarm_pool_irq_handler+0xda>
200047f0:	014aa503          	lw	a0,20(s5)
200047f4:	20e727b3          	sh1add	a5,a4,a4
200047f8:	863a                	mv	a2,a4
200047fa:	20a7e7b3          	sh3add	a5,a5,a0
200047fe:	0027d683          	lhu	a3,2(a5)
20004802:	00079703          	lh	a4,0(a5)
20004806:	008a8813          	addi	a6,s5,8
2000480a:	60569693          	sext.h	a3,a3
2000480e:	0206c263          	bltz	a3,20004832 <alarm_pool_irq_handler+0x2c2>
20004812:	883e                	mv	a6,a5
20004814:	deb705e3          	beq	a4,a1,200045fe <alarm_pool_irq_handler+0x8e>
20004818:	20e727b3          	sh1add	a5,a4,a4
2000481c:	20a7e7b3          	sh3add	a5,a5,a0
20004820:	0027d683          	lhu	a3,2(a5)
20004824:	863a                	mv	a2,a4
20004826:	00079703          	lh	a4,0(a5)
2000482a:	60569693          	sext.h	a3,a3
2000482e:	fe06d2e3          	bgez	a3,20004812 <alarm_pool_irq_handler+0x2a2>
20004832:	c780                	sw	s0,8(a5)
20004834:	c7c4                	sw	s1,12(a5)
20004836:	fccb0fe3          	beq	s6,a2,20004814 <alarm_pool_irq_handler+0x2a4>
2000483a:	00e81023          	sh	a4,0(a6)
2000483e:	008ad683          	lhu	a3,8(s5)
20004842:	8b32                	mv	s6,a2
20004844:	00d79023          	sh	a3,0(a5)
20004848:	00ca9423          	sh	a2,8(s5)
2000484c:	fcb716e3          	bne	a4,a1,20004818 <alarm_pool_irq_handler+0x2a8>
20004850:	b37d                	j	200045fe <alarm_pool_irq_handler+0x8e>
20004852:	d9a56ae3          	bltu	a0,s10,200045e6 <alarm_pool_irq_handler+0x76>
20004856:	e20cdfe3          	bgez	s9,20004694 <alarm_pool_irq_handler+0x124>
2000485a:	000c5703          	lhu	a4,0(s8)
2000485e:	010aa783          	lw	a5,16(s5)
20004862:	00ea9423          	sh	a4,8(s5)
20004866:	30047773          	csrrci	a4,mstatus,8
2000486a:	00379693          	slli	a3,a5,0x3
2000486e:	28d016b3          	bset	a3,zero,a3
20004872:	9bf1                	andi	a5,a5,-4
20004874:	44d7a62f          	amoor.w.aq	a2,a3,(a5)
20004878:	8e75                	and	a2,a2,a3
2000487a:	fe6d                	bnez	a2,20004874 <alarm_pool_irq_handler+0x304>
2000487c:	0330000f          	fence	rw,rw
20004880:	002ad683          	lhu	a3,2(s5)
20004884:	010aa783          	lw	a5,16(s5)
20004888:	00dc1023          	sh	a3,0(s8)
2000488c:	016a9123          	sh	s6,2(s5)
20004890:	0330000f          	fence	rw,rw
20004894:	00078023          	sb	zero,0(a5)
20004898:	00877793          	andi	a5,a4,8
2000489c:	3007a073          	csrs	mstatus,a5
200048a0:	b399                	j	200045e6 <alarm_pool_irq_handler+0x76>
200048a2:	4794                	lw	a3,8(a5)
200048a4:	f0d376e3          	bgeu	t1,a3,200047b0 <alarm_pool_irq_handler+0x240>
200048a8:	01159023          	sh	a7,0(a1)
200048ac:	00081883          	lh	a7,0(a6)
200048b0:	00e81023          	sh	a4,0(a6)
200048b4:	ec08dde3          	bgez	a7,2000478e <alarm_pool_irq_handler+0x21e>
200048b8:	b705                	j	200047d8 <alarm_pool_irq_handler+0x268>
200048ba:	d78b11e3          	bne	s6,s8,2000461c <alarm_pool_irq_handler+0xac>
200048be:	bbb5                	j	2000463a <alarm_pool_irq_handler+0xca>
200048c0:	4985                	li	s3,1
200048c2:	87ce                	mv	a5,s3
200048c4:	4901                	li	s2,0
200048c6:	400b8bb7          	lui	s7,0x400b8
200048ca:	b1d5                	j	200045ae <alarm_pool_irq_handler+0x3e>
200048cc:	855e                	mv	a0,s7
200048ce:	c63a                	sw	a4,12(sp)
200048d0:	c43e                	sw	a5,8(sp)
200048d2:	26ed                	jal	20004cbc <timer_time_us_64>
200048d4:	47a2                	lw	a5,8(sp)
200048d6:	4732                	lw	a4,12(sp)
200048d8:	00f506b3          	add	a3,a0,a5
200048dc:	00a6b7b3          	sltu	a5,a3,a0
200048e0:	95ba                	add	a1,a1,a4
200048e2:	97ae                	add	a5,a5,a1
200048e4:	b3ed                	j	200046ce <alarm_pool_irq_handler+0x15e>
200048e6:	499c                	lw	a5,16(a1)
200048e8:	852e                	mv	a0,a1
200048ea:	c42e                	sw	a1,8(sp)
200048ec:	9782                	jalr	a5
200048ee:	d535                	beqz	a0,2000485a <alarm_pool_irq_handler+0x2ea>
200048f0:	45a2                	lw	a1,8(sp)
200048f2:	419c                	lw	a5,0(a1)
200048f4:	41d8                	lw	a4,4(a1)
200048f6:	bb75                	j	200046b2 <alarm_pool_irq_handler+0x142>
200048f8:	4785                	li	a5,1
200048fa:	400b8bb7          	lui	s7,0x400b8
200048fe:	b945                	j	200045ae <alarm_pool_irq_handler+0x3e>
20004900:	e116ffe3          	bgeu	a3,a7,2000471e <alarm_pool_irq_handler+0x1ae>
20004904:	b53d                	j	20004732 <alarm_pool_irq_handler+0x1c2>

20004906 <runtime_init_default_alarm_pool>:
20004906:	2000c7b7          	lui	a5,0x2000c
2000490a:	04078793          	addi	a5,a5,64 # 2000c040 <default_alarm_pool>
2000490e:	4b98                	lw	a4,16(a5)
20004910:	c709                	beqz	a4,2000491a <runtime_init_default_alarm_pool+0x14>
20004912:	83418513          	addi	a0,gp,-1996 # 2000c7c0 <sleep_notifier>
20004916:	45a9                	li	a1,10
20004918:	b655                	j	200044bc <lock_init>
2000491a:	1141                	addi	sp,sp,-16
2000491c:	458d                	li	a1,3
2000491e:	400b0537          	lui	a0,0x400b0
20004922:	c606                	sw	ra,12(sp)
20004924:	c422                	sw	s0,8(sp)
20004926:	2ead                	jal	20004ca0 <timer_hardware_alarm_claim>
20004928:	2000c437          	lui	s0,0x2000c
2000492c:	04040793          	addi	a5,s0,64 # 2000c040 <default_alarm_pool>
20004930:	400b0837          	lui	a6,0x400b0
20004934:	0107a623          	sw	a6,12(a5)
20004938:	dfcff0ef          	jal	20003f34 <next_striped_spin_lock_num>
2000493c:	04040793          	addi	a5,s0,64
20004940:	85aa                	mv	a1,a0
20004942:	450d                	li	a0,3
20004944:	00a78023          	sb	a0,0(a5)
20004948:	d0000737          	lui	a4,0xd0000
2000494c:	00072303          	lw	t1,0(a4) # d0000000 <__StackTop+0xaff7e000>
20004950:	2000c6b7          	lui	a3,0x2000c
20004954:	4bd8                	lw	a4,20(a5)
20004956:	4a068693          	addi	a3,a3,1184 # 2000c4a0 <_sw_spin_locks>
2000495a:	00110637          	lui	a2,0x110
2000495e:	96ae                	add	a3,a3,a1
20004960:	167d                	addi	a2,a2,-1 # 10ffff <HeapSize+0x10f7ff>
20004962:	48bd                	li	a7,15
20004964:	cb94                	sw	a3,16(a5)
20004966:	006780a3          	sb	t1,1(a5)
2000496a:	c790                	sw	a2,8(a5)
2000496c:	01179123          	sh	a7,2(a5)
20004970:	55fd                	li	a1,-1
20004972:	4309                	li	t1,2
20004974:	4891                	li	a7,4
20004976:	4615                	li	a2,5
20004978:	4699                	li	a3,6
2000497a:	00b79223          	sh	a1,4(a5)
2000497e:	04671423          	sh	t1,72(a4)
20004982:	07171c23          	sh	a7,120(a4)
20004986:	08c71823          	sh	a2,144(a4)
2000498a:	0ad71423          	sh	a3,168(a4)
2000498e:	429d                	li	t0,7
20004990:	46a1                	li	a3,8
20004992:	4fa5                	li	t6,9
20004994:	4f29                	li	t5,10
20004996:	4ead                	li	t4,11
20004998:	4e31                	li	t3,12
2000499a:	4335                	li	t1,13
2000499c:	48b9                	li	a7,14
2000499e:	4605                	li	a2,1
200049a0:	0cd71c23          	sh	a3,216(a4)
200049a4:	06a71023          	sh	a0,96(a4)
200049a8:	0c571023          	sh	t0,192(a4)
200049ac:	0ff71823          	sh	t6,240(a4)
200049b0:	11e71423          	sh	t5,264(a4)
200049b4:	13d71023          	sh	t4,288(a4)
200049b8:	13c71c23          	sh	t3,312(a4)
200049bc:	14671823          	sh	t1,336(a4)
200049c0:	17171423          	sh	a7,360(a4)
200049c4:	00b71023          	sh	a1,0(a4)
200049c8:	02c71823          	sh	a2,48(a4)
200049cc:	00071c23          	sh	zero,24(a4)
200049d0:	400b0837          	lui	a6,0x400b0
200049d4:	200045b7          	lui	a1,0x20004
200049d8:	02d82023          	sw	a3,32(a6) # 400b0020 <__StackTop+0x2002e020>
200049dc:	2000c737          	lui	a4,0x2000c
200049e0:	57058593          	addi	a1,a1,1392 # 20004570 <alarm_pool_irq_handler>
200049e4:	6ef72423          	sw	a5,1768(a4) # 2000c6e8 <pools+0xc>
200049e8:	e0cff0ef          	jal	20003ff4 <irq_set_exclusive_handler>
200049ec:	4585                	li	a1,1
200049ee:	450d                	li	a0,3
200049f0:	dbcff0ef          	jal	20003fac <irq_set_enabled>
200049f4:	4422                	lw	s0,8(sp)
200049f6:	40b2                	lw	ra,12(sp)
200049f8:	400b27b7          	lui	a5,0x400b2
200049fc:	46a1                	li	a3,8
200049fe:	c3b4                	sw	a3,64(a5)
20004a00:	83418513          	addi	a0,gp,-1996 # 2000c7c0 <sleep_notifier>
20004a04:	45a9                	li	a1,10
20004a06:	0141                	addi	sp,sp,16
20004a08:	ab5ff06f          	j	200044bc <lock_init>

20004a0c <alarm_pool_add_alarm_at_force_in_context>:
20004a0c:	83b2                	mv	t2,a2
20004a0e:	87aa                	mv	a5,a0
20004a10:	4910                	lw	a2,16(a0)
20004a12:	832e                	mv	t1,a1
20004a14:	300475f3          	csrrci	a1,mstatus,8
20004a18:	00361513          	slli	a0,a2,0x3
20004a1c:	28a01533          	bset	a0,zero,a0
20004a20:	9a71                	andi	a2,a2,-4
20004a22:	44a6282f          	amoor.w.aq	a6,a0,(a2)
20004a26:	00a87833          	and	a6,a6,a0
20004a2a:	fe081ce3          	bnez	a6,20004a22 <alarm_pool_add_alarm_at_force_in_context+0x16>
20004a2e:	0330000f          	fence	rw,rw
20004a32:	00279883          	lh	a7,2(a5) # 400b2002 <__StackTop+0x20030002>
20004a36:	0085f613          	andi	a2,a1,8
20004a3a:	4b8c                	lw	a1,16(a5)
20004a3c:	0808ce63          	bltz	a7,20004ad8 <alarm_pool_add_alarm_at_force_in_context+0xcc>
20004a40:	4bc8                	lw	a0,20(a5)
20004a42:	2118a833          	sh1add	a6,a7,a7
20004a46:	20a86833          	sh3add	a6,a6,a0
20004a4a:	00085503          	lhu	a0,0(a6)
20004a4e:	00a79123          	sh	a0,2(a5)
20004a52:	0330000f          	fence	rw,rw
20004a56:	00058023          	sb	zero,0(a1)
20004a5a:	30062073          	csrs	mstatus,a2
20004a5e:	00285603          	lhu	a2,2(a6)
20004a62:	4585                	li	a1,1
20004a64:	01089513          	slli	a0,a7,0x10
20004a68:	962e                	add	a2,a2,a1
20004a6a:	0646                	slli	a2,a2,0x11
20004a6c:	8245                	srli	a2,a2,0x11
20004a6e:	0ab67633          	maxu	a2,a2,a1
20004a72:	00e82a23          	sw	a4,20(a6)
20004a76:	00d82823          	sw	a3,16(a6)
20004a7a:	00682423          	sw	t1,8(a6)
20004a7e:	00782623          	sw	t2,12(a6)
20004a82:	00c81123          	sh	a2,2(a6)
20004a86:	8d51                	or	a0,a0,a2
20004a88:	4b98                	lw	a4,16(a5)
20004a8a:	300476f3          	csrrci	a3,mstatus,8
20004a8e:	00371613          	slli	a2,a4,0x3
20004a92:	28c01633          	bset	a2,zero,a2
20004a96:	9b71                	andi	a4,a4,-4
20004a98:	44c725af          	amoor.w.aq	a1,a2,(a4)
20004a9c:	8df1                	and	a1,a1,a2
20004a9e:	fded                	bnez	a1,20004a98 <alarm_pool_add_alarm_at_force_in_context+0x8c>
20004aa0:	0330000f          	fence	rw,rw
20004aa4:	0047d603          	lhu	a2,4(a5)
20004aa8:	4b98                	lw	a4,16(a5)
20004aaa:	00c81023          	sh	a2,0(a6)
20004aae:	01179223          	sh	a7,4(a5)
20004ab2:	0330000f          	fence	rw,rw
20004ab6:	00070023          	sb	zero,0(a4)
20004aba:	0086f713          	andi	a4,a3,8
20004abe:	30072073          	csrs	mstatus,a4
20004ac2:	0007c703          	lbu	a4,0(a5)
20004ac6:	47dc                	lw	a5,12(a5)
20004ac8:	6689                	lui	a3,0x2
20004aca:	04468693          	addi	a3,a3,68 # 2044 <HeapSize+0x1844>
20004ace:	28e01733          	bset	a4,zero,a4
20004ad2:	97b6                	add	a5,a5,a3
20004ad4:	c398                	sw	a4,0(a5)
20004ad6:	8082                	ret
20004ad8:	0330000f          	fence	rw,rw
20004adc:	00058023          	sb	zero,0(a1)
20004ae0:	30062073          	csrs	mstatus,a2
20004ae4:	557d                	li	a0,-1
20004ae6:	8082                	ret

20004ae8 <alarm_pool_cancel_alarm>:
20004ae8:	00a55703          	lhu	a4,10(a0) # 400b000a <__StackTop+0x2002e00a>
20004aec:	4105d793          	srai	a5,a1,0x10
20004af0:	04e7d863          	bge	a5,a4,20004b40 <alarm_pool_cancel_alarm+0x58>
20004af4:	4954                	lw	a3,20(a0)
20004af6:	20f7a7b3          	sh1add	a5,a5,a5
20004afa:	4918                	lw	a4,16(a0)
20004afc:	20d7e7b3          	sh3add	a5,a5,a3
20004b00:	300476f3          	csrrci	a3,mstatus,8
20004b04:	00371613          	slli	a2,a4,0x3
20004b08:	28c01633          	bset	a2,zero,a2
20004b0c:	9b71                	andi	a4,a4,-4
20004b0e:	44c7282f          	amoor.w.aq	a6,a2,(a4)
20004b12:	00c87833          	and	a6,a6,a2
20004b16:	fe081ce3          	bnez	a6,20004b0e <alarm_pool_cancel_alarm+0x26>
20004b1a:	0330000f          	fence	rw,rw
20004b1e:	0027d603          	lhu	a2,2(a5)
20004b22:	0805c5b3          	zext.h	a1,a1
20004b26:	0086f713          	andi	a4,a3,8
20004b2a:	080646b3          	zext.h	a3,a2
20004b2e:	00b60b63          	beq	a2,a1,20004b44 <alarm_pool_cancel_alarm+0x5c>
20004b32:	491c                	lw	a5,16(a0)
20004b34:	0330000f          	fence	rw,rw
20004b38:	00078023          	sb	zero,0(a5)
20004b3c:	30072073          	csrs	mstatus,a4
20004b40:	4501                	li	a0,0
20004b42:	8082                	ret
20004b44:	7661                	lui	a2,0xffff8
20004b46:	8ed1                	or	a3,a3,a2
20004b48:	00d79123          	sh	a3,2(a5)
20004b4c:	4785                	li	a5,1
20004b4e:	00f50323          	sb	a5,6(a0)
20004b52:	4914                	lw	a3,16(a0)
20004b54:	0330000f          	fence	rw,rw
20004b58:	00068023          	sb	zero,0(a3)
20004b5c:	30072073          	csrs	mstatus,a4
20004b60:	00054683          	lbu	a3,0(a0)
20004b64:	4558                	lw	a4,12(a0)
20004b66:	6609                	lui	a2,0x2
20004b68:	04460613          	addi	a2,a2,68 # 2044 <HeapSize+0x1844>
20004b6c:	28d016b3          	bset	a3,zero,a3
20004b70:	9732                	add	a4,a4,a2
20004b72:	853e                	mv	a0,a5
20004b74:	c314                	sw	a3,0(a4)
20004b76:	8082                	ret

20004b78 <best_effort_wfe_or_timeout>:
20004b78:	be5027f3          	csrr	a5,0xbe5
20004b7c:	01079713          	slli	a4,a5,0x10
20004b80:	06075a63          	bgez	a4,20004bf4 <best_effort_wfe_or_timeout+0x7c>
20004b84:	2000c7b7          	lui	a5,0x2000c
20004b88:	1101                	addi	sp,sp,-32
20004b8a:	04078793          	addi	a5,a5,64 # 2000c040 <default_alarm_pool>
20004b8e:	47d8                	lw	a4,12(a5)
20004b90:	cc22                	sw	s0,24(sp)
20004b92:	ca26                	sw	s1,20(sp)
20004b94:	ce06                	sw	ra,28(sp)
20004b96:	0007c783          	lbu	a5,0(a5)
20004b9a:	84aa                	mv	s1,a0
20004b9c:	853a                	mv	a0,a4
20004b9e:	842e                	mv	s0,a1
20004ba0:	c63e                	sw	a5,12(sp)
20004ba2:	c43a                	sw	a4,8(sp)
20004ba4:	2a21                	jal	20004cbc <timer_time_us_64>
20004ba6:	4722                	lw	a4,8(sp)
20004ba8:	47b2                	lw	a5,12(sp)
20004baa:	40b405b3          	sub	a1,s0,a1
20004bae:	20e7c7b3          	sh2add	a5,a5,a4
20004bb2:	4b9c                	lw	a5,16(a5)
20004bb4:	40a48733          	sub	a4,s1,a0
20004bb8:	00e4b6b3          	sltu	a3,s1,a4
20004bbc:	8d95                	sub	a1,a1,a3
20004bbe:	8f89                	sub	a5,a5,a0
20004bc0:	0405cd63          	bltz	a1,20004c1a <best_effort_wfe_or_timeout+0xa2>
20004bc4:	c9a9                	beqz	a1,20004c16 <best_effort_wfe_or_timeout+0x9e>
20004bc6:	00002033          	sltz	zero,zero
20004bca:	400b06b7          	lui	a3,0x400b0
20004bce:	52d8                	lw	a4,36(a3)
20004bd0:	4781                	li	a5,0
20004bd2:	00876b63          	bltu	a4,s0,20004be8 <best_effort_wfe_or_timeout+0x70>
20004bd6:	569c                	lw	a5,40(a3)
20004bd8:	8f01                	sub	a4,a4,s0
20004bda:	00e03733          	snez	a4,a4
20004bde:	0097b7b3          	sltu	a5,a5,s1
20004be2:	0017b793          	seqz	a5,a5
20004be6:	8fd9                	or	a5,a5,a4
20004be8:	40f2                	lw	ra,28(sp)
20004bea:	4462                	lw	s0,24(sp)
20004bec:	44d2                	lw	s1,20(sp)
20004bee:	853e                	mv	a0,a5
20004bf0:	6105                	addi	sp,sp,32
20004bf2:	8082                	ret
20004bf4:	400b06b7          	lui	a3,0x400b0
20004bf8:	52d8                	lw	a4,36(a3)
20004bfa:	4781                	li	a5,0
20004bfc:	00b76b63          	bltu	a4,a1,20004c12 <best_effort_wfe_or_timeout+0x9a>
20004c00:	569c                	lw	a5,40(a3)
20004c02:	8f0d                	sub	a4,a4,a1
20004c04:	00e03733          	snez	a4,a4
20004c08:	00a7b7b3          	sltu	a5,a5,a0
20004c0c:	0017b793          	seqz	a5,a5
20004c10:	8fd9                	or	a5,a5,a4
20004c12:	853e                	mv	a0,a5
20004c14:	8082                	ret
20004c16:	faf778e3          	bgeu	a4,a5,20004bc6 <best_effort_wfe_or_timeout+0x4e>
20004c1a:	284d                	jal	20004ccc <time_us_64>
20004c1c:	40a48533          	sub	a0,s1,a0
20004c20:	00a4b533          	sltu	a0,s1,a0
20004c24:	40b405b3          	sub	a1,s0,a1
20004c28:	8d89                	sub	a1,a1,a0
20004c2a:	0405c763          	bltz	a1,20004c78 <best_effort_wfe_or_timeout+0x100>
20004c2e:	200046b7          	lui	a3,0x20004
20004c32:	2000c7b7          	lui	a5,0x2000c
20004c36:	53468693          	addi	a3,a3,1332 # 20004534 <sleep_until_callback>
20004c3a:	4701                	li	a4,0
20004c3c:	85a6                	mv	a1,s1
20004c3e:	8622                	mv	a2,s0
20004c40:	04078513          	addi	a0,a5,64 # 2000c040 <default_alarm_pool>
20004c44:	33e1                	jal	20004a0c <alarm_pool_add_alarm_at_force_in_context>
20004c46:	02a05963          	blez	a0,20004c78 <best_effort_wfe_or_timeout+0x100>
20004c4a:	400b0737          	lui	a4,0x400b0
20004c4e:	535c                	lw	a5,36(a4)
20004c50:	0287eb63          	bltu	a5,s0,20004c86 <best_effort_wfe_or_timeout+0x10e>
20004c54:	5718                	lw	a4,40(a4)
20004c56:	00879463          	bne	a5,s0,20004c5e <best_effort_wfe_or_timeout+0xe6>
20004c5a:	02976663          	bltu	a4,s1,20004c86 <best_effort_wfe_or_timeout+0x10e>
20004c5e:	2000c7b7          	lui	a5,0x2000c
20004c62:	85aa                	mv	a1,a0
20004c64:	04078513          	addi	a0,a5,64 # 2000c040 <default_alarm_pool>
20004c68:	3541                	jal	20004ae8 <alarm_pool_cancel_alarm>
20004c6a:	400b06b7          	lui	a3,0x400b0
20004c6e:	52d8                	lw	a4,36(a3)
20004c70:	4781                	li	a5,0
20004c72:	f6876be3          	bltu	a4,s0,20004be8 <best_effort_wfe_or_timeout+0x70>
20004c76:	b785                	j	20004bd6 <best_effort_wfe_or_timeout+0x5e>
20004c78:	400b0737          	lui	a4,0x400b0
20004c7c:	535c                	lw	a5,36(a4)
20004c7e:	0087f763          	bgeu	a5,s0,20004c8c <best_effort_wfe_or_timeout+0x114>
20004c82:	4781                	li	a5,0
20004c84:	b795                	j	20004be8 <best_effort_wfe_or_timeout+0x70>
20004c86:	00002033          	sltz	zero,zero
20004c8a:	bfd1                	j	20004c5e <best_effort_wfe_or_timeout+0xe6>
20004c8c:	5718                	lw	a4,40(a4)
20004c8e:	8f81                	sub	a5,a5,s0
20004c90:	00f037b3          	snez	a5,a5
20004c94:	00973733          	sltu	a4,a4,s1
20004c98:	00173713          	seqz	a4,a4
20004c9c:	8fd9                	or	a5,a5,a4
20004c9e:	b7a9                	j	20004be8 <best_effort_wfe_or_timeout+0x70>

20004ca0 <timer_hardware_alarm_claim>:
20004ca0:	bff487b7          	lui	a5,0xbff48
20004ca4:	97aa                	add	a5,a5,a0
20004ca6:	0017b793          	seqz	a5,a5
20004caa:	83818513          	addi	a0,gp,-1992 # 2000c7c4 <claimed>
20004cae:	2000b637          	lui	a2,0x2000b
20004cb2:	953e                	add	a0,a0,a5
20004cb4:	0e860613          	addi	a2,a2,232 # 2000b0e8 <strcmp+0x464>
20004cb8:	992ff06f          	j	20003e4a <hw_claim_or_assert>

20004cbc <timer_time_us_64>:
20004cbc:	514c                	lw	a1,36(a0)
20004cbe:	87aa                	mv	a5,a0
20004cc0:	5788                	lw	a0,40(a5)
20004cc2:	872e                	mv	a4,a1
20004cc4:	53cc                	lw	a1,36(a5)
20004cc6:	feb71de3          	bne	a4,a1,20004cc0 <timer_time_us_64+0x4>
20004cca:	8082                	ret

20004ccc <time_us_64>:
20004ccc:	400b07b7          	lui	a5,0x400b0
20004cd0:	53cc                	lw	a1,36(a5)
20004cd2:	5788                	lw	a0,40(a5)
20004cd4:	872e                	mv	a4,a1
20004cd6:	53cc                	lw	a1,36(a5)
20004cd8:	fee59de3          	bne	a1,a4,20004cd2 <time_us_64+0x6>
20004cdc:	8082                	ret

20004cde <busy_wait_us>:
20004cde:	400b0737          	lui	a4,0x400b0
20004ce2:	535c                	lw	a5,36(a4)
20004ce4:	02872803          	lw	a6,40(a4) # 400b0028 <__StackTop+0x2002e028>
20004ce8:	86be                	mv	a3,a5
20004cea:	535c                	lw	a5,36(a4)
20004cec:	fed79ce3          	bne	a5,a3,20004ce4 <busy_wait_us+0x6>
20004cf0:	01050633          	add	a2,a0,a6
20004cf4:	95be                	add	a1,a1,a5
20004cf6:	00a63533          	sltu	a0,a2,a0
20004cfa:	952e                	add	a0,a0,a1
20004cfc:	02f56c63          	bltu	a0,a5,20004d34 <busy_wait_us+0x56>
20004d00:	02a78863          	beq	a5,a0,20004d30 <busy_wait_us+0x52>
20004d04:	400b07b7          	lui	a5,0x400b0
20004d08:	53dc                	lw	a5,36(a5)
20004d0a:	00a7f763          	bgeu	a5,a0,20004d18 <busy_wait_us+0x3a>
20004d0e:	400b0737          	lui	a4,0x400b0
20004d12:	535c                	lw	a5,36(a4)
20004d14:	fea7efe3          	bltu	a5,a0,20004d12 <busy_wait_us+0x34>
20004d18:	00a79b63          	bne	a5,a0,20004d2e <busy_wait_us+0x50>
20004d1c:	400b0737          	lui	a4,0x400b0
20004d20:	a021                	j	20004d28 <busy_wait_us+0x4a>
20004d22:	5354                	lw	a3,36(a4)
20004d24:	00f69563          	bne	a3,a5,20004d2e <busy_wait_us+0x50>
20004d28:	5714                	lw	a3,40(a4)
20004d2a:	fec6ece3          	bltu	a3,a2,20004d22 <busy_wait_us+0x44>
20004d2e:	8082                	ret
20004d30:	fd067ae3          	bgeu	a2,a6,20004d04 <busy_wait_us+0x26>
20004d34:	400b07b7          	lui	a5,0x400b0
20004d38:	53dc                	lw	a5,36(a5)
20004d3a:	557d                	li	a0,-1
20004d3c:	862a                	mv	a2,a0
20004d3e:	fca798e3          	bne	a5,a0,20004d0e <busy_wait_us+0x30>
20004d42:	bfe9                	j	20004d1c <busy_wait_us+0x3e>

20004d44 <busy_wait_until>:
20004d44:	400b0737          	lui	a4,0x400b0
20004d48:	535c                	lw	a5,36(a4)
20004d4a:	feb7efe3          	bltu	a5,a1,20004d48 <busy_wait_until+0x4>
20004d4e:	00f59b63          	bne	a1,a5,20004d64 <busy_wait_until+0x20>
20004d52:	400b07b7          	lui	a5,0x400b0
20004d56:	a021                	j	20004d5e <busy_wait_until+0x1a>
20004d58:	53d8                	lw	a4,36(a5)
20004d5a:	00e59563          	bne	a1,a4,20004d64 <busy_wait_until+0x20>
20004d5e:	5798                	lw	a4,40(a5)
20004d60:	fea76ce3          	bltu	a4,a0,20004d58 <busy_wait_until+0x14>
20004d64:	8082                	ret

20004d66 <uart_init>:
20004d66:	1101                	addi	sp,sp,-32
20004d68:	cc22                	sw	s0,24(sp)
20004d6a:	842a                	mv	s0,a0
20004d6c:	4519                	li	a0,6
20004d6e:	ca26                	sw	s1,20(sp)
20004d70:	ce06                	sw	ra,28(sp)
20004d72:	84ae                	mv	s1,a1
20004d74:	2af5                	jal	20004f70 <clock_get_hz>
20004d76:	cd51                	beqz	a0,20004e12 <uart_init+0xac>
20004d78:	400787b7          	lui	a5,0x40078
20004d7c:	04000737          	lui	a4,0x4000
20004d80:	0ef40d63          	beq	s0,a5,20004e7a <uart_init+0x114>
20004d84:	400227b7          	lui	a5,0x40022
20004d88:	c398                	sw	a4,0(a5)
20004d8a:	400206b7          	lui	a3,0x40020
20004d8e:	400237b7          	lui	a5,0x40023
20004d92:	c398                	sw	a4,0(a5)
20004d94:	06a1                	addi	a3,a3,8 # 40020008 <__StackTop+0x1ff9e008>
20004d96:	429c                	lw	a5,0(a3)
20004d98:	40f777b3          	andn	a5,a4,a5
20004d9c:	ffed                	bnez	a5,20004d96 <uart_init+0x30>
20004d9e:	bff887b7          	lui	a5,0xbff88
20004da2:	97a2                	add	a5,a5,s0
20004da4:	83c18713          	addi	a4,gp,-1988 # 2000c7c8 <uart_char_to_line_feed>
20004da8:	0017b793          	seqz	a5,a5
20004dac:	20e7a7b3          	sh1add	a5,a5,a4
20004db0:	4519                	li	a0,6
20004db2:	10000713          	li	a4,256
20004db6:	00e79023          	sh	a4,0(a5) # bff88000 <__StackTop+0x9ff06000>
20004dba:	2a5d                	jal	20004f70 <clock_get_hz>
20004dbc:	00351793          	slli	a5,a0,0x3
20004dc0:	0297d7b3          	divu	a5,a5,s1
20004dc4:	0785                	addi	a5,a5,1
20004dc6:	0077d713          	srli	a4,a5,0x7
20004dca:	eb29                	bnez	a4,20004e1c <uart_init+0xb6>
20004dcc:	04000493          	li	s1,64
20004dd0:	4685                	li	a3,1
20004dd2:	d054                	sw	a3,36(s0)
20004dd4:	d418                	sw	a4,40(s0)
20004dd6:	5818                	lw	a4,48(s0)
20004dd8:	00177793          	andi	a5,a4,1
20004ddc:	e3ad                	bnez	a5,20004e3e <uart_init+0xd8>
20004dde:	6785                	lui	a5,0x1
20004de0:	02c78793          	addi	a5,a5,44 # 102c <HeapSize+0x82c>
20004de4:	97a2                	add	a5,a5,s0
20004de6:	5454                	lw	a3,44(s0)
20004de8:	0007a023          	sw	zero,0(a5)
20004dec:	d818                	sw	a4,48(s0)
20004dee:	4519                	li	a0,6
20004df0:	c43e                	sw	a5,8(sp)
20004df2:	2abd                	jal	20004f70 <clock_get_hz>
20004df4:	050a                	slli	a0,a0,0x2
20004df6:	02955533          	divu	a0,a0,s1
20004dfa:	5458                	lw	a4,44(s0)
20004dfc:	47a2                	lw	a5,8(sp)
20004dfe:	30100613          	li	a2,769
20004e02:	07074713          	xori	a4,a4,112
20004e06:	07e77713          	andi	a4,a4,126
20004e0a:	c398                	sw	a4,0(a5)
20004e0c:	468d                	li	a3,3
20004e0e:	d810                	sw	a2,48(s0)
20004e10:	c434                	sw	a3,72(s0)
20004e12:	40f2                	lw	ra,28(sp)
20004e14:	4462                	lw	s0,24(sp)
20004e16:	44d2                	lw	s1,20(sp)
20004e18:	6105                	addi	sp,sp,32
20004e1a:	8082                	ret
20004e1c:	6641                	lui	a2,0x10
20004e1e:	1679                	addi	a2,a2,-2 # fffe <HeapSize+0xf7fe>
20004e20:	66c1                	lui	a3,0x10
20004e22:	04e67f63          	bgeu	a2,a4,20004e80 <uart_init+0x11a>
20004e26:	16fd                	addi	a3,a3,-1 # ffff <HeapSize+0xf7ff>
20004e28:	4701                	li	a4,0
20004e2a:	d054                	sw	a3,36(s0)
20004e2c:	d418                	sw	a4,40(s0)
20004e2e:	5818                	lw	a4,48(s0)
20004e30:	004004b7          	lui	s1,0x400
20004e34:	fc048493          	addi	s1,s1,-64 # 3fffc0 <HeapSize+0x3ff7c0>
20004e38:	00177793          	andi	a5,a4,1
20004e3c:	d3cd                	beqz	a5,20004dde <uart_init+0x78>
20004e3e:	678d                	lui	a5,0x3
20004e40:	03078793          	addi	a5,a5,48 # 3030 <HeapSize+0x2830>
20004e44:	97a2                	add	a5,a5,s0
20004e46:	30100693          	li	a3,769
20004e4a:	c394                	sw	a3,0(a5)
20004e4c:	505c                	lw	a5,36(s0)
20004e4e:	5414                	lw	a3,40(s0)
20004e50:	4519                	li	a0,6
20004e52:	079a                	slli	a5,a5,0x6
20004e54:	97b6                	add	a5,a5,a3
20004e56:	c63a                	sw	a4,12(sp)
20004e58:	c43e                	sw	a5,8(sp)
20004e5a:	2a19                	jal	20004f70 <clock_get_hz>
20004e5c:	8f2b86b7          	lui	a3,0x8f2b8
20004e60:	b7568693          	addi	a3,a3,-1163 # 8f2b7b75 <__StackTop+0x6f235b75>
20004e64:	02d53533          	mulhu	a0,a0,a3
20004e68:	47a2                	lw	a5,8(sp)
20004e6a:	4581                	li	a1,0
20004e6c:	07aa                	slli	a5,a5,0xa
20004e6e:	812d                	srli	a0,a0,0xb
20004e70:	02a7d533          	divu	a0,a5,a0
20004e74:	35ad                	jal	20004cde <busy_wait_us>
20004e76:	4732                	lw	a4,12(sp)
20004e78:	b79d                	j	20004dde <uart_init+0x78>
20004e7a:	08000737          	lui	a4,0x8000
20004e7e:	b719                	j	20004d84 <uart_init+0x1e>
20004e80:	8385                	srli	a5,a5,0x1
20004e82:	00671693          	slli	a3,a4,0x6
20004e86:	03f7f793          	andi	a5,a5,63
20004e8a:	00f684b3          	add	s1,a3,a5
20004e8e:	86ba                	mv	a3,a4
20004e90:	873e                	mv	a4,a5
20004e92:	b781                	j	20004dd2 <uart_init+0x6c>

20004e94 <clock_configure_undivided>:
20004e94:	400107b7          	lui	a5,0x40010
20004e98:	20a52733          	sh1add	a4,a0,a0
20004e9c:	20f74733          	sh2add	a4,a4,a5
20004ea0:	00472803          	lw	a6,4(a4) # 8000004 <HeapSize+0x7fff804>
20004ea4:	67c1                	lui	a5,0x10
20004ea6:	00f87363          	bgeu	a6,a5,20004eac <clock_configure_undivided+0x18>
20004eaa:	c35c                	sw	a5,4(a4)
20004eac:	fff58793          	addi	a5,a1,-1
20004eb0:	ffc50893          	addi	a7,a0,-4
20004eb4:	e781                	bnez	a5,20004ebc <clock_configure_undivided+0x28>
20004eb6:	0028b793          	sltiu	a5,a7,2
20004eba:	e7b5                	bnez	a5,20004f26 <clock_configure_undivided+0x92>
20004ebc:	2000c837          	lui	a6,0x2000c
20004ec0:	55c80813          	addi	a6,a6,1372 # 2000c55c <configured_freq>
20004ec4:	210547b3          	sh2add	a5,a0,a6
20004ec8:	0007a303          	lw	t1,0(a5) # 10000 <HeapSize+0xf800>
20004ecc:	678d                	lui	a5,0x3
20004ece:	97ba                	add	a5,a5,a4
20004ed0:	28b01e13          	bseti	t3,zero,0xb
20004ed4:	01c7a023          	sw	t3,0(a5) # 3000 <HeapSize+0x2800>
20004ed8:	050a                	slli	a0,a0,0x2
20004eda:	02031963          	bnez	t1,20004f0c <clock_configure_undivided+0x78>
20004ede:	00072303          	lw	t1,0(a4)
20004ee2:	0616                	slli	a2,a2,0x5
20004ee4:	6785                	lui	a5,0x1
20004ee6:	00664633          	xor	a2,a2,t1
20004eea:	0e067613          	andi	a2,a2,224
20004eee:	97ba                	add	a5,a5,a4
20004ef0:	c390                	sw	a2,0(a5)
20004ef2:	4605                	li	a2,1
20004ef4:	07167063          	bgeu	a2,a7,20004f54 <clock_configure_undivided+0xc0>
20004ef8:	6789                	lui	a5,0x2
20004efa:	97ba                	add	a5,a5,a4
20004efc:	28b01613          	bseti	a2,zero,0xb
20004f00:	c390                	sw	a2,0(a5)
20004f02:	9542                	add	a0,a0,a6
20004f04:	67c1                	lui	a5,0x10
20004f06:	c114                	sw	a3,0(a0)
20004f08:	c35c                	sw	a5,4(a4)
20004f0a:	8082                	ret
20004f0c:	01482783          	lw	a5,20(a6)
20004f10:	0267d7b3          	divu	a5,a5,t1
20004f14:	0785                	addi	a5,a5,1 # 10001 <HeapSize+0xf801>
20004f16:	20f7a7b3          	sh1add	a5,a5,a5
20004f1a:	0001                	nop
20004f1c:	ffe78793          	addi	a5,a5,-2
20004f20:	fe07dee3          	bgez	a5,20004f1c <clock_configure_undivided+0x88>
20004f24:	bf6d                	j	20004ede <clock_configure_undivided+0x4a>
20004f26:	678d                	lui	a5,0x3
20004f28:	97ba                	add	a5,a5,a4
20004f2a:	480d                	li	a6,3
20004f2c:	0107a023          	sw	a6,0(a5) # 3000 <HeapSize+0x2800>
20004f30:	471c                	lw	a5,8(a4)
20004f32:	8b85                	andi	a5,a5,1
20004f34:	dff5                	beqz	a5,20004f30 <clock_configure_undivided+0x9c>
20004f36:	00072803          	lw	a6,0(a4)
20004f3a:	0616                	slli	a2,a2,0x5
20004f3c:	6785                	lui	a5,0x1
20004f3e:	01064633          	xor	a2,a2,a6
20004f42:	0e067613          	andi	a2,a2,224
20004f46:	97ba                	add	a5,a5,a4
20004f48:	2000c837          	lui	a6,0x2000c
20004f4c:	050a                	slli	a0,a0,0x2
20004f4e:	c390                	sw	a2,0(a5)
20004f50:	55c80813          	addi	a6,a6,1372 # 2000c55c <configured_freq>
20004f54:	00072883          	lw	a7,0(a4)
20004f58:	28b01633          	bset	a2,zero,a1
20004f5c:	0115c8b3          	xor	a7,a1,a7
20004f60:	0038f893          	andi	a7,a7,3
20004f64:	0117a023          	sw	a7,0(a5) # 1000 <HeapSize+0x800>
20004f68:	471c                	lw	a5,8(a4)
20004f6a:	8ff1                	and	a5,a5,a2
20004f6c:	dff5                	beqz	a5,20004f68 <clock_configure_undivided+0xd4>
20004f6e:	b769                	j	20004ef8 <clock_configure_undivided+0x64>

20004f70 <clock_get_hz>:
20004f70:	2000c7b7          	lui	a5,0x2000c
20004f74:	55c78793          	addi	a5,a5,1372 # 2000c55c <configured_freq>
20004f78:	20f54533          	sh2add	a0,a0,a5
20004f7c:	4108                	lw	a0,0(a0)
20004f7e:	8082                	ret

20004f80 <pll_init>:
20004f80:	00b727b7          	lui	a5,0xb72
20004f84:	b0078793          	addi	a5,a5,-1280 # b71b00 <HeapSize+0xb71300>
20004f88:	02b7d7b3          	divu	a5,a5,a1
20004f8c:	00052883          	lw	a7,0(a0)
20004f90:	06c2                	slli	a3,a3,0x10
20004f92:	0732                	slli	a4,a4,0xc
20004f94:	00e6e833          	or	a6,a3,a4
20004f98:	02f65633          	divu	a2,a2,a5
20004f9c:	0408c463          	bltz	a7,20004fe4 <pll_init+0x64>
20004fa0:	400587b7          	lui	a5,0x40058
20004fa4:	6711                	lui	a4,0x4
20004fa6:	06f50063          	beq	a0,a5,20005006 <pll_init+0x86>
20004faa:	400227b7          	lui	a5,0x40022
20004fae:	c398                	sw	a4,0(a5)
20004fb0:	400206b7          	lui	a3,0x40020
20004fb4:	400237b7          	lui	a5,0x40023
20004fb8:	c398                	sw	a4,0(a5)
20004fba:	06a1                	addi	a3,a3,8 # 40020008 <__StackTop+0x1ff9e008>
20004fbc:	429c                	lw	a5,0(a3)
20004fbe:	40f777b3          	andn	a5,a4,a5
20004fc2:	ffed                	bnez	a5,20004fbc <pll_init+0x3c>
20004fc4:	670d                	lui	a4,0x3
20004fc6:	c10c                	sw	a1,0(a0)
20004fc8:	0711                	addi	a4,a4,4 # 3004 <HeapSize+0x2804>
20004fca:	c510                	sw	a2,8(a0)
20004fcc:	972a                	add	a4,a4,a0
20004fce:	02100793          	li	a5,33
20004fd2:	c31c                	sw	a5,0(a4)
20004fd4:	411c                	lw	a5,0(a0)
20004fd6:	fe07dfe3          	bgez	a5,20004fd4 <pll_init+0x54>
20004fda:	01052623          	sw	a6,12(a0)
20004fde:	47a1                	li	a5,8
20004fe0:	c31c                	sw	a5,0(a4)
20004fe2:	8082                	ret
20004fe4:	411c                	lw	a5,0(a0)
20004fe6:	03f7f793          	andi	a5,a5,63
20004fea:	fab79be3          	bne	a5,a1,20004fa0 <pll_init+0x20>
20004fee:	451c                	lw	a5,8(a0)
20004ff0:	07d2                	slli	a5,a5,0x14
20004ff2:	83d1                	srli	a5,a5,0x14
20004ff4:	fac796e3          	bne	a5,a2,20004fa0 <pll_init+0x20>
20004ff8:	455c                	lw	a5,12(a0)
20004ffa:	00077737          	lui	a4,0x77
20004ffe:	8ff9                	and	a5,a5,a4
20005000:	fb0790e3          	bne	a5,a6,20004fa0 <pll_init+0x20>
20005004:	8082                	ret
20005006:	6721                	lui	a4,0x8
20005008:	b74d                	j	20004faa <pll_init+0x2a>

2000500a <tick_start>:
2000500a:	401087b7          	lui	a5,0x40108
2000500e:	20a52533          	sh1add	a0,a0,a0
20005012:	20f54533          	sh2add	a0,a0,a5
20005016:	c14c                	sw	a1,4(a0)
20005018:	4785                	li	a5,1
2000501a:	c11c                	sw	a5,0(a0)
2000501c:	8082                	ret

2000501e <rom_func_lookup>:
2000501e:	67a1                	lui	a5,0x8
20005020:	dfa78793          	addi	a5,a5,-518 # 7dfa <HeapSize+0x75fa>
20005024:	0007d783          	lhu	a5,0(a5)
20005028:	4585                	li	a1,1
2000502a:	8782                	jr	a5

2000502c <runtime_init_bootrom_locking_enable>:
2000502c:	400e17b7          	lui	a5,0x400e1
20005030:	82878793          	addi	a5,a5,-2008 # 400e0828 <__StackTop+0x2005e828>
20005034:	4398                	lw	a4,0(a5)
20005036:	df7d                	beqz	a4,20005034 <runtime_init_bootrom_locking_enable+0x8>
20005038:	0330000f          	fence	rw,rw
2000503c:	8082                	ret

2000503e <runtime_init_boot_locks_reset>:
2000503e:	400e17b7          	lui	a5,0x400e1
20005042:	400e1737          	lui	a4,0x400e1
20005046:	80c78793          	addi	a5,a5,-2036 # 400e080c <__StackTop+0x2005e80c>
2000504a:	82c70713          	addi	a4,a4,-2004 # 400e082c <__StackTop+0x2005e82c>
2000504e:	0330000f          	fence	rw,rw
20005052:	0007a023          	sw	zero,0(a5)
20005056:	0791                	addi	a5,a5,4
20005058:	fee79be3          	bne	a5,a4,2000504e <runtime_init_boot_locks_reset+0x10>
2000505c:	8082                	ret

2000505e <xosc_init>:
2000505e:	6785                	lui	a5,0x1
20005060:	aa078793          	addi	a5,a5,-1376 # aa0 <HeapSize+0x2a0>
20005064:	40048737          	lui	a4,0x40048
20005068:	c31c                	sw	a5,0(a4)
2000506a:	11a00793          	li	a5,282
2000506e:	c75c                	sw	a5,12(a4)
20005070:	00fab6b7          	lui	a3,0xfab
20005074:	4004a7b7          	lui	a5,0x4004a
20005078:	c394                	sw	a3,0(a5)
2000507a:	435c                	lw	a5,4(a4)
2000507c:	fe07dfe3          	bgez	a5,2000507a <xosc_init+0x1c>
20005080:	8082                	ret

20005082 <first_per_core_initializer>:
20005082:	8082                	ret

20005084 <hard_assertion_failure>:
20005084:	2000b537          	lui	a0,0x2000b
20005088:	1141                	addi	sp,sp,-16
2000508a:	10c50513          	addi	a0,a0,268 # 2000b10c <strcmp+0x488>
2000508e:	c606                	sw	ra,12(sp)
20005090:	d3ffe0ef          	jal	20003dce <panic>

20005094 <runtime_run_initializers>:
20005094:	1141                	addi	sp,sp,-16
20005096:	c422                	sw	s0,8(sp)
20005098:	c226                	sw	s1,4(sp)
2000509a:	2000c437          	lui	s0,0x2000c
2000509e:	2000c4b7          	lui	s1,0x2000c
200050a2:	c606                	sw	ra,12(sp)
200050a4:	1b040413          	addi	s0,s0,432 # 2000c1b0 <__pre_init_runtime_init_bootrom_reset>
200050a8:	1e848493          	addi	s1,s1,488 # 2000c1e8 <default_alarm_pool_entries>
200050ac:	00947763          	bgeu	s0,s1,200050ba <runtime_run_initializers+0x26>
200050b0:	401c                	lw	a5,0(s0)
200050b2:	0411                	addi	s0,s0,4
200050b4:	9782                	jalr	a5
200050b6:	fe946de3          	bltu	s0,s1,200050b0 <runtime_run_initializers+0x1c>
200050ba:	40b2                	lw	ra,12(sp)
200050bc:	4422                	lw	s0,8(sp)
200050be:	4492                	lw	s1,4(sp)
200050c0:	0141                	addi	sp,sp,16
200050c2:	8082                	ret

200050c4 <runtime_run_per_core_initializers>:
200050c4:	1141                	addi	sp,sp,-16
200050c6:	c422                	sw	s0,8(sp)
200050c8:	c226                	sw	s1,4(sp)
200050ca:	2000c437          	lui	s0,0x2000c
200050ce:	2000c4b7          	lui	s1,0x2000c
200050d2:	c606                	sw	ra,12(sp)
200050d4:	1d840413          	addi	s0,s0,472 # 2000c1d8 <__pre_init_first_per_core_initializer>
200050d8:	1e848493          	addi	s1,s1,488 # 2000c1e8 <default_alarm_pool_entries>
200050dc:	00947763          	bgeu	s0,s1,200050ea <runtime_run_per_core_initializers+0x26>
200050e0:	401c                	lw	a5,0(s0)
200050e2:	0411                	addi	s0,s0,4
200050e4:	9782                	jalr	a5
200050e6:	fe946de3          	bltu	s0,s1,200050e0 <runtime_run_per_core_initializers+0x1c>
200050ea:	40b2                	lw	ra,12(sp)
200050ec:	4422                	lw	s0,8(sp)
200050ee:	4492                	lw	s1,4(sp)
200050f0:	0141                	addi	sp,sp,16
200050f2:	8082                	ret

200050f4 <runtime_init_early_resets>:
200050f4:	efef47b7          	lui	a5,0xefef4
200050f8:	b7f78793          	addi	a5,a5,-1153 # efef3b7f <__StackTop+0xcfe71b7f>
200050fc:	400226b7          	lui	a3,0x40022
20005100:	03f40737          	lui	a4,0x3f40
20005104:	c29c                	sw	a5,0(a3)
20005106:	1759                	addi	a4,a4,-10 # 3f3fff6 <HeapSize+0x3f3f7f6>
20005108:	400237b7          	lui	a5,0x40023
2000510c:	400206b7          	lui	a3,0x40020
20005110:	c398                	sw	a4,0(a5)
20005112:	06a1                	addi	a3,a3,8 # 40020008 <__StackTop+0x1ff9e008>
20005114:	429c                	lw	a5,0(a3)
20005116:	40f777b3          	andn	a5,a4,a5
2000511a:	ffed                	bnez	a5,20005114 <runtime_init_early_resets+0x20>
2000511c:	8082                	ret

2000511e <runtime_init_usb_power_down>:
2000511e:	501107b7          	lui	a5,0x50110
20005122:	47f8                	lw	a4,76(a5)
20005124:	67a1                	lui	a5,0x8
20005126:	00f70363          	beq	a4,a5,2000512c <runtime_init_usb_power_down+0xe>
2000512a:	8082                	ret
2000512c:	501127b7          	lui	a5,0x50112
20005130:	00040737          	lui	a4,0x40
20005134:	c7f8                	sw	a4,76(a5)
20005136:	8082                	ret

20005138 <runtime_init_post_clock_resets>:
20005138:	20000737          	lui	a4,0x20000
2000513c:	177d                	addi	a4,a4,-1 # 1fffffff <HeapSize+0x1ffff7ff>
2000513e:	400237b7          	lui	a5,0x40023
20005142:	400206b7          	lui	a3,0x40020
20005146:	c398                	sw	a4,0(a5)
20005148:	06a1                	addi	a3,a3,8 # 40020008 <__StackTop+0x1ff9e008>
2000514a:	429c                	lw	a5,0(a3)
2000514c:	40f777b3          	andn	a5,a4,a5
20005150:	ffed                	bnez	a5,2000514a <runtime_init_post_clock_resets+0x12>
20005152:	8082                	ret

20005154 <runtime_init_bootrom_reset>:
20005154:	6515                	lui	a0,0x5
20005156:	1141                	addi	sp,sp,-16
20005158:	25350513          	addi	a0,a0,595 # 5253 <HeapSize+0x4a53>
2000515c:	c606                	sw	ra,12(sp)
2000515e:	35c1                	jal	2000501e <rom_func_lookup>
20005160:	40b2                	lw	ra,12(sp)
20005162:	87aa                	mv	a5,a0
20005164:	4511                	li	a0,4
20005166:	0141                	addi	sp,sp,16
20005168:	8782                	jr	a5

2000516a <runtime_init_per_core_bootrom_reset>:
2000516a:	6515                	lui	a0,0x5
2000516c:	1141                	addi	sp,sp,-16
2000516e:	25350513          	addi	a0,a0,595 # 5253 <HeapSize+0x4a53>
20005172:	c606                	sw	ra,12(sp)
20005174:	356d                	jal	2000501e <rom_func_lookup>
20005176:	40b2                	lw	ra,12(sp)
20005178:	87aa                	mv	a5,a0
2000517a:	4505                	li	a0,1
2000517c:	0141                	addi	sp,sp,16
2000517e:	8782                	jr	a5

20005180 <runtime_init_spin_locks_reset>:
20005180:	dd3fe06f          	j	20003f52 <spin_locks_reset>

20005184 <runtime_init_clocks>:
20005184:	1141                	addi	sp,sp,-16
20005186:	c422                	sw	s0,8(sp)
20005188:	c606                	sw	ra,12(sp)
2000518a:	c226                	sw	s1,4(sp)
2000518c:	c04a                	sw	s2,0(sp)
2000518e:	40010437          	lui	s0,0x40010
20005192:	08042223          	sw	zero,132(s0) # 40010084 <__StackTop+0x1ff8e084>
20005196:	35e1                	jal	2000505e <xosc_init>
20005198:	400137b7          	lui	a5,0x40013
2000519c:	4705                	li	a4,1
2000519e:	dfd8                	sw	a4,60(a5)
200051a0:	407c                	lw	a5,68(s0)
200051a2:	fee79fe3          	bne	a5,a4,200051a0 <runtime_init_clocks+0x1c>
200051a6:	470d                	li	a4,3
200051a8:	400137b7          	lui	a5,0x40013
200051ac:	db98                	sw	a4,48(a5)
200051ae:	4405                	li	s0,1
200051b0:	40010737          	lui	a4,0x40010
200051b4:	5f1c                	lw	a5,56(a4)
200051b6:	fe879fe3          	bne	a5,s0,200051b4 <runtime_init_clocks+0x30>
200051ba:	59683637          	lui	a2,0x59683
200051be:	85a2                	mv	a1,s0
200051c0:	f0060613          	addi	a2,a2,-256 # 59682f00 <__StackTop+0x39600f00>
200051c4:	4709                	li	a4,2
200051c6:	4695                	li	a3,5
200051c8:	40050537          	lui	a0,0x40050
200051cc:	3b55                	jal	20004f80 <pll_init>
200051ce:	4715                	li	a4,5
200051d0:	47869637          	lui	a2,0x47869
200051d4:	86ba                	mv	a3,a4
200051d6:	85a2                	mv	a1,s0
200051d8:	c0060613          	addi	a2,a2,-1024 # 47868c00 <__StackTop+0x277e6c00>
200051dc:	40058537          	lui	a0,0x40058
200051e0:	3345                	jal	20004f80 <pll_init>
200051e2:	00b726b7          	lui	a3,0xb72
200051e6:	b0068693          	addi	a3,a3,-1280 # b71b00 <HeapSize+0xb71300>
200051ea:	4601                	li	a2,0
200051ec:	4589                	li	a1,2
200051ee:	4511                	li	a0,4
200051f0:	3155                	jal	20004e94 <clock_configure_undivided>
200051f2:	08f0d6b7          	lui	a3,0x8f0d
200051f6:	85a2                	mv	a1,s0
200051f8:	18068693          	addi	a3,a3,384 # 8f0d180 <HeapSize+0x8f0c980>
200051fc:	4601                	li	a2,0
200051fe:	4515                	li	a0,5
20005200:	3951                	jal	20004e94 <clock_configure_undivided>
20005202:	02dc76b7          	lui	a3,0x2dc7
20005206:	c0068693          	addi	a3,a3,-1024 # 2dc6c00 <HeapSize+0x2dc6400>
2000520a:	4601                	li	a2,0
2000520c:	4581                	li	a1,0
2000520e:	4521                	li	a0,8
20005210:	3151                	jal	20004e94 <clock_configure_undivided>
20005212:	02dc76b7          	lui	a3,0x2dc7
20005216:	c0068693          	addi	a3,a3,-1024 # 2dc6c00 <HeapSize+0x2dc6400>
2000521a:	4601                	li	a2,0
2000521c:	4581                	li	a1,0
2000521e:	4525                	li	a0,9
20005220:	3995                	jal	20004e94 <clock_configure_undivided>
20005222:	08f0d6b7          	lui	a3,0x8f0d
20005226:	18068693          	addi	a3,a3,384 # 8f0d180 <HeapSize+0x8f0c980>
2000522a:	4601                	li	a2,0
2000522c:	4581                	li	a1,0
2000522e:	4519                	li	a0,6
20005230:	3195                	jal	20004e94 <clock_configure_undivided>
20005232:	08f0d6b7          	lui	a3,0x8f0d
20005236:	18068693          	addi	a3,a3,384 # 8f0d180 <HeapSize+0x8f0c980>
2000523a:	4601                	li	a2,0
2000523c:	4581                	li	a1,0
2000523e:	451d                	li	a0,7
20005240:	3991                	jal	20004e94 <clock_configure_undivided>
20005242:	4511                	li	a0,4
20005244:	3335                	jal	20004f70 <clock_get_hz>
20005246:	431be7b7          	lui	a5,0x431be
2000524a:	e8378793          	addi	a5,a5,-381 # 431bde83 <__StackTop+0x2313be83>
2000524e:	02f534b3          	mulhu	s1,a0,a5
20005252:	4401                	li	s0,0
20005254:	4919                	li	s2,6
20005256:	80c9                	srli	s1,s1,0x12
20005258:	8522                	mv	a0,s0
2000525a:	85a6                	mv	a1,s1
2000525c:	0405                	addi	s0,s0,1
2000525e:	3375                	jal	2000500a <tick_start>
20005260:	ff241ce3          	bne	s0,s2,20005258 <runtime_init_clocks+0xd4>
20005264:	40b2                	lw	ra,12(sp)
20005266:	4422                	lw	s0,8(sp)
20005268:	4492                	lw	s1,4(sp)
2000526a:	4902                	lw	s2,0(sp)
2000526c:	0141                	addi	sp,sp,16
2000526e:	8082                	ret

20005270 <__subsf3>:
20005270:	69f59593          	binvi	a1,a1,0x1f

20005274 <__addsf3>:
20005274:	1d75460b          	.insn	4, 0x1d75460b
20005278:	1d75c68b          	.insn	4, 0x1d75c68b
2000527c:	12060c63          	beqz	a2,200053b4 <__addsf_return_y_flushed>
20005280:	12068e63          	beqz	a3,200053bc <__addsf_return_x>
20005284:	00951713          	slli	a4,a0,0x9
20005288:	00959793          	slli	a5,a1,0x9
2000528c:	0ff00293          	li	t0,255
20005290:	0e560e63          	beq	a2,t0,2000538c <__addsf_x_nan_inf>
20005294:	10568663          	beq	a3,t0,200053a0 <__addsf_y_nan_inf>
20005298:	8319                	srli	a4,a4,0x6
2000529a:	8399                	srli	a5,a5,0x6
2000529c:	29a71713          	bseti	a4,a4,0x1a
200052a0:	29a79793          	bseti	a5,a5,0x1a
200052a4:	00055463          	bgez	a0,200052ac <__addsf3+0x38>
200052a8:	40e00733          	neg	a4,a4
200052ac:	4365                	li	t1,25
200052ae:	0005d463          	bgez	a1,200052b6 <__addsf3+0x42>
200052b2:	40f007b3          	neg	a5,a5
200052b6:	06d66763          	bltu	a2,a3,20005324 <__addsf_ye_gt_xe>

200052ba <__addsf_xe_gte_ye>:
200052ba:	40d605b3          	sub	a1,a2,a3
200052be:	0e65ff63          	bgeu	a1,t1,200053bc <__addsf_return_x>
200052c2:	40b7d533          	sra	a0,a5,a1
200052c6:	00b515b3          	sll	a1,a0,a1
200052ca:	00f5b5b3          	sltu	a1,a1,a5
200052ce:	8d4d                	or	a0,a0,a1
200052d0:	972a                	add	a4,a4,a0
200052d2:	c775                	beqz	a4,200053be <__addsf_return_0>
200052d4:	41f75693          	srai	a3,a4,0x1f
200052d8:	8f35                	xor	a4,a4,a3
200052da:	8f15                	sub	a4,a4,a3
200052dc:	60071513          	clz	a0,a4
200052e0:	00a71733          	sll	a4,a4,a0
200052e4:	156d                	addi	a0,a0,-5 # 40057ffb <__StackTop+0x1ffd5ffb>
200052e6:	8e09                	sub	a2,a2,a0
200052e8:	48875513          	bexti	a0,a4,0x8
200052ec:	07f70713          	addi	a4,a4,127 # 4001007f <__StackTop+0x1ff8e07f>
200052f0:	972a                	add	a4,a4,a0
200052f2:	02075563          	bgez	a4,2000531c <__addsf_xe_gte_ye+0x62>
200052f6:	00567a63          	bgeu	a2,t0,2000530a <__addsf_xe_gte_ye+0x50>
200052fa:	08d67633          	packh	a2,a2,a3
200052fe:	065e                	slli	a2,a2,0x17
20005300:	0706                	slli	a4,a4,0x1
20005302:	8325                	srli	a4,a4,0x9
20005304:	00c70533          	add	a0,a4,a2
20005308:	8082                	ret
2000530a:	00065563          	bgez	a2,20005314 <__addsf_xe_gte_ye+0x5a>
2000530e:	01f69513          	slli	a0,a3,0x1f
20005312:	8082                	ret
20005314:	08d2f533          	packh	a0,t0,a3
20005318:	055e                	slli	a0,a0,0x17
2000531a:	8082                	ret
2000531c:	8305                	srli	a4,a4,0x1
2000531e:	0605                	addi	a2,a2,1
20005320:	bfd9                	j	200052f6 <__addsf_xe_gte_ye+0x3c>
20005322:	0001                	nop

20005324 <__addsf_ye_gt_xe>:
20005324:	40c68533          	sub	a0,a3,a2
20005328:	08657963          	bgeu	a0,t1,200053ba <__addsf_return_y>
2000532c:	40a755b3          	sra	a1,a4,a0
20005330:	00a59533          	sll	a0,a1,a0
20005334:	00e53533          	sltu	a0,a0,a4
20005338:	8dc9                	or	a1,a1,a0
2000533a:	97ae                	add	a5,a5,a1
2000533c:	c3c9                	beqz	a5,200053be <__addsf_return_0>
2000533e:	41f7d613          	srai	a2,a5,0x1f
20005342:	8fb1                	xor	a5,a5,a2
20005344:	8f91                	sub	a5,a5,a2
20005346:	60079593          	clz	a1,a5
2000534a:	00b797b3          	sll	a5,a5,a1
2000534e:	15ed                	addi	a1,a1,-5
20005350:	8e8d                	sub	a3,a3,a1
20005352:	4887d593          	bexti	a1,a5,0x8
20005356:	07f78793          	addi	a5,a5,127
2000535a:	97ae                	add	a5,a5,a1
2000535c:	0207d563          	bgez	a5,20005386 <__addsf_ye_gt_xe+0x62>
20005360:	0056fa63          	bgeu	a3,t0,20005374 <__addsf_ye_gt_xe+0x50>
20005364:	08c6f6b3          	packh	a3,a3,a2
20005368:	06de                	slli	a3,a3,0x17
2000536a:	0786                	slli	a5,a5,0x1
2000536c:	83a5                	srli	a5,a5,0x9
2000536e:	00d78533          	add	a0,a5,a3
20005372:	8082                	ret
20005374:	0006d563          	bgez	a3,2000537e <__addsf_ye_gt_xe+0x5a>
20005378:	01f61513          	slli	a0,a2,0x1f
2000537c:	8082                	ret
2000537e:	08c2f533          	packh	a0,t0,a2
20005382:	055e                	slli	a0,a0,0x17
20005384:	8082                	ret
20005386:	8385                	srli	a5,a5,0x1
20005388:	0685                	addi	a3,a3,1
2000538a:	bfd9                	j	20005360 <__addsf_ye_gt_xe+0x3c>

2000538c <__addsf_x_nan_inf>:
2000538c:	eb05                	bnez	a4,200053bc <__addsf_return_x>

2000538e <__addsf_x_inf>:
2000538e:	02569763          	bne	a3,t0,200053bc <__addsf_return_x>
20005392:	e785                	bnez	a5,200053ba <__addsf_return_y>
20005394:	00b547b3          	xor	a5,a0,a1
20005398:	83fd                	srli	a5,a5,0x1f
2000539a:	c38d                	beqz	a5,200053bc <__addsf_return_x>
2000539c:	557d                	li	a0,-1
2000539e:	8082                	ret

200053a0 <__addsf_y_nan_inf>:
200053a0:	ef89                	bnez	a5,200053ba <__addsf_return_y>

200053a2 <__addsf_y_inf>:
200053a2:	00561c63          	bne	a2,t0,200053ba <__addsf_return_y>
200053a6:	eb19                	bnez	a4,200053bc <__addsf_return_x>
200053a8:	00b54733          	xor	a4,a0,a1
200053ac:	837d                	srli	a4,a4,0x1f
200053ae:	c719                	beqz	a4,200053bc <__addsf_return_x>
200053b0:	557d                	li	a0,-1
200053b2:	8082                	ret

200053b4 <__addsf_return_y_flushed>:
200053b4:	e299                	bnez	a3,200053ba <__addsf_return_y>
200053b6:	81dd                	srli	a1,a1,0x17
200053b8:	05de                	slli	a1,a1,0x17

200053ba <__addsf_return_y>:
200053ba:	852e                	mv	a0,a1

200053bc <__addsf_return_x>:
200053bc:	8082                	ret

200053be <__addsf_return_0>:
200053be:	4501                	li	a0,0
200053c0:	8082                	ret
	...

200053c4 <__mulsf3>:
200053c4:	0005d463          	bgez	a1,200053cc <__mulsf3+0x8>
200053c8:	69f51513          	binvi	a0,a0,0x1f
200053cc:	1d75460b          	.insn	4, 0x1d75460b
200053d0:	1d75c68b          	.insn	4, 0x1d75c68b
200053d4:	0ff00293          	li	t0,255
200053d8:	ce25                	beqz	a2,20005450 <__mulsf_x_0>
200053da:	c6c1                	beqz	a3,20005462 <__mulsf_y_0>
200053dc:	08560d63          	beq	a2,t0,20005476 <__mulsf_x_nan_inf>
200053e0:	0a568463          	beq	a3,t0,20005488 <__mulsf_y_nan_inf>
200053e4:	41f55813          	srai	a6,a0,0x1f
200053e8:	00851713          	slli	a4,a0,0x8
200053ec:	00859793          	slli	a5,a1,0x8
200053f0:	29f71713          	bseti	a4,a4,0x1f
200053f4:	29f79793          	bseti	a5,a5,0x1f
200053f8:	02f705b3          	mul	a1,a4,a5
200053fc:	02f73733          	mulhu	a4,a4,a5
20005400:	60071513          	clz	a0,a4
20005404:	00a71733          	sll	a4,a4,a0
20005408:	8e09                	sub	a2,a2,a0
2000540a:	9636                	add	a2,a2,a3
2000540c:	f8260613          	addi	a2,a2,-126
20005410:	02c05963          	blez	a2,20005442 <__mulsf_underflow>
20005414:	00b035b3          	snez	a1,a1
20005418:	8f4d                	or	a4,a4,a1
2000541a:	48875593          	bexti	a1,a4,0x8
2000541e:	972e                	add	a4,a4,a1
20005420:	07f70713          	addi	a4,a4,127
20005424:	00075c63          	bgez	a4,2000543c <__mulsf3+0x78>
20005428:	02565063          	bge	a2,t0,20005448 <__mulsf_overflow>
2000542c:	09067633          	packh	a2,a2,a6
20005430:	065e                	slli	a2,a2,0x17
20005432:	0706                	slli	a4,a4,0x1
20005434:	8325                	srli	a4,a4,0x9
20005436:	00c70533          	add	a0,a4,a2
2000543a:	8082                	ret
2000543c:	8305                	srli	a4,a4,0x1
2000543e:	0605                	addi	a2,a2,1
20005440:	b7e5                	j	20005428 <__mulsf3+0x64>

20005442 <__mulsf_underflow>:
20005442:	01f81513          	slli	a0,a6,0x1f
20005446:	8082                	ret

20005448 <__mulsf_overflow>:
20005448:	0902f533          	packh	a0,t0,a6
2000544c:	055e                	slli	a0,a0,0x17
2000544e:	8082                	ret

20005450 <__mulsf_x_0>:
20005450:	02569063          	bne	a3,t0,20005470 <__mulsf_return_flushed_x>
20005454:	00959793          	slli	a5,a1,0x9
20005458:	c399                	beqz	a5,2000545e <__mulsf_return_y+0x4>

2000545a <__mulsf_return_y>:
2000545a:	852e                	mv	a0,a1
2000545c:	8082                	ret
2000545e:	557d                	li	a0,-1
20005460:	8082                	ret

20005462 <__mulsf_y_0>:
20005462:	00561763          	bne	a2,t0,20005470 <__mulsf_return_flushed_x>
20005466:	00951593          	slli	a1,a0,0x9
2000546a:	e191                	bnez	a1,2000546e <__mulsf_y_0+0xc>
2000546c:	557d                	li	a0,-1
2000546e:	8082                	ret

20005470 <__mulsf_return_flushed_x>:
20005470:	817d                	srli	a0,a0,0x1f
20005472:	057e                	slli	a0,a0,0x1f

20005474 <__mulsf_return_x>:
20005474:	8082                	ret

20005476 <__mulsf_x_nan_inf>:
20005476:	00951713          	slli	a4,a0,0x9
2000547a:	ff6d                	bnez	a4,20005474 <__mulsf_return_x>
2000547c:	fe569ce3          	bne	a3,t0,20005474 <__mulsf_return_x>
20005480:	00959793          	slli	a5,a1,0x9
20005484:	fbf9                	bnez	a5,2000545a <__mulsf_return_y>
20005486:	8082                	ret

20005488 <__mulsf_y_nan_inf>:
20005488:	00959793          	slli	a5,a1,0x9
2000548c:	f7f9                	bnez	a5,2000545a <__mulsf_return_y>
2000548e:	857d                	srai	a0,a0,0x1f
20005490:	08a2f533          	packh	a0,t0,a0
20005494:	055e                	slli	a0,a0,0x17
20005496:	8082                	ret
20005498:	0001                	nop

2000549a <_out_buffer>:
2000549a:	00d67563          	bgeu	a2,a3,200054a4 <_out_buffer+0xa>
2000549e:	95b2                	add	a1,a1,a2
200054a0:	00a58023          	sb	a0,0(a1)
200054a4:	8082                	ret

200054a6 <_out_null>:
200054a6:	8082                	ret

200054a8 <_out_rev>:
200054a8:	7179                	addi	sp,sp,-48
200054aa:	d04a                	sw	s2,32(sp)
200054ac:	ce4e                	sw	s3,28(sp)
200054ae:	cc52                	sw	s4,24(sp)
200054b0:	ca56                	sw	s5,20(sp)
200054b2:	c85a                	sw	s6,16(sp)
200054b4:	c462                	sw	s8,8(sp)
200054b6:	c266                	sw	s9,4(sp)
200054b8:	c06a                	sw	s10,0(sp)
200054ba:	8cc6                	mv	s9,a7
200054bc:	d606                	sw	ra,44(sp)
200054be:	d422                	sw	s0,40(sp)
200054c0:	d226                	sw	s1,36(sp)
200054c2:	0038f893          	andi	a7,a7,3
200054c6:	892a                	mv	s2,a0
200054c8:	8a2e                	mv	s4,a1
200054ca:	89b2                	mv	s3,a2
200054cc:	8ab6                	mv	s5,a3
200054ce:	8b3a                	mv	s6,a4
200054d0:	8d3e                	mv	s10,a5
200054d2:	8c42                	mv	s8,a6
200054d4:	06088563          	beqz	a7,2000553e <_out_rev+0x96>
200054d8:	c7d1                	beqz	a5,20005564 <_out_rev+0xbc>
200054da:	c65e                	sw	s7,12(sp)
200054dc:	84b2                	mv	s1,a2
200054de:	01ab0433          	add	s0,s6,s10
200054e2:	00848bb3          	add	s7,s1,s0
200054e6:	fff44503          	lbu	a0,-1(s0)
200054ea:	408b8633          	sub	a2,s7,s0
200054ee:	86d6                	mv	a3,s5
200054f0:	85d2                	mv	a1,s4
200054f2:	147d                	addi	s0,s0,-1
200054f4:	9902                	jalr	s2
200054f6:	fe8b18e3          	bne	s6,s0,200054e6 <_out_rev+0x3e>
200054fa:	4bb2                	lw	s7,12(sp)
200054fc:	94ea                	add	s1,s1,s10
200054fe:	002cfc93          	andi	s9,s9,2
20005502:	020c8063          	beqz	s9,20005522 <_out_rev+0x7a>
20005506:	413489b3          	sub	s3,s1,s3
2000550a:	0189fc63          	bgeu	s3,s8,20005522 <_out_rev+0x7a>
2000550e:	8626                	mv	a2,s1
20005510:	86d6                	mv	a3,s5
20005512:	85d2                	mv	a1,s4
20005514:	02000513          	li	a0,32
20005518:	0985                	addi	s3,s3,1
2000551a:	0485                	addi	s1,s1,1
2000551c:	9902                	jalr	s2
2000551e:	ff89e8e3          	bltu	s3,s8,2000550e <_out_rev+0x66>
20005522:	50b2                	lw	ra,44(sp)
20005524:	5422                	lw	s0,40(sp)
20005526:	5902                	lw	s2,32(sp)
20005528:	49f2                	lw	s3,28(sp)
2000552a:	4a62                	lw	s4,24(sp)
2000552c:	4ad2                	lw	s5,20(sp)
2000552e:	4b42                	lw	s6,16(sp)
20005530:	4c22                	lw	s8,8(sp)
20005532:	4c92                	lw	s9,4(sp)
20005534:	4d02                	lw	s10,0(sp)
20005536:	8526                	mv	a0,s1
20005538:	5492                	lw	s1,36(sp)
2000553a:	6145                	addi	sp,sp,48
2000553c:	8082                	ret
2000553e:	0307f563          	bgeu	a5,a6,20005568 <_out_rev+0xc0>
20005542:	40f804b3          	sub	s1,a6,a5
20005546:	94b2                	add	s1,s1,a2
20005548:	8432                	mv	s0,a2
2000554a:	8622                	mv	a2,s0
2000554c:	86d6                	mv	a3,s5
2000554e:	0405                	addi	s0,s0,1
20005550:	85d2                	mv	a1,s4
20005552:	02000513          	li	a0,32
20005556:	9902                	jalr	s2
20005558:	fe9419e3          	bne	s0,s1,2000554a <_out_rev+0xa2>
2000555c:	fc0d03e3          	beqz	s10,20005522 <_out_rev+0x7a>
20005560:	c65e                	sw	s7,12(sp)
20005562:	bfb5                	j	200054de <_out_rev+0x36>
20005564:	84b2                	mv	s1,a2
20005566:	bf61                	j	200054fe <_out_rev+0x56>
20005568:	84b2                	mv	s1,a2
2000556a:	bfcd                	j	2000555c <_out_rev+0xb4>

2000556c <_ntoa_format>:
2000556c:	4ea2                	lw	t4,8(sp)
2000556e:	833e                	mv	t1,a5
20005570:	8fc2                	mv	t6,a6
20005572:	002ef793          	andi	a5,t4,2
20005576:	4e02                	lw	t3,0(sp)
20005578:	4812                	lw	a6,4(sp)
2000557a:	e7e9                	bnez	a5,20005644 <_ntoa_format+0xd8>
2000557c:	fe030793          	addi	a5,t1,-32
20005580:	00f037b3          	snez	a5,a5
20005584:	01c33f33          	sltu	t5,t1,t3
20005588:	01e7ff33          	and	t5,a5,t5
2000558c:	001ef293          	andi	t0,t4,1
20005590:	0e080f63          	beqz	a6,2000568e <_ntoa_format+0x122>
20005594:	0e028d63          	beqz	t0,2000568e <_ntoa_format+0x122>
20005598:	000f9663          	bnez	t6,200055a4 <_ntoa_format+0x38>
2000559c:	00cef393          	andi	t2,t4,12
200055a0:	00038363          	beqz	t2,200055a6 <_ntoa_format+0x3a>
200055a4:	187d                	addi	a6,a6,-1
200055a6:	060f0f63          	beqz	t5,20005624 <_ntoa_format+0xb8>
200055aa:	03000f13          	li	t5,48
200055ae:	0305                	addi	t1,t1,1
200055b0:	006707b3          	add	a5,a4,t1
200055b4:	ffe78fa3          	sb	t5,-1(a5)
200055b8:	fe030793          	addi	a5,t1,-32
200055bc:	00f037b3          	snez	a5,a5
200055c0:	01c37363          	bgeu	t1,t3,200055c6 <_ntoa_format+0x5a>
200055c4:	f7ed                	bnez	a5,200055ae <_ntoa_format+0x42>
200055c6:	04029f63          	bnez	t0,20005624 <_ntoa_format+0xb8>
200055ca:	010ef793          	andi	a5,t4,16
200055ce:	c3b9                	beqz	a5,20005614 <_ntoa_format+0xa8>
200055d0:	400ef793          	andi	a5,t4,1024
200055d4:	e789                	bnez	a5,200055de <_ntoa_format+0x72>
200055d6:	0c6e0963          	beq	t3,t1,200056a8 <_ntoa_format+0x13c>
200055da:	0d030763          	beq	t1,a6,200056a8 <_ntoa_format+0x13c>
200055de:	47c1                	li	a5,16
200055e0:	0ef88963          	beq	a7,a5,200056d2 <_ntoa_format+0x166>
200055e4:	18f9                	addi	a7,a7,-2
200055e6:	0e089463          	bnez	a7,200056ce <_ntoa_format+0x162>
200055ea:	fe030793          	addi	a5,t1,-32
200055ee:	c3e5                	beqz	a5,200056ce <_ntoa_format+0x162>
200055f0:	00130793          	addi	a5,t1,1
200055f4:	933a                	add	t1,t1,a4
200055f6:	06200893          	li	a7,98
200055fa:	01130023          	sb	a7,0(t1)
200055fe:	02000893          	li	a7,32
20005602:	01178d63          	beq	a5,a7,2000561c <_ntoa_format+0xb0>
20005606:	00178313          	addi	t1,a5,1
2000560a:	97ba                	add	a5,a5,a4
2000560c:	03000893          	li	a7,48
20005610:	01178023          	sb	a7,0(a5)
20005614:	02000793          	li	a5,32
20005618:	04f31d63          	bne	t1,a5,20005672 <_ntoa_format+0x106>
2000561c:	02000793          	li	a5,32
20005620:	88f6                	mv	a7,t4
20005622:	b559                	j	200054a8 <_out_rev>
20005624:	03037063          	bgeu	t1,a6,20005644 <_ntoa_format+0xd8>
20005628:	cf91                	beqz	a5,20005644 <_ntoa_format+0xd8>
2000562a:	03000f13          	li	t5,48
2000562e:	a011                	j	20005632 <_ntoa_format+0xc6>
20005630:	cb91                	beqz	a5,20005644 <_ntoa_format+0xd8>
20005632:	0305                	addi	t1,t1,1
20005634:	006707b3          	add	a5,a4,t1
20005638:	ffe78fa3          	sb	t5,-1(a5)
2000563c:	fe030793          	addi	a5,t1,-32
20005640:	ff0368e3          	bltu	t1,a6,20005630 <_ntoa_format+0xc4>
20005644:	010ef793          	andi	a5,t4,16
20005648:	d7f1                	beqz	a5,20005614 <_ntoa_format+0xa8>
2000564a:	400ef793          	andi	a5,t4,1024
2000564e:	fbc1                	bnez	a5,200055de <_ntoa_format+0x72>
20005650:	f80313e3          	bnez	t1,200055d6 <_ntoa_format+0x6a>
20005654:	47c1                	li	a5,16
20005656:	0ef88763          	beq	a7,a5,20005744 <_ntoa_format+0x1d8>
2000565a:	4789                	li	a5,2
2000565c:	0cf89263          	bne	a7,a5,20005720 <_ntoa_format+0x1b4>
20005660:	06200793          	li	a5,98
20005664:	03000893          	li	a7,48
20005668:	00f70023          	sb	a5,0(a4)
2000566c:	011700a3          	sb	a7,1(a4)
20005670:	4309                	li	t1,2
20005672:	020f9163          	bnez	t6,20005694 <_ntoa_format+0x128>
20005676:	004ef793          	andi	a5,t4,4
2000567a:	cbbd                	beqz	a5,200056f0 <_ntoa_format+0x184>
2000567c:	006708b3          	add	a7,a4,t1
20005680:	02b00e13          	li	t3,43
20005684:	00130793          	addi	a5,t1,1
20005688:	01c88023          	sb	t3,0(a7)
2000568c:	bf51                	j	20005620 <_ntoa_format+0xb4>
2000568e:	f00f1ee3          	bnez	t5,200055aa <_ntoa_format+0x3e>
20005692:	bf4d                	j	20005644 <_ntoa_format+0xd8>
20005694:	006708b3          	add	a7,a4,t1
20005698:	02d00e13          	li	t3,45
2000569c:	01c88023          	sb	t3,0(a7)
200056a0:	00130793          	addi	a5,t1,1
200056a4:	88f6                	mv	a7,t4
200056a6:	b509                	j	200054a8 <_out_rev>
200056a8:	fff30793          	addi	a5,t1,-1
200056ac:	c3d1                	beqz	a5,20005730 <_ntoa_format+0x1c4>
200056ae:	ff088e13          	addi	t3,a7,-16
200056b2:	060e1f63          	bnez	t3,20005730 <_ntoa_format+0x1c4>
200056b6:	ffe30893          	addi	a7,t1,-2
200056ba:	020efe13          	andi	t3,t4,32
200056be:	98ba                	add	a7,a7,a4
200056c0:	080e1a63          	bnez	t3,20005754 <_ntoa_format+0x1e8>
200056c4:	07800e13          	li	t3,120
200056c8:	01c88023          	sb	t3,0(a7)
200056cc:	bf3d                	j	2000560a <_ntoa_format+0x9e>
200056ce:	879a                	mv	a5,t1
200056d0:	b73d                	j	200055fe <_ntoa_format+0x92>
200056d2:	020ef793          	andi	a5,t4,32
200056d6:	cb8d                	beqz	a5,20005708 <_ntoa_format+0x19c>
200056d8:	02000793          	li	a5,32
200056dc:	f4f300e3          	beq	t1,a5,2000561c <_ntoa_format+0xb0>
200056e0:	00130793          	addi	a5,t1,1
200056e4:	933a                	add	t1,t1,a4
200056e6:	05800893          	li	a7,88
200056ea:	01130023          	sb	a7,0(t1)
200056ee:	bf01                	j	200055fe <_ntoa_format+0x92>
200056f0:	008ef893          	andi	a7,t4,8
200056f4:	879a                	mv	a5,t1
200056f6:	f20885e3          	beqz	a7,20005620 <_ntoa_format+0xb4>
200056fa:	933a                	add	t1,t1,a4
200056fc:	02000893          	li	a7,32
20005700:	0785                	addi	a5,a5,1
20005702:	01130023          	sb	a7,0(t1)
20005706:	bf29                	j	20005620 <_ntoa_format+0xb4>
20005708:	02000793          	li	a5,32
2000570c:	f0f308e3          	beq	t1,a5,2000561c <_ntoa_format+0xb0>
20005710:	00130793          	addi	a5,t1,1
20005714:	933a                	add	t1,t1,a4
20005716:	07800893          	li	a7,120
2000571a:	01130023          	sb	a7,0(t1)
2000571e:	b5c5                	j	200055fe <_ntoa_format+0x92>
20005720:	03000793          	li	a5,48
20005724:	00f70023          	sb	a5,0(a4)
20005728:	4305                	li	t1,1
2000572a:	f40f86e3          	beqz	t6,20005676 <_ntoa_format+0x10a>
2000572e:	b79d                	j	20005694 <_ntoa_format+0x128>
20005730:	4e41                	li	t3,16
20005732:	03c88663          	beq	a7,t3,2000575e <_ntoa_format+0x1f2>
20005736:	4e09                	li	t3,2
20005738:	edc899e3          	bne	a7,t3,2000560a <_ntoa_format+0x9e>
2000573c:	889a                	mv	a7,t1
2000573e:	833e                	mv	t1,a5
20005740:	87c6                	mv	a5,a7
20005742:	bd4d                	j	200055f4 <_ntoa_format+0x88>
20005744:	485ed793          	bexti	a5,t4,0x5
20005748:	40f007b3          	neg	a5,a5
2000574c:	9b81                	andi	a5,a5,-32
2000574e:	07878793          	addi	a5,a5,120
20005752:	bf09                	j	20005664 <_ntoa_format+0xf8>
20005754:	05800e13          	li	t3,88
20005758:	01c88023          	sb	t3,0(a7)
2000575c:	b57d                	j	2000560a <_ntoa_format+0x9e>
2000575e:	020ef893          	andi	a7,t4,32
20005762:	00088663          	beqz	a7,2000576e <_ntoa_format+0x202>
20005766:	889a                	mv	a7,t1
20005768:	833e                	mv	t1,a5
2000576a:	87c6                	mv	a5,a7
2000576c:	bfa5                	j	200056e4 <_ntoa_format+0x178>
2000576e:	889a                	mv	a7,t1
20005770:	833e                	mv	t1,a5
20005772:	87c6                	mv	a5,a7
20005774:	b745                	j	20005714 <_ntoa_format+0x1a8>

20005776 <_out_char>:
20005776:	e111                	bnez	a0,2000577a <_out_char+0x4>
20005778:	8082                	ret
2000577a:	7460106f          	j	20006ec0 <__wrap_putchar>

2000577e <_ftoa>:
2000577e:	7119                	addi	sp,sp,-128
20005780:	d8ca                	sw	s2,112(sp)
20005782:	d4d2                	sw	s4,104(sp)
20005784:	d2d6                	sw	s5,100(sp)
20005786:	cede                	sw	s7,92(sp)
20005788:	892a                	mv	s2,a0
2000578a:	8a2e                	mv	s4,a1
2000578c:	8bb2                	mv	s7,a2
2000578e:	8ab6                	mv	s5,a3
20005790:	853a                	mv	a0,a4
20005792:	85be                	mv	a1,a5
20005794:	863a                	mv	a2,a4
20005796:	86be                	mv	a3,a5
20005798:	dca2                	sw	s0,120(sp)
2000579a:	daa6                	sw	s1,116(sp)
2000579c:	d6ce                	sw	s3,108(sp)
2000579e:	d0da                	sw	s6,96(sp)
200057a0:	cce2                	sw	s8,88(sp)
200057a2:	de86                	sw	ra,124(sp)
200057a4:	4b0a                	lw	s6,128(sp)
200057a6:	84ba                	mv	s1,a4
200057a8:	843e                	mv	s0,a5
200057aa:	8c42                	mv	s8,a6
200057ac:	89c6                	mv	s3,a7
200057ae:	3ef040ef          	jal	2000a39c <__unorddf2>
200057b2:	46051263          	bnez	a0,20005c16 <_ftoa+0x498>
200057b6:	2000c7b7          	lui	a5,0x2000c
200057ba:	f407a603          	lw	a2,-192(a5) # 2000bf40 <N_EFFECTS+0x18>
200057be:	f447a683          	lw	a3,-188(a5)
200057c2:	8526                	mv	a0,s1
200057c4:	85a2                	mv	a1,s0
200057c6:	16e040ef          	jal	20009934 <__ledf2>
200057ca:	20054363          	bltz	a0,200059d0 <_ftoa+0x252>
200057ce:	2000c7b7          	lui	a5,0x2000c
200057d2:	f487a603          	lw	a2,-184(a5) # 2000bf48 <N_EFFECTS+0x20>
200057d6:	f4c7a683          	lw	a3,-180(a5)
200057da:	8526                	mv	a0,s1
200057dc:	85a2                	mv	a1,s0
200057de:	0a0040ef          	jal	2000987e <__gedf2>
200057e2:	14a04c63          	bgtz	a0,2000593a <_ftoa+0x1bc>
200057e6:	2000c7b7          	lui	a5,0x2000c
200057ea:	f307a603          	lw	a2,-208(a5) # 2000bf30 <N_EFFECTS+0x8>
200057ee:	f347a683          	lw	a3,-204(a5)
200057f2:	8526                	mv	a0,s1
200057f4:	85a2                	mv	a1,s0
200057f6:	088040ef          	jal	2000987e <__gedf2>
200057fa:	10a04b63          	bgtz	a0,20005910 <_ftoa+0x192>
200057fe:	2000c7b7          	lui	a5,0x2000c
20005802:	f507a603          	lw	a2,-176(a5) # 2000bf50 <N_EFFECTS+0x28>
20005806:	f547a683          	lw	a3,-172(a5)
2000580a:	8526                	mv	a0,s1
2000580c:	85a2                	mv	a1,s0
2000580e:	126040ef          	jal	20009934 <__ledf2>
20005812:	0e054f63          	bltz	a0,20005910 <_ftoa+0x192>
20005816:	8526                	mv	a0,s1
20005818:	85a2                	mv	a1,s0
2000581a:	4601                	li	a2,0
2000581c:	4681                	li	a3,0
2000581e:	c6ee                	sw	s11,76(sp)
20005820:	cae6                	sw	s9,84(sp)
20005822:	c8ea                	sw	s10,80(sp)
20005824:	110040ef          	jal	20009934 <__ledf2>
20005828:	4d81                	li	s11,0
2000582a:	18054563          	bltz	a0,200059b4 <_ftoa+0x236>
2000582e:	400b7793          	andi	a5,s6,1024
20005832:	12079f63          	bnez	a5,20005970 <_ftoa+0x1f2>
20005836:	2000c737          	lui	a4,0x2000c
2000583a:	f3872683          	lw	a3,-200(a4) # 2000bf38 <N_EFFECTS+0x10>
2000583e:	f3c72703          	lw	a4,-196(a4)
20005842:	4c19                	li	s8,6
20005844:	8cb6                	mv	s9,a3
20005846:	8d3a                	mv	s10,a4
20005848:	1018                	addi	a4,sp,32
2000584a:	85a2                	mv	a1,s0
2000584c:	8526                	mv	a0,s1
2000584e:	ce3a                	sw	a4,28(sp)
20005850:	cc3e                	sw	a5,24(sp)
20005852:	37f040ef          	jal	2000a3d0 <__fixdfsi>
20005856:	ca2a                	sw	a0,20(sp)
20005858:	437040ef          	jal	2000a48e <__floatsidf>
2000585c:	862a                	mv	a2,a0
2000585e:	86ae                	mv	a3,a1
20005860:	8526                	mv	a0,s1
20005862:	85a2                	mv	a1,s0
20005864:	5a6040ef          	jal	20009e0a <__subdf3>
20005868:	8666                	mv	a2,s9
2000586a:	86ea                	mv	a3,s10
2000586c:	17e040ef          	jal	200099ea <__muldf3>
20005870:	c62e                	sw	a1,12(sp)
20005872:	c42a                	sw	a0,8(sp)
20005874:	3bd040ef          	jal	2000a430 <__fixunsdfsi>
20005878:	c82a                	sw	a0,16(sp)
2000587a:	465040ef          	jal	2000a4de <__floatunsidf>
2000587e:	862a                	mv	a2,a0
20005880:	86ae                	mv	a3,a1
20005882:	4522                	lw	a0,8(sp)
20005884:	45b2                	lw	a1,12(sp)
20005886:	584040ef          	jal	20009e0a <__subdf3>
2000588a:	2000c7b7          	lui	a5,0x2000c
2000588e:	f587a603          	lw	a2,-168(a5) # 2000bf58 <N_EFFECTS+0x30>
20005892:	f5c7a683          	lw	a3,-164(a5)
20005896:	c42a                	sw	a0,8(sp)
20005898:	c62e                	sw	a1,12(sp)
2000589a:	7e5030ef          	jal	2000987e <__gedf2>
2000589e:	48c2                	lw	a7,16(sp)
200058a0:	4852                	lw	a6,20(sp)
200058a2:	47e2                	lw	a5,24(sp)
200058a4:	4772                	lw	a4,28(sp)
200058a6:	24a05563          	blez	a0,20005af0 <_ftoa+0x372>
200058aa:	0885                	addi	a7,a7,1
200058ac:	8546                	mv	a0,a7
200058ae:	cc3a                	sw	a4,24(sp)
200058b0:	ca3e                	sw	a5,20(sp)
200058b2:	c842                	sw	a6,16(sp)
200058b4:	c446                	sw	a7,8(sp)
200058b6:	429040ef          	jal	2000a4de <__floatunsidf>
200058ba:	8666                	mv	a2,s9
200058bc:	86ea                	mv	a3,s10
200058be:	7c1030ef          	jal	2000987e <__gedf2>
200058c2:	48a2                	lw	a7,8(sp)
200058c4:	4842                	lw	a6,16(sp)
200058c6:	47d2                	lw	a5,20(sp)
200058c8:	4762                	lw	a4,24(sp)
200058ca:	00054463          	bltz	a0,200058d2 <_ftoa+0x154>
200058ce:	0805                	addi	a6,a6,1
200058d0:	4881                	li	a7,0
200058d2:	160c0963          	beqz	s8,20005a44 <_ftoa+0x2c6>
200058d6:	ccccd537          	lui	a0,0xccccd
200058da:	ccd50513          	addi	a0,a0,-819 # cccccccd <__StackTop+0xacc4accd>
200058de:	02000313          	li	t1,32
200058e2:	4e25                	li	t3,9
200058e4:	2a678463          	beq	a5,t1,20005b8c <_ftoa+0x40e>
200058e8:	02a8b633          	mulhu	a2,a7,a0
200058ec:	0785                	addi	a5,a5,1
200058ee:	00f705b3          	add	a1,a4,a5
200058f2:	1c7d                	addi	s8,s8,-1
200058f4:	820d                	srli	a2,a2,0x3
200058f6:	20c646b3          	sh2add	a3,a2,a2
200058fa:	0686                	slli	a3,a3,0x1
200058fc:	40d886b3          	sub	a3,a7,a3
20005900:	03068693          	addi	a3,a3,48
20005904:	fed58fa3          	sb	a3,-1(a1)
20005908:	271e7263          	bgeu	t3,a7,20005b6c <_ftoa+0x3ee>
2000590c:	88b2                	mv	a7,a2
2000590e:	bfd9                	j	200058e4 <_ftoa+0x166>
20005910:	87a2                	mv	a5,s0
20005912:	5466                	lw	s0,120(sp)
20005914:	c15a                	sw	s6,128(sp)
20005916:	50f6                	lw	ra,124(sp)
20005918:	5b06                	lw	s6,96(sp)
2000591a:	8726                	mv	a4,s1
2000591c:	88ce                	mv	a7,s3
2000591e:	54d6                	lw	s1,116(sp)
20005920:	59b6                	lw	s3,108(sp)
20005922:	8862                	mv	a6,s8
20005924:	86d6                	mv	a3,s5
20005926:	4c66                	lw	s8,88(sp)
20005928:	5a96                	lw	s5,100(sp)
2000592a:	865e                	mv	a2,s7
2000592c:	85d2                	mv	a1,s4
2000592e:	4bf6                	lw	s7,92(sp)
20005930:	5a26                	lw	s4,104(sp)
20005932:	854a                	mv	a0,s2
20005934:	5946                	lw	s2,112(sp)
20005936:	6109                	addi	sp,sp,128
20005938:	a649                	j	20005cba <_etoa>
2000593a:	004b7793          	andi	a5,s6,4
2000593e:	e7ad                	bnez	a5,200059a8 <_ftoa+0x22a>
20005940:	2000b737          	lui	a4,0x2000b
20005944:	15c70713          	addi	a4,a4,348 # 2000b15c <strcmp+0x4d8>
20005948:	478d                	li	a5,3
2000594a:	5466                	lw	s0,120(sp)
2000594c:	50f6                	lw	ra,124(sp)
2000594e:	54d6                	lw	s1,116(sp)
20005950:	4c66                	lw	s8,88(sp)
20005952:	88da                	mv	a7,s6
20005954:	884e                	mv	a6,s3
20005956:	5b06                	lw	s6,96(sp)
20005958:	59b6                	lw	s3,108(sp)
2000595a:	86d6                	mv	a3,s5
2000595c:	865e                	mv	a2,s7
2000595e:	5a96                	lw	s5,100(sp)
20005960:	4bf6                	lw	s7,92(sp)
20005962:	85d2                	mv	a1,s4
20005964:	854a                	mv	a0,s2
20005966:	5a26                	lw	s4,104(sp)
20005968:	5946                	lw	s2,112(sp)
2000596a:	6109                	addi	sp,sp,128
2000596c:	b3dff06f          	j	200054a8 <_out_rev>
20005970:	46a5                	li	a3,9
20005972:	4781                	li	a5,0
20005974:	1018                	addi	a4,sp,32
20005976:	03000593          	li	a1,48
2000597a:	3386f563          	bgeu	a3,s8,20005ca4 <_ftoa+0x526>
2000597e:	0785                	addi	a5,a5,1
20005980:	00f706b3          	add	a3,a4,a5
20005984:	feb68fa3          	sb	a1,-1(a3)
20005988:	1c7d                	addi	s8,s8,-1
2000598a:	fe078693          	addi	a3,a5,-32
2000598e:	ff7c0613          	addi	a2,s8,-9
20005992:	c291                	beqz	a3,20005996 <_ftoa+0x218>
20005994:	f66d                	bnez	a2,2000597e <_ftoa+0x200>
20005996:	2000c6b7          	lui	a3,0x2000c
2000599a:	f306a603          	lw	a2,-208(a3) # 2000bf30 <N_EFFECTS+0x8>
2000599e:	f346a683          	lw	a3,-204(a3)
200059a2:	8cb2                	mv	s9,a2
200059a4:	8d36                	mv	s10,a3
200059a6:	b555                	j	2000584a <_ftoa+0xcc>
200059a8:	2000b737          	lui	a4,0x2000b
200059ac:	15470713          	addi	a4,a4,340 # 2000b154 <strcmp+0x4d0>
200059b0:	4791                	li	a5,4
200059b2:	bf61                	j	2000594a <_ftoa+0x1cc>
200059b4:	8626                	mv	a2,s1
200059b6:	86a2                	mv	a3,s0
200059b8:	4501                	li	a0,0
200059ba:	4581                	li	a1,0
200059bc:	44e040ef          	jal	20009e0a <__subdf3>
200059c0:	400b7793          	andi	a5,s6,1024
200059c4:	84aa                	mv	s1,a0
200059c6:	842e                	mv	s0,a1
200059c8:	4d85                	li	s11,1
200059ca:	e60786e3          	beqz	a5,20005836 <_ftoa+0xb8>
200059ce:	b74d                	j	20005970 <_ftoa+0x1f2>
200059d0:	cae6                	sw	s9,84(sp)
200059d2:	003b7793          	andi	a5,s6,3
200059d6:	002b7c93          	andi	s9,s6,2
200059da:	84de                	mv	s1,s7
200059dc:	1c078c63          	beqz	a5,20005bb4 <_ftoa+0x436>
200059e0:	2000bc37          	lui	s8,0x2000b
200059e4:	164c0c13          	addi	s8,s8,356 # 2000b164 <strcmp+0x4e0>
200059e8:	8462                	mv	s0,s8
200059ea:	00940b33          	add	s6,s0,s1
200059ee:	1c71                	addi	s8,s8,-4
200059f0:	00344503          	lbu	a0,3(s0)
200059f4:	408b0633          	sub	a2,s6,s0
200059f8:	86d6                	mv	a3,s5
200059fa:	85d2                	mv	a1,s4
200059fc:	147d                	addi	s0,s0,-1
200059fe:	9902                	jalr	s2
20005a00:	ff8418e3          	bne	s0,s8,200059f0 <_ftoa+0x272>
20005a04:	0491                	addi	s1,s1,4
20005a06:	020c8163          	beqz	s9,20005a28 <_ftoa+0x2aa>
20005a0a:	417487b3          	sub	a5,s1,s7
20005a0e:	0137fd63          	bgeu	a5,s3,20005a28 <_ftoa+0x2aa>
20005a12:	8626                	mv	a2,s1
20005a14:	86d6                	mv	a3,s5
20005a16:	85d2                	mv	a1,s4
20005a18:	02000513          	li	a0,32
20005a1c:	0485                	addi	s1,s1,1
20005a1e:	9902                	jalr	s2
20005a20:	417487b3          	sub	a5,s1,s7
20005a24:	ff37e7e3          	bltu	a5,s3,20005a12 <_ftoa+0x294>
20005a28:	50f6                	lw	ra,124(sp)
20005a2a:	5466                	lw	s0,120(sp)
20005a2c:	4cd6                	lw	s9,84(sp)
20005a2e:	5946                	lw	s2,112(sp)
20005a30:	59b6                	lw	s3,108(sp)
20005a32:	5a26                	lw	s4,104(sp)
20005a34:	5a96                	lw	s5,100(sp)
20005a36:	5b06                	lw	s6,96(sp)
20005a38:	4bf6                	lw	s7,92(sp)
20005a3a:	4c66                	lw	s8,88(sp)
20005a3c:	8526                	mv	a0,s1
20005a3e:	54d6                	lw	s1,116(sp)
20005a40:	6109                	addi	sp,sp,128
20005a42:	8082                	ret
20005a44:	8542                	mv	a0,a6
20005a46:	ca3a                	sw	a4,20(sp)
20005a48:	c442                	sw	a6,8(sp)
20005a4a:	c83e                	sw	a5,16(sp)
20005a4c:	243040ef          	jal	2000a48e <__floatsidf>
20005a50:	862a                	mv	a2,a0
20005a52:	86ae                	mv	a3,a1
20005a54:	8526                	mv	a0,s1
20005a56:	85a2                	mv	a1,s0
20005a58:	3b2040ef          	jal	20009e0a <__subdf3>
20005a5c:	2000c7b7          	lui	a5,0x2000c
20005a60:	f587a403          	lw	s0,-168(a5) # 2000bf58 <N_EFFECTS+0x30>
20005a64:	f5c7a483          	lw	s1,-164(a5)
20005a68:	8c2a                	mv	s8,a0
20005a6a:	8622                	mv	a2,s0
20005a6c:	86a6                	mv	a3,s1
20005a6e:	8cae                	mv	s9,a1
20005a70:	6c5030ef          	jal	20009934 <__ledf2>
20005a74:	4822                	lw	a6,8(sp)
20005a76:	47c2                	lw	a5,16(sp)
20005a78:	4752                	lw	a4,20(sp)
20005a7a:	00054d63          	bltz	a0,20005a94 <_ftoa+0x316>
20005a7e:	8622                	mv	a2,s0
20005a80:	86a6                	mv	a3,s1
20005a82:	8562                	mv	a0,s8
20005a84:	85e6                	mv	a1,s9
20005a86:	5f9030ef          	jal	2000987e <__gedf2>
20005a8a:	4822                	lw	a6,8(sp)
20005a8c:	47c2                	lw	a5,16(sp)
20005a8e:	4752                	lw	a4,20(sp)
20005a90:	10a05e63          	blez	a0,20005bac <_ftoa+0x42e>
20005a94:	66666537          	lui	a0,0x66666
20005a98:	66750513          	addi	a0,a0,1639 # 66666667 <__StackTop+0x465e4667>
20005a9c:	02000893          	li	a7,32
20005aa0:	a01d                	j	20005ac6 <_ftoa+0x348>
20005aa2:	02a81633          	mulh	a2,a6,a0
20005aa6:	0785                	addi	a5,a5,1
20005aa8:	00f705b3          	add	a1,a4,a5
20005aac:	8609                	srai	a2,a2,0x2
20005aae:	8e15                	sub	a2,a2,a3
20005ab0:	20c646b3          	sh2add	a3,a2,a2
20005ab4:	0686                	slli	a3,a3,0x1
20005ab6:	40d806b3          	sub	a3,a6,a3
20005aba:	03068693          	addi	a3,a3,48
20005abe:	fed58fa3          	sb	a3,-1(a1)
20005ac2:	8832                	mv	a6,a2
20005ac4:	ce31                	beqz	a2,20005b20 <_ftoa+0x3a2>
20005ac6:	41f85693          	srai	a3,a6,0x1f
20005aca:	fd179ce3          	bne	a5,a7,20005aa2 <_ftoa+0x324>
20005ace:	003b7693          	andi	a3,s6,3
20005ad2:	4605                	li	a2,1
20005ad4:	10c68263          	beq	a3,a2,20005bd8 <_ftoa+0x45a>
20005ad8:	88da                	mv	a7,s6
20005ada:	884e                	mv	a6,s3
20005adc:	86d6                	mv	a3,s5
20005ade:	865e                	mv	a2,s7
20005ae0:	85d2                	mv	a1,s4
20005ae2:	854a                	mv	a0,s2
20005ae4:	9c5ff0ef          	jal	200054a8 <_out_rev>
20005ae8:	84aa                	mv	s1,a0
20005aea:	4d46                	lw	s10,80(sp)
20005aec:	4db6                	lw	s11,76(sp)
20005aee:	bf2d                	j	20005a28 <_ftoa+0x2aa>
20005af0:	cc3e                	sw	a5,24(sp)
20005af2:	2000c7b7          	lui	a5,0x2000c
20005af6:	f587a603          	lw	a2,-168(a5) # 2000bf58 <N_EFFECTS+0x30>
20005afa:	f5c7a683          	lw	a3,-164(a5)
20005afe:	4522                	lw	a0,8(sp)
20005b00:	45b2                	lw	a1,12(sp)
20005b02:	ce3a                	sw	a4,28(sp)
20005b04:	ca46                	sw	a7,20(sp)
20005b06:	c842                	sw	a6,16(sp)
20005b08:	62d030ef          	jal	20009934 <__ledf2>
20005b0c:	4842                	lw	a6,16(sp)
20005b0e:	48d2                	lw	a7,20(sp)
20005b10:	47e2                	lw	a5,24(sp)
20005b12:	4772                	lw	a4,28(sp)
20005b14:	da054fe3          	bltz	a0,200058d2 <_ftoa+0x154>
20005b18:	08089463          	bnez	a7,20005ba0 <_ftoa+0x422>
20005b1c:	0885                	addi	a7,a7,1
20005b1e:	bb55                	j	200058d2 <_ftoa+0x154>
20005b20:	003b7693          	andi	a3,s6,3
20005b24:	4605                	li	a2,1
20005b26:	14c68b63          	beq	a3,a2,20005c7c <_ftoa+0x4fe>
20005b2a:	02000693          	li	a3,32
20005b2e:	fad785e3          	beq	a5,a3,20005ad8 <_ftoa+0x35a>
20005b32:	02d00613          	li	a2,45
20005b36:	020d9563          	bnez	s11,20005b60 <_ftoa+0x3e2>
20005b3a:	004b7693          	andi	a3,s6,4
20005b3e:	ee99                	bnez	a3,20005b5c <_ftoa+0x3de>
20005b40:	008b7693          	andi	a3,s6,8
20005b44:	dad1                	beqz	a3,20005ad8 <_ftoa+0x35a>
20005b46:	02000613          	li	a2,32
20005b4a:	00c786b3          	add	a3,a5,a2
20005b4e:	00c105b3          	add	a1,sp,a2
20005b52:	96ae                	add	a3,a3,a1
20005b54:	fec68023          	sb	a2,-32(a3)
20005b58:	0785                	addi	a5,a5,1
20005b5a:	bfbd                	j	20005ad8 <_ftoa+0x35a>
20005b5c:	02b00613          	li	a2,43
20005b60:	002786b3          	add	a3,a5,sp
20005b64:	02c68023          	sb	a2,32(a3)
20005b68:	0785                	addi	a5,a5,1
20005b6a:	b7bd                	j	20005ad8 <_ftoa+0x35a>
20005b6c:	02678063          	beq	a5,t1,20005b8c <_ftoa+0x40e>
20005b70:	9c3e                	add	s8,s8,a5
20005b72:	03000593          	li	a1,48
20005b76:	02000613          	li	a2,32
20005b7a:	00fc0c63          	beq	s8,a5,20005b92 <_ftoa+0x414>
20005b7e:	0785                	addi	a5,a5,1
20005b80:	00f706b3          	add	a3,a4,a5
20005b84:	feb68fa3          	sb	a1,-1(a3)
20005b88:	fec799e3          	bne	a5,a2,20005b7a <_ftoa+0x3fc>
20005b8c:	02000793          	li	a5,32
20005b90:	b711                	j	20005a94 <_ftoa+0x316>
20005b92:	9c0a                	add	s8,s8,sp
20005b94:	02e00693          	li	a3,46
20005b98:	0785                	addi	a5,a5,1
20005b9a:	02dc0023          	sb	a3,32(s8)
20005b9e:	bddd                	j	20005a94 <_ftoa+0x316>
20005ba0:	0018f693          	andi	a3,a7,1
20005ba4:	d20687e3          	beqz	a3,200058d2 <_ftoa+0x154>
20005ba8:	0885                	addi	a7,a7,1
20005baa:	b325                	j	200058d2 <_ftoa+0x154>
20005bac:	0805                	addi	a6,a6,1
20005bae:	ffe87813          	andi	a6,a6,-2
20005bb2:	b5cd                	j	20005a94 <_ftoa+0x316>
20005bb4:	4791                	li	a5,4
20005bb6:	e337f5e3          	bgeu	a5,s3,200059e0 <_ftoa+0x262>
20005bba:	ffcb8413          	addi	s0,s7,-4 # 400b7ffc <__StackTop+0x20035ffc>
20005bbe:	013404b3          	add	s1,s0,s3
20005bc2:	845e                	mv	s0,s7
20005bc4:	8622                	mv	a2,s0
20005bc6:	86d6                	mv	a3,s5
20005bc8:	0405                	addi	s0,s0,1
20005bca:	85d2                	mv	a1,s4
20005bcc:	02000513          	li	a0,32
20005bd0:	9902                	jalr	s2
20005bd2:	fe9419e3          	bne	s0,s1,20005bc4 <_ftoa+0x446>
20005bd6:	b529                	j	200059e0 <_ftoa+0x262>
20005bd8:	f00980e3          	beqz	s3,20005ad8 <_ftoa+0x35a>
20005bdc:	080d9963          	bnez	s11,20005c6e <_ftoa+0x4f0>
20005be0:	00cb7693          	andi	a3,s6,12
20005be4:	e6c9                	bnez	a3,20005c6e <_ftoa+0x4f0>
20005be6:	0337f363          	bgeu	a5,s3,20005c0c <_ftoa+0x48e>
20005bea:	fe078693          	addi	a3,a5,-32
20005bee:	ce99                	beqz	a3,20005c0c <_ftoa+0x48e>
20005bf0:	03000613          	li	a2,48
20005bf4:	a011                	j	20005bf8 <_ftoa+0x47a>
20005bf6:	da95                	beqz	a3,20005b2a <_ftoa+0x3ac>
20005bf8:	0785                	addi	a5,a5,1
20005bfa:	00f706b3          	add	a3,a4,a5
20005bfe:	fec68fa3          	sb	a2,-1(a3)
20005c02:	fe078693          	addi	a3,a5,-32
20005c06:	ff37e8e3          	bltu	a5,s3,20005bf6 <_ftoa+0x478>
20005c0a:	b705                	j	20005b2a <_ftoa+0x3ac>
20005c0c:	02000693          	li	a3,32
20005c10:	f2d795e3          	bne	a5,a3,20005b3a <_ftoa+0x3bc>
20005c14:	b5d1                	j	20005ad8 <_ftoa+0x35a>
20005c16:	cae6                	sw	s9,84(sp)
20005c18:	003b7793          	andi	a5,s6,3
20005c1c:	002b7c93          	andi	s9,s6,2
20005c20:	845e                	mv	s0,s7
20005c22:	c3a5                	beqz	a5,20005c82 <_ftoa+0x504>
20005c24:	2000b4b7          	lui	s1,0x2000b
20005c28:	16048493          	addi	s1,s1,352 # 2000b160 <strcmp+0x4dc>
20005c2c:	ffd48b13          	addi	s6,s1,-3
20005c30:	8c22                	mv	s8,s0
20005c32:	0024c503          	lbu	a0,2(s1)
20005c36:	8662                	mv	a2,s8
20005c38:	86d6                	mv	a3,s5
20005c3a:	85d2                	mv	a1,s4
20005c3c:	14fd                	addi	s1,s1,-1
20005c3e:	0c05                	addi	s8,s8,1
20005c40:	9902                	jalr	s2
20005c42:	fe9b18e3          	bne	s6,s1,20005c32 <_ftoa+0x4b4>
20005c46:	00340493          	addi	s1,s0,3
20005c4a:	dc0c8fe3          	beqz	s9,20005a28 <_ftoa+0x2aa>
20005c4e:	417487b3          	sub	a5,s1,s7
20005c52:	dd37fbe3          	bgeu	a5,s3,20005a28 <_ftoa+0x2aa>
20005c56:	8626                	mv	a2,s1
20005c58:	86d6                	mv	a3,s5
20005c5a:	85d2                	mv	a1,s4
20005c5c:	02000513          	li	a0,32
20005c60:	0485                	addi	s1,s1,1
20005c62:	9902                	jalr	s2
20005c64:	417487b3          	sub	a5,s1,s7
20005c68:	ff37e7e3          	bltu	a5,s3,20005c56 <_ftoa+0x4d8>
20005c6c:	bb75                	j	20005a28 <_ftoa+0x2aa>
20005c6e:	19fd                	addi	s3,s3,-1
20005c70:	eb37fde3          	bgeu	a5,s3,20005b2a <_ftoa+0x3ac>
20005c74:	fe078693          	addi	a3,a5,-32
20005c78:	fea5                	bnez	a3,20005bf0 <_ftoa+0x472>
20005c7a:	bd45                	j	20005b2a <_ftoa+0x3ac>
20005c7c:	ea0987e3          	beqz	s3,20005b2a <_ftoa+0x3ac>
20005c80:	bfb1                	j	20005bdc <_ftoa+0x45e>
20005c82:	478d                	li	a5,3
20005c84:	fb37f0e3          	bgeu	a5,s3,20005c24 <_ftoa+0x4a6>
20005c88:	ffdb8413          	addi	s0,s7,-3
20005c8c:	944e                	add	s0,s0,s3
20005c8e:	84de                	mv	s1,s7
20005c90:	8626                	mv	a2,s1
20005c92:	86d6                	mv	a3,s5
20005c94:	0485                	addi	s1,s1,1
20005c96:	85d2                	mv	a1,s4
20005c98:	02000513          	li	a0,32
20005c9c:	9902                	jalr	s2
20005c9e:	fe8499e3          	bne	s1,s0,20005c90 <_ftoa+0x512>
20005ca2:	b749                	j	20005c24 <_ftoa+0x4a6>
20005ca4:	2000c6b7          	lui	a3,0x2000c
20005ca8:	88868693          	addi	a3,a3,-1912 # 2000b888 <pow10.0>
20005cac:	20dc66b3          	sh3add	a3,s8,a3
20005cb0:	4290                	lw	a2,0(a3)
20005cb2:	42d4                	lw	a3,4(a3)
20005cb4:	8cb2                	mv	s9,a2
20005cb6:	8d36                	mv	s10,a3
20005cb8:	be49                	j	2000584a <_ftoa+0xcc>

20005cba <_etoa>:
20005cba:	7175                	addi	sp,sp,-144
20005cbc:	c14a                	sw	s2,128(sp)
20005cbe:	d8da                	sw	s6,112(sp)
20005cc0:	d6de                	sw	s7,108(sp)
20005cc2:	d2e6                	sw	s9,100(sp)
20005cc4:	892a                	mv	s2,a0
20005cc6:	8b2e                	mv	s6,a1
20005cc8:	8cb2                	mv	s9,a2
20005cca:	8bb6                	mv	s7,a3
20005ccc:	853a                	mv	a0,a4
20005cce:	85be                	mv	a1,a5
20005cd0:	863a                	mv	a2,a4
20005cd2:	86be                	mv	a3,a5
20005cd4:	c522                	sw	s0,136(sp)
20005cd6:	c326                	sw	s1,132(sp)
20005cd8:	dece                	sw	s3,124(sp)
20005cda:	dcd2                	sw	s4,120(sp)
20005cdc:	d4e2                	sw	s8,104(sp)
20005cde:	c706                	sw	ra,140(sp)
20005ce0:	49ca                	lw	s3,144(sp)
20005ce2:	84ba                	mv	s1,a4
20005ce4:	843e                	mv	s0,a5
20005ce6:	8a42                	mv	s4,a6
20005ce8:	8c46                	mv	s8,a7
20005cea:	6b2040ef          	jal	2000a39c <__unorddf2>
20005cee:	e935                	bnez	a0,20005d62 <_etoa+0xa8>
20005cf0:	2000c7b7          	lui	a5,0x2000c
20005cf4:	f487a603          	lw	a2,-184(a5) # 2000bf48 <N_EFFECTS+0x20>
20005cf8:	f4c7a683          	lw	a3,-180(a5)
20005cfc:	8526                	mv	a0,s1
20005cfe:	85a2                	mv	a1,s0
20005d00:	37f030ef          	jal	2000987e <__gedf2>
20005d04:	04a04f63          	bgtz	a0,20005d62 <_etoa+0xa8>
20005d08:	2000c7b7          	lui	a5,0x2000c
20005d0c:	f407a603          	lw	a2,-192(a5) # 2000bf40 <N_EFFECTS+0x18>
20005d10:	f447a683          	lw	a3,-188(a5)
20005d14:	8526                	mv	a0,s1
20005d16:	85a2                	mv	a1,s0
20005d18:	41d030ef          	jal	20009934 <__ledf2>
20005d1c:	04054363          	bltz	a0,20005d62 <_etoa+0xa8>
20005d20:	8526                	mv	a0,s1
20005d22:	85a2                	mv	a1,s0
20005d24:	4601                	li	a2,0
20005d26:	4681                	li	a3,0
20005d28:	dad6                	sw	s5,116(sp)
20005d2a:	d0ea                	sw	s10,96(sp)
20005d2c:	ceee                	sw	s11,92(sp)
20005d2e:	407030ef          	jal	20009934 <__ledf2>
20005d32:	d026                	sw	s1,32(sp)
20005d34:	69f41a93          	binvi	s5,s0,0x1f
20005d38:	00054363          	bltz	a0,20005d3e <_etoa+0x84>
20005d3c:	8aa2                	mv	s5,s0
20005d3e:	28b01793          	bseti	a5,zero,0xb
20005d42:	00f9f7b3          	and	a5,s3,a5
20005d46:	4009f713          	andi	a4,s3,1024
20005d4a:	ca3e                	sw	a5,20(sp)
20005d4c:	c83a                	sw	a4,16(sp)
20005d4e:	0154e7b3          	or	a5,s1,s5
20005d52:	ef15                	bnez	a4,20005d8e <_etoa+0xd4>
20005d54:	e3d1                	bnez	a5,20005dd8 <_etoa+0x11e>
20005d56:	47d2                	lw	a5,20(sp)
20005d58:	4a19                	li	s4,6
20005d5a:	40078263          	beqz	a5,2000615e <_etoa+0x4a4>
20005d5e:	4815                	li	a6,5
20005d60:	a081                	j	20005da0 <_etoa+0xe6>
20005d62:	8726                	mv	a4,s1
20005d64:	87a2                	mv	a5,s0
20005d66:	c94e                	sw	s3,144(sp)
20005d68:	88e2                	mv	a7,s8
20005d6a:	8852                	mv	a6,s4
20005d6c:	86de                	mv	a3,s7
20005d6e:	8666                	mv	a2,s9
20005d70:	85da                	mv	a1,s6
20005d72:	854a                	mv	a0,s2
20005d74:	442a                	lw	s0,136(sp)
20005d76:	40ba                	lw	ra,140(sp)
20005d78:	449a                	lw	s1,132(sp)
20005d7a:	490a                	lw	s2,128(sp)
20005d7c:	59f6                	lw	s3,124(sp)
20005d7e:	5a66                	lw	s4,120(sp)
20005d80:	5b46                	lw	s6,112(sp)
20005d82:	5bb6                	lw	s7,108(sp)
20005d84:	5c26                	lw	s8,104(sp)
20005d86:	5c96                	lw	s9,100(sp)
20005d88:	6149                	addi	sp,sp,144
20005d8a:	9f5ff06f          	j	2000577e <_ftoa>
20005d8e:	e7b1                	bnez	a5,20005dda <_etoa+0x120>
20005d90:	47d2                	lw	a5,20(sp)
20005d92:	3c078663          	beqz	a5,2000615e <_etoa+0x4a4>
20005d96:	c802                	sw	zero,16(sp)
20005d98:	47c2                	lw	a5,16(sp)
20005d9a:	4801                	li	a6,0
20005d9c:	4147ca63          	blt	a5,s4,200061b0 <_etoa+0x4f6>
20005da0:	8526                	mv	a0,s1
20005da2:	85a2                	mv	a1,s0
20005da4:	4601                	li	a2,0
20005da6:	4681                	li	a3,0
20005da8:	c842                	sw	a6,16(sp)
20005daa:	38b030ef          	jal	20009934 <__ledf2>
20005dae:	4842                	lw	a6,16(sp)
20005db0:	8726                	mv	a4,s1
20005db2:	87d6                	mv	a5,s5
20005db4:	00055463          	bgez	a0,20005dbc <_etoa+0x102>
20005db8:	69fa9793          	binvi	a5,s5,0x1f
20005dbc:	48b99993          	bclri	s3,s3,0xb
20005dc0:	4009e993          	ori	s3,s3,1024
20005dc4:	5ad6                	lw	s5,116(sp)
20005dc6:	5d06                	lw	s10,96(sp)
20005dc8:	4df6                	lw	s11,92(sp)
20005dca:	c94e                	sw	s3,144(sp)
20005dcc:	88e2                	mv	a7,s8
20005dce:	86de                	mv	a3,s7
20005dd0:	8666                	mv	a2,s9
20005dd2:	85da                	mv	a1,s6
20005dd4:	854a                	mv	a0,s2
20005dd6:	bf79                	j	20005d74 <_etoa+0xba>
20005dd8:	4a19                	li	s4,6
20005dda:	014ad513          	srli	a0,s5,0x14
20005dde:	7ff57513          	andi	a0,a0,2047
20005de2:	c0150513          	addi	a0,a0,-1023
20005de6:	6a8040ef          	jal	2000a48e <__floatsidf>
20005dea:	2000c7b7          	lui	a5,0x2000c
20005dee:	f607a603          	lw	a2,-160(a5) # 2000bf60 <N_EFFECTS+0x38>
20005df2:	f647a683          	lw	a3,-156(a5)
20005df6:	3f5030ef          	jal	200099ea <__muldf3>
20005dfa:	2000c7b7          	lui	a5,0x2000c
20005dfe:	f687a603          	lw	a2,-152(a5) # 2000bf68 <N_EFFECTS+0x40>
20005e02:	f6c7a683          	lw	a3,-148(a5)
20005e06:	040030ef          	jal	20008e46 <__adddf3>
20005e0a:	00ca9793          	slli	a5,s5,0xc
20005e0e:	3ff00737          	lui	a4,0x3ff00
20005e12:	83b1                	srli	a5,a5,0xc
20005e14:	8fd9                	or	a5,a5,a4
20005e16:	8dae                	mv	s11,a1
20005e18:	85be                	mv	a1,a5
20005e1a:	2000c7b7          	lui	a5,0x2000c
20005e1e:	f707a603          	lw	a2,-144(a5) # 2000bf70 <N_EFFECTS+0x48>
20005e22:	f747a683          	lw	a3,-140(a5)
20005e26:	8d2a                	mv	s10,a0
20005e28:	8526                	mv	a0,s1
20005e2a:	7e1030ef          	jal	20009e0a <__subdf3>
20005e2e:	2000c7b7          	lui	a5,0x2000c
20005e32:	f787a603          	lw	a2,-136(a5) # 2000bf78 <N_EFFECTS+0x50>
20005e36:	f7c7a683          	lw	a3,-132(a5)
20005e3a:	3b1030ef          	jal	200099ea <__muldf3>
20005e3e:	862a                	mv	a2,a0
20005e40:	86ae                	mv	a3,a1
20005e42:	856a                	mv	a0,s10
20005e44:	85ee                	mv	a1,s11
20005e46:	000030ef          	jal	20008e46 <__adddf3>
20005e4a:	586040ef          	jal	2000a3d0 <__fixdfsi>
20005e4e:	c82a                	sw	a0,16(sp)
20005e50:	63e040ef          	jal	2000a48e <__floatsidf>
20005e54:	2000c7b7          	lui	a5,0x2000c
20005e58:	f807a603          	lw	a2,-128(a5) # 2000bf80 <N_EFFECTS+0x58>
20005e5c:	f847a683          	lw	a3,-124(a5)
20005e60:	cc2a                	sw	a0,24(sp)
20005e62:	ce2e                	sw	a1,28(sp)
20005e64:	387030ef          	jal	200099ea <__muldf3>
20005e68:	2000c7b7          	lui	a5,0x2000c
20005e6c:	f587a603          	lw	a2,-168(a5) # 2000bf58 <N_EFFECTS+0x30>
20005e70:	f5c7a683          	lw	a3,-164(a5)
20005e74:	7d3020ef          	jal	20008e46 <__adddf3>
20005e78:	558040ef          	jal	2000a3d0 <__fixdfsi>
20005e7c:	2000c7b7          	lui	a5,0x2000c
20005e80:	f887a603          	lw	a2,-120(a5) # 2000bf88 <N_EFFECTS+0x60>
20005e84:	f8c7a683          	lw	a3,-116(a5)
20005e88:	8d2a                	mv	s10,a0
20005e8a:	45f2                	lw	a1,28(sp)
20005e8c:	4562                	lw	a0,24(sp)
20005e8e:	35d030ef          	jal	200099ea <__muldf3>
20005e92:	cc2a                	sw	a0,24(sp)
20005e94:	856a                	mv	a0,s10
20005e96:	d26a                	sw	s10,36(sp)
20005e98:	ce2e                	sw	a1,28(sp)
20005e9a:	5f4040ef          	jal	2000a48e <__floatsidf>
20005e9e:	2000c7b7          	lui	a5,0x2000c
20005ea2:	f907a603          	lw	a2,-112(a5) # 2000bf90 <N_EFFECTS+0x68>
20005ea6:	f947a683          	lw	a3,-108(a5)
20005eaa:	341030ef          	jal	200099ea <__muldf3>
20005eae:	862a                	mv	a2,a0
20005eb0:	86ae                	mv	a3,a1
20005eb2:	4562                	lw	a0,24(sp)
20005eb4:	45f2                	lw	a1,28(sp)
20005eb6:	755030ef          	jal	20009e0a <__subdf3>
20005eba:	862a                	mv	a2,a0
20005ebc:	86ae                	mv	a3,a1
20005ebe:	8d2a                	mv	s10,a0
20005ec0:	8dae                	mv	s11,a1
20005ec2:	329030ef          	jal	200099ea <__muldf3>
20005ec6:	cc2a                	sw	a0,24(sp)
20005ec8:	ce2e                	sw	a1,28(sp)
20005eca:	866a                	mv	a2,s10
20005ecc:	86ee                	mv	a3,s11
20005ece:	856a                	mv	a0,s10
20005ed0:	85ee                	mv	a1,s11
20005ed2:	775020ef          	jal	20008e46 <__adddf3>
20005ed6:	2000c7b7          	lui	a5,0x2000c
20005eda:	f987a603          	lw	a2,-104(a5) # 2000bf98 <N_EFFECTS+0x70>
20005ede:	f9c7a683          	lw	a3,-100(a5)
20005ee2:	d42a                	sw	a0,40(sp)
20005ee4:	d62e                	sw	a1,44(sp)
20005ee6:	4562                	lw	a0,24(sp)
20005ee8:	45f2                	lw	a1,28(sp)
20005eea:	4da030ef          	jal	200093c4 <__divdf3>
20005eee:	2000c837          	lui	a6,0x2000c
20005ef2:	fa082603          	lw	a2,-96(a6) # 2000bfa0 <N_EFFECTS+0x78>
20005ef6:	fa482683          	lw	a3,-92(a6)
20005efa:	74d020ef          	jal	20008e46 <__adddf3>
20005efe:	862a                	mv	a2,a0
20005f00:	86ae                	mv	a3,a1
20005f02:	4562                	lw	a0,24(sp)
20005f04:	45f2                	lw	a1,28(sp)
20005f06:	4be030ef          	jal	200093c4 <__divdf3>
20005f0a:	2000c7b7          	lui	a5,0x2000c
20005f0e:	fa87a603          	lw	a2,-88(a5) # 2000bfa8 <N_EFFECTS+0x80>
20005f12:	fac7a683          	lw	a3,-84(a5)
20005f16:	731020ef          	jal	20008e46 <__adddf3>
20005f1a:	862a                	mv	a2,a0
20005f1c:	86ae                	mv	a3,a1
20005f1e:	4562                	lw	a0,24(sp)
20005f20:	45f2                	lw	a1,28(sp)
20005f22:	4a2030ef          	jal	200093c4 <__divdf3>
20005f26:	2000c7b7          	lui	a5,0x2000c
20005f2a:	cc2a                	sw	a0,24(sp)
20005f2c:	ce2e                	sw	a1,28(sp)
20005f2e:	fb07a503          	lw	a0,-80(a5) # 2000bfb0 <N_EFFECTS+0x88>
20005f32:	fb47a583          	lw	a1,-76(a5)
20005f36:	866a                	mv	a2,s10
20005f38:	86ee                	mv	a3,s11
20005f3a:	6d1030ef          	jal	20009e0a <__subdf3>
20005f3e:	862a                	mv	a2,a0
20005f40:	86ae                	mv	a3,a1
20005f42:	4562                	lw	a0,24(sp)
20005f44:	45f2                	lw	a1,28(sp)
20005f46:	701020ef          	jal	20008e46 <__adddf3>
20005f4a:	862a                	mv	a2,a0
20005f4c:	86ae                	mv	a3,a1
20005f4e:	5522                	lw	a0,40(sp)
20005f50:	55b2                	lw	a1,44(sp)
20005f52:	472030ef          	jal	200093c4 <__divdf3>
20005f56:	2000c7b7          	lui	a5,0x2000c
20005f5a:	fb87a603          	lw	a2,-72(a5) # 2000bfb8 <N_EFFECTS+0x90>
20005f5e:	fbc7a683          	lw	a3,-68(a5)
20005f62:	6e5020ef          	jal	20008e46 <__adddf3>
20005f66:	5792                	lw	a5,36(sp)
20005f68:	4601                	li	a2,0
20005f6a:	3ff78793          	addi	a5,a5,1023
20005f6e:	01479693          	slli	a3,a5,0x14
20005f72:	279030ef          	jal	200099ea <__muldf3>
20005f76:	862a                	mv	a2,a0
20005f78:	d22a                	sw	a0,36(sp)
20005f7a:	86ae                	mv	a3,a1
20005f7c:	cc2e                	sw	a1,24(sp)
20005f7e:	8526                	mv	a0,s1
20005f80:	85d6                	mv	a1,s5
20005f82:	1b3030ef          	jal	20009934 <__ledf2>
20005f86:	47e2                	lw	a5,24(sp)
20005f88:	5712                	lw	a4,36(sp)
20005f8a:	02055163          	bgez	a0,20005fac <_etoa+0x2f2>
20005f8e:	2000c837          	lui	a6,0x2000c
20005f92:	85be                	mv	a1,a5
20005f94:	47c2                	lw	a5,16(sp)
20005f96:	fa082603          	lw	a2,-96(a6) # 2000bfa0 <N_EFFECTS+0x78>
20005f9a:	fa482683          	lw	a3,-92(a6)
20005f9e:	17fd                	addi	a5,a5,-1
20005fa0:	853a                	mv	a0,a4
20005fa2:	c83e                	sw	a5,16(sp)
20005fa4:	420030ef          	jal	200093c4 <__divdf3>
20005fa8:	872a                	mv	a4,a0
20005faa:	87ae                	mv	a5,a1
20005fac:	46c2                	lw	a3,16(sp)
20005fae:	0c600593          	li	a1,198
20005fb2:	863a                	mv	a2,a4
20005fb4:	06368693          	addi	a3,a3,99
20005fb8:	853e                	mv	a0,a5
20005fba:	0029fd13          	andi	s10,s3,2
20005fbe:	12d5e563          	bltu	a1,a3,200060e8 <_etoa+0x42e>
20005fc2:	46d2                	lw	a3,20(sp)
20005fc4:	4d91                	li	s11,4
20005fc6:	12069e63          	bnez	a3,20006102 <_etoa+0x448>
20005fca:	4691                	li	a3,4
20005fcc:	8db6                	mv	s11,a3
20005fce:	0186f763          	bgeu	a3,s8,20005fdc <_etoa+0x322>
20005fd2:	1e0d1363          	bnez	s10,200061b8 <_etoa+0x4fe>
20005fd6:	ffcc0693          	addi	a3,s8,-4
20005fda:	ca36                	sw	a3,20(sp)
20005fdc:	46c2                	lw	a3,16(sp)
20005fde:	ca89                	beqz	a3,20005ff0 <_etoa+0x336>
20005fe0:	85d6                	mv	a1,s5
20005fe2:	863a                	mv	a2,a4
20005fe4:	86be                	mv	a3,a5
20005fe6:	8526                	mv	a0,s1
20005fe8:	3dc030ef          	jal	200093c4 <__divdf3>
20005fec:	d02a                	sw	a0,32(sp)
20005fee:	8aae                	mv	s5,a1
20005ff0:	8526                	mv	a0,s1
20005ff2:	85a2                	mv	a1,s0
20005ff4:	4601                	li	a2,0
20005ff6:	4681                	li	a3,0
20005ff8:	13d030ef          	jal	20009934 <__ledf2>
20005ffc:	1a054063          	bltz	a0,2000619c <_etoa+0x4e2>
20006000:	5702                	lw	a4,32(sp)
20006002:	87d6                	mv	a5,s5
20006004:	48d2                	lw	a7,20(sp)
20006006:	48b99693          	bclri	a3,s3,0xb
2000600a:	4859d993          	bexti	s3,s3,0x5
2000600e:	8852                	mv	a6,s4
20006010:	c036                	sw	a3,0(sp)
20006012:	8666                	mv	a2,s9
20006014:	86de                	mv	a3,s7
20006016:	85da                	mv	a1,s6
20006018:	854a                	mv	a0,s2
2000601a:	19fd                	addi	s3,s3,-1
2000601c:	f62ff0ef          	jal	2000577e <_ftoa>
20006020:	0209f993          	andi	s3,s3,32
20006024:	862a                	mv	a2,a0
20006026:	86de                	mv	a3,s7
20006028:	04598513          	addi	a0,s3,69
2000602c:	85da                	mv	a1,s6
2000602e:	00160413          	addi	s0,a2,1
20006032:	9902                	jalr	s2
20006034:	47c2                	lw	a5,16(sp)
20006036:	ccccde37          	lui	t3,0xccccd
2000603a:	fffd8e93          	addi	t4,s11,-1
2000603e:	40f006b3          	neg	a3,a5
20006042:	47c2                	lw	a5,16(sp)
20006044:	1818                	addi	a4,sp,48
20006046:	ccde0e13          	addi	t3,t3,-819 # cccccccd <__StackTop+0xacc4accd>
2000604a:	0ad7e6b3          	max	a3,a5,a3
2000604e:	01f7d813          	srli	a6,a5,0x1f
20006052:	4781                	li	a5,0
20006054:	03c6b633          	mulhu	a2,a3,t3
20006058:	0785                	addi	a5,a5,1
2000605a:	00a6b593          	sltiu	a1,a3,10
2000605e:	00f708b3          	add	a7,a4,a5
20006062:	fe078313          	addi	t1,a5,-32
20006066:	820d                	srli	a2,a2,0x3
20006068:	20c64533          	sh2add	a0,a2,a2
2000606c:	0506                	slli	a0,a0,0x1
2000606e:	8e89                	sub	a3,a3,a0
20006070:	03068693          	addi	a3,a3,48
20006074:	fed88fa3          	sb	a3,-1(a7)
20006078:	86b2                	mv	a3,a2
2000607a:	e199                	bnez	a1,20006080 <_etoa+0x3c6>
2000607c:	fc031ce3          	bnez	t1,20006054 <_etoa+0x39a>
20006080:	4695                	li	a3,5
20006082:	c436                	sw	a3,8(sp)
20006084:	c276                	sw	t4,4(sp)
20006086:	c002                	sw	zero,0(sp)
20006088:	8622                	mv	a2,s0
2000608a:	48a9                	li	a7,10
2000608c:	86de                	mv	a3,s7
2000608e:	85da                	mv	a1,s6
20006090:	854a                	mv	a0,s2
20006092:	cdaff0ef          	jal	2000556c <_ntoa_format>
20006096:	84aa                	mv	s1,a0
20006098:	020d0863          	beqz	s10,200060c8 <_etoa+0x40e>
2000609c:	41950433          	sub	s0,a0,s9
200060a0:	03847463          	bgeu	s0,s8,200060c8 <_etoa+0x40e>
200060a4:	008c8633          	add	a2,s9,s0
200060a8:	86de                	mv	a3,s7
200060aa:	85da                	mv	a1,s6
200060ac:	02000513          	li	a0,32
200060b0:	0405                	addi	s0,s0,1
200060b2:	9902                	jalr	s2
200060b4:	ff8468e3          	bltu	s0,s8,200060a4 <_etoa+0x3ea>
200060b8:	41948733          	sub	a4,s1,s9
200060bc:	0705                	addi	a4,a4,1 # 3ff00001 <__StackTop+0x1fe7e001>
200060be:	4781                	li	a5,0
200060c0:	0cec7963          	bgeu	s8,a4,20006192 <_etoa+0x4d8>
200060c4:	0485                	addi	s1,s1,1
200060c6:	94be                	add	s1,s1,a5
200060c8:	40ba                	lw	ra,140(sp)
200060ca:	442a                	lw	s0,136(sp)
200060cc:	5ad6                	lw	s5,116(sp)
200060ce:	5d06                	lw	s10,96(sp)
200060d0:	4df6                	lw	s11,92(sp)
200060d2:	490a                	lw	s2,128(sp)
200060d4:	59f6                	lw	s3,124(sp)
200060d6:	5a66                	lw	s4,120(sp)
200060d8:	5b46                	lw	s6,112(sp)
200060da:	5bb6                	lw	s7,108(sp)
200060dc:	5c26                	lw	s8,104(sp)
200060de:	5c96                	lw	s9,100(sp)
200060e0:	8526                	mv	a0,s1
200060e2:	449a                	lw	s1,132(sp)
200060e4:	6149                	addi	sp,sp,144
200060e6:	8082                	ret
200060e8:	46d2                	lw	a3,20(sp)
200060ea:	ea99                	bnez	a3,20006100 <_etoa+0x446>
200060ec:	4695                	li	a3,5
200060ee:	8db6                	mv	s11,a3
200060f0:	ef86f8e3          	bgeu	a3,s8,20005fe0 <_etoa+0x326>
200060f4:	0c0d1463          	bnez	s10,200061bc <_etoa+0x502>
200060f8:	ffbc0693          	addi	a3,s8,-5
200060fc:	ca36                	sw	a3,20(sp)
200060fe:	b5cd                	j	20005fe0 <_etoa+0x326>
20006100:	4d95                	li	s11,5
20006102:	8e49                	or	a2,a2,a0
20006104:	c8060ae3          	beqz	a2,20005d98 <_etoa+0xde>
20006108:	2000c6b7          	lui	a3,0x2000c
2000610c:	fc06a603          	lw	a2,-64(a3) # 2000bfc0 <N_EFFECTS+0x98>
20006110:	fc46a683          	lw	a3,-60(a3)
20006114:	8526                	mv	a0,s1
20006116:	85d6                	mv	a1,s5
20006118:	ca3a                	sw	a4,20(sp)
2000611a:	cc3e                	sw	a5,24(sp)
2000611c:	762030ef          	jal	2000987e <__gedf2>
20006120:	4752                	lw	a4,20(sp)
20006122:	47e2                	lw	a5,24(sp)
20006124:	02054063          	bltz	a0,20006144 <_etoa+0x48a>
20006128:	2000c6b7          	lui	a3,0x2000c
2000612c:	f386a603          	lw	a2,-200(a3) # 2000bf38 <N_EFFECTS+0x10>
20006130:	f3c6a683          	lw	a3,-196(a3)
20006134:	8526                	mv	a0,s1
20006136:	85d6                	mv	a1,s5
20006138:	7fc030ef          	jal	20009934 <__ledf2>
2000613c:	c4054ee3          	bltz	a0,20005d98 <_etoa+0xde>
20006140:	4752                	lw	a4,20(sp)
20006142:	47e2                	lw	a5,24(sp)
20006144:	020a0b63          	beqz	s4,2000617a <_etoa+0x4c0>
20006148:	4009f693          	andi	a3,s3,1024
2000614c:	c69d                	beqz	a3,2000617a <_etoa+0x4c0>
2000614e:	1a7d                	addi	s4,s4,-1
20006150:	018df563          	bgeu	s11,s8,2000615a <_etoa+0x4a0>
20006154:	040d0a63          	beqz	s10,200061a8 <_etoa+0x4ee>
20006158:	4d09                	li	s10,2
2000615a:	ca02                	sw	zero,20(sp)
2000615c:	b541                	j	20005fdc <_etoa+0x322>
2000615e:	0029f793          	andi	a5,s3,2
20006162:	8d3e                	mv	s10,a5
20006164:	e395                	bnez	a5,20006188 <_etoa+0x4ce>
20006166:	004c3793          	sltiu	a5,s8,4
2000616a:	17fd                	addi	a5,a5,-1
2000616c:	ffcc0713          	addi	a4,s8,-4
20006170:	8ff9                	and	a5,a5,a4
20006172:	ca3e                	sw	a5,20(sp)
20006174:	c802                	sw	zero,16(sp)
20006176:	4d91                	li	s11,4
20006178:	bda5                	j	20005ff0 <_etoa+0x336>
2000617a:	ff8df0e3          	bgeu	s11,s8,2000615a <_etoa+0x4a0>
2000617e:	020d0563          	beqz	s10,200061a8 <_etoa+0x4ee>
20006182:	ca02                	sw	zero,20(sp)
20006184:	4d09                	li	s10,2
20006186:	bd99                	j	20005fdc <_etoa+0x322>
20006188:	ca02                	sw	zero,20(sp)
2000618a:	c802                	sw	zero,16(sp)
2000618c:	4d09                	li	s10,2
2000618e:	4d91                	li	s11,4
20006190:	b585                	j	20005ff0 <_etoa+0x336>
20006192:	fffc8793          	addi	a5,s9,-1
20006196:	97e2                	add	a5,a5,s8
20006198:	8f85                	sub	a5,a5,s1
2000619a:	b72d                	j	200060c4 <_etoa+0x40a>
2000619c:	5602                	lw	a2,32(sp)
2000619e:	69fa9693          	binvi	a3,s5,0x1f
200061a2:	87b6                	mv	a5,a3
200061a4:	8732                	mv	a4,a2
200061a6:	bdb9                	j	20006004 <_etoa+0x34a>
200061a8:	41bc06b3          	sub	a3,s8,s11
200061ac:	ca36                	sw	a3,20(sp)
200061ae:	b53d                	j	20005fdc <_etoa+0x322>
200061b0:	40fa0833          	sub	a6,s4,a5
200061b4:	187d                	addi	a6,a6,-1
200061b6:	b6ed                	j	20005da0 <_etoa+0xe6>
200061b8:	4d09                	li	s10,2
200061ba:	b50d                	j	20005fdc <_etoa+0x322>
200061bc:	4d09                	li	s10,2
200061be:	b50d                	j	20005fe0 <_etoa+0x326>

200061c0 <_vsnprintf>:
200061c0:	200067b7          	lui	a5,0x20006
200061c4:	7135                	addi	sp,sp,-160
200061c6:	1c078793          	addi	a5,a5,448 # 200061c0 <_vsnprintf>
200061ca:	cb26                	sw	s1,148(sp)
200061cc:	c94a                	sw	s2,144(sp)
200061ce:	c74e                	sw	s3,140(sp)
200061d0:	c552                	sw	s4,136(sp)
200061d2:	dae6                	sw	s9,116(sp)
200061d4:	cf06                	sw	ra,156(sp)
200061d6:	cd22                	sw	s0,152(sp)
200061d8:	d8ea                	sw	s10,112(sp)
200061da:	84f1a023          	sw	a5,-1984(gp) # 2000c7cc <lazy_vsnprintf>
200061de:	8a2e                	mv	s4,a1
200061e0:	8cb6                	mv	s9,a3
200061e2:	893a                	mv	s2,a4
200061e4:	89b2                	mv	s3,a2
200061e6:	84aa                	mv	s1,a0
200061e8:	3c058663          	beqz	a1,200065b4 <_vsnprintf+0x3f4>
200061ec:	000cc503          	lbu	a0,0(s9)
200061f0:	4d01                	li	s10,0
200061f2:	3c050a63          	beqz	a0,200065c6 <_vsnprintf+0x406>
200061f6:	c356                	sw	s5,132(sp)
200061f8:	dede                	sw	s7,124(sp)
200061fa:	2000bab7          	lui	s5,0x2000b
200061fe:	2000bbb7          	lui	s7,0x2000b
20006202:	c15a                	sw	s6,128(sp)
20006204:	dce2                	sw	s8,120(sp)
20006206:	d6ee                	sw	s11,108(sp)
20006208:	6e8a8a93          	addi	s5,s5,1768 # 2000b6e8 <__bi_48+0xc>
2000620c:	72cb8b93          	addi	s7,s7,1836 # 2000b72c <__bi_48+0x50>
20006210:	02500b13          	li	s6,37
20006214:	4441                	li	s0,16
20006216:	a811                	j	2000622a <_vsnprintf+0x6a>
20006218:	866a                	mv	a2,s10
2000621a:	86ce                	mv	a3,s3
2000621c:	85d2                	mv	a1,s4
2000621e:	9482                	jalr	s1
20006220:	0d05                	addi	s10,s10,1
20006222:	000cc503          	lbu	a0,0(s9)
20006226:	10050b63          	beqz	a0,2000633c <_vsnprintf+0x17c>
2000622a:	0c85                	addi	s9,s9,1
2000622c:	ff6516e3          	bne	a0,s6,20006218 <_vsnprintf+0x58>
20006230:	4681                	li	a3,0
20006232:	000cc503          	lbu	a0,0(s9)
20006236:	001c8713          	addi	a4,s9,1
2000623a:	fe050793          	addi	a5,a0,-32
2000623e:	0ff7f793          	zext.b	a5,a5
20006242:	00f46663          	bltu	s0,a5,2000624e <_vsnprintf+0x8e>
20006246:	2157c7b3          	sh2add	a5,a5,s5
2000624a:	439c                	lw	a5,0(a5)
2000624c:	8782                	jr	a5
2000624e:	fd050793          	addi	a5,a0,-48
20006252:	0ff7f793          	zext.b	a5,a5
20006256:	4625                	li	a2,9
20006258:	08f67963          	bgeu	a2,a5,200062ea <_vsnprintf+0x12a>
2000625c:	02a00793          	li	a5,42
20006260:	4d81                	li	s11,0
20006262:	1af50d63          	beq	a0,a5,2000641c <_vsnprintf+0x25c>
20006266:	02e00793          	li	a5,46
2000626a:	4801                	li	a6,0
2000626c:	0af50563          	beq	a0,a5,20006316 <_vsnprintf+0x156>
20006270:	f9850793          	addi	a5,a0,-104
20006274:	0ff7f793          	zext.b	a5,a5
20006278:	4649                	li	a2,18
2000627a:	02f66f63          	bltu	a2,a5,200062b8 <_vsnprintf+0xf8>
2000627e:	2177c7b3          	sh2add	a5,a5,s7
20006282:	439c                	lw	a5,0(a5)
20006284:	8782                	jr	a5
20006286:	0016e693          	ori	a3,a3,1
2000628a:	8cba                	mv	s9,a4
2000628c:	b75d                	j	20006232 <_vsnprintf+0x72>
2000628e:	0026e693          	ori	a3,a3,2
20006292:	8cba                	mv	s9,a4
20006294:	bf79                	j	20006232 <_vsnprintf+0x72>
20006296:	0046e693          	ori	a3,a3,4
2000629a:	8cba                	mv	s9,a4
2000629c:	bf59                	j	20006232 <_vsnprintf+0x72>
2000629e:	0106e693          	ori	a3,a3,16
200062a2:	8cba                	mv	s9,a4
200062a4:	b779                	j	20006232 <_vsnprintf+0x72>
200062a6:	0086e693          	ori	a3,a3,8
200062aa:	8cba                	mv	s9,a4
200062ac:	b759                	j	20006232 <_vsnprintf+0x72>
200062ae:	001cc503          	lbu	a0,1(s9)
200062b2:	1006e693          	ori	a3,a3,256
200062b6:	0705                	addi	a4,a4,1
200062b8:	06700793          	li	a5,103
200062bc:	8cba                	mv	s9,a4
200062be:	0aa7e963          	bltu	a5,a0,20006370 <_vsnprintf+0x1b0>
200062c2:	02400793          	li	a5,36
200062c6:	f4a7f9e3          	bgeu	a5,a0,20006218 <_vsnprintf+0x58>
200062ca:	fdb50793          	addi	a5,a0,-37
200062ce:	0ff7f793          	zext.b	a5,a5
200062d2:	04200713          	li	a4,66
200062d6:	f4f761e3          	bltu	a4,a5,20006218 <_vsnprintf+0x58>
200062da:	2000b737          	lui	a4,0x2000b
200062de:	77870713          	addi	a4,a4,1912 # 2000b778 <__bi_48+0x9c>
200062e2:	20e7c7b3          	sh2add	a5,a5,a4
200062e6:	439c                	lw	a5,0(a5)
200062e8:	8782                	jr	a5
200062ea:	4d81                	li	s11,0
200062ec:	21bdcdb3          	sh2add	s11,s11,s11
200062f0:	20adadb3          	sh1add	s11,s11,a0
200062f4:	00074503          	lbu	a0,0(a4)
200062f8:	8cba                	mv	s9,a4
200062fa:	fd0d8d93          	addi	s11,s11,-48
200062fe:	fd050793          	addi	a5,a0,-48
20006302:	0ff7f793          	zext.b	a5,a5
20006306:	0705                	addi	a4,a4,1
20006308:	fef672e3          	bgeu	a2,a5,200062ec <_vsnprintf+0x12c>
2000630c:	02e00793          	li	a5,46
20006310:	4801                	li	a6,0
20006312:	f4f51fe3          	bne	a0,a5,20006270 <_vsnprintf+0xb0>
20006316:	001cc503          	lbu	a0,1(s9)
2000631a:	45a5                	li	a1,9
2000631c:	4006e693          	ori	a3,a3,1024
20006320:	fd050793          	addi	a5,a0,-48
20006324:	0ff7f793          	zext.b	a5,a5
20006328:	863a                	mv	a2,a4
2000632a:	0cf5f663          	bgeu	a1,a5,200063f6 <_vsnprintf+0x236>
2000632e:	02a00793          	li	a5,42
20006332:	2af50d63          	beq	a0,a5,200065ec <_vsnprintf+0x42c>
20006336:	8cba                	mv	s9,a4
20006338:	0705                	addi	a4,a4,1
2000633a:	bf1d                	j	20006270 <_vsnprintf+0xb0>
2000633c:	4a9a                	lw	s5,132(sp)
2000633e:	4b0a                	lw	s6,128(sp)
20006340:	5bf6                	lw	s7,124(sp)
20006342:	5c66                	lw	s8,120(sp)
20006344:	5db6                	lw	s11,108(sp)
20006346:	846a                	mv	s0,s10
20006348:	013d6463          	bltu	s10,s3,20006350 <_vsnprintf+0x190>
2000634c:	fff98d13          	addi	s10,s3,-1
20006350:	86ce                	mv	a3,s3
20006352:	866a                	mv	a2,s10
20006354:	85d2                	mv	a1,s4
20006356:	4501                	li	a0,0
20006358:	9482                	jalr	s1
2000635a:	40fa                	lw	ra,156(sp)
2000635c:	8522                	mv	a0,s0
2000635e:	446a                	lw	s0,152(sp)
20006360:	44da                	lw	s1,148(sp)
20006362:	494a                	lw	s2,144(sp)
20006364:	49ba                	lw	s3,140(sp)
20006366:	4a2a                	lw	s4,136(sp)
20006368:	5cd6                	lw	s9,116(sp)
2000636a:	5d46                	lw	s10,112(sp)
2000636c:	610d                	addi	sp,sp,160
2000636e:	8082                	ret
20006370:	f9750593          	addi	a1,a0,-105
20006374:	0ff5f713          	zext.b	a4,a1
20006378:	47bd                	li	a5,15
2000637a:	e8e7efe3          	bltu	a5,a4,20006218 <_vsnprintf+0x58>
2000637e:	6625                	lui	a2,0x9
20006380:	04160613          	addi	a2,a2,65 # 9041 <HeapSize+0x8841>
20006384:	28e017b3          	bset	a5,zero,a4
20006388:	8ff1                	and	a5,a5,a2
2000638a:	24079263          	bnez	a5,200065ce <_vsnprintf+0x40e>
2000638e:	4629                	li	a2,10
20006390:	0ac70063          	beq	a4,a2,20006430 <_vsnprintf+0x270>
20006394:	461d                	li	a2,7
20006396:	e8c711e3          	bne	a4,a2,20006218 <_vsnprintf+0x58>
2000639a:	00092703          	lw	a4,0(s2)
2000639e:	0911                	addi	s2,s2,4
200063a0:	26070963          	beqz	a4,20006612 <_vsnprintf+0x452>
200063a4:	0216e893          	ori	a7,a3,33
200063a8:	86ba                	mv	a3,a4
200063aa:	0098                	addi	a4,sp,64
200063ac:	4525                	li	a0,9
200063ae:	a031                	j	200063ba <_vsnprintf+0x1fa>
200063b0:	0106b613          	sltiu	a2,a3,16
200063b4:	26061863          	bnez	a2,20006624 <_vsnprintf+0x464>
200063b8:	8291                	srli	a3,a3,0x4
200063ba:	00f6f613          	andi	a2,a3,15
200063be:	03760593          	addi	a1,a2,55
200063c2:	00c56463          	bltu	a0,a2,200063ca <_vsnprintf+0x20a>
200063c6:	03060593          	addi	a1,a2,48
200063ca:	0785                	addi	a5,a5,1
200063cc:	00f70633          	add	a2,a4,a5
200063d0:	feb60fa3          	sb	a1,-1(a2)
200063d4:	fe078613          	addi	a2,a5,-32
200063d8:	fe61                	bnez	a2,200063b0 <_vsnprintf+0x1f0>
200063da:	46a1                	li	a3,8
200063dc:	c446                	sw	a7,8(sp)
200063de:	c042                	sw	a6,0(sp)
200063e0:	c236                	sw	a3,4(sp)
200063e2:	866a                	mv	a2,s10
200063e4:	48c1                	li	a7,16
200063e6:	4801                	li	a6,0
200063e8:	86ce                	mv	a3,s3
200063ea:	85d2                	mv	a1,s4
200063ec:	8526                	mv	a0,s1
200063ee:	97eff0ef          	jal	2000556c <_ntoa_format>
200063f2:	8d2a                	mv	s10,a0
200063f4:	b53d                	j	20006222 <_vsnprintf+0x62>
200063f6:	21084833          	sh2add	a6,a6,a6
200063fa:	0605                	addi	a2,a2,1
200063fc:	20a82833          	sh1add	a6,a6,a0
20006400:	00064503          	lbu	a0,0(a2)
20006404:	fd080813          	addi	a6,a6,-48
20006408:	fd050793          	addi	a5,a0,-48
2000640c:	0ff7f793          	zext.b	a5,a5
20006410:	fef5f3e3          	bgeu	a1,a5,200063f6 <_vsnprintf+0x236>
20006414:	8cb2                	mv	s9,a2
20006416:	00160713          	addi	a4,a2,1
2000641a:	bd99                	j	20006270 <_vsnprintf+0xb0>
2000641c:	00092d83          	lw	s11,0(s2)
20006420:	0911                	addi	s2,s2,4
20006422:	080dc463          	bltz	s11,200064aa <_vsnprintf+0x2ea>
20006426:	001cc503          	lbu	a0,1(s9)
2000642a:	8cba                	mv	s9,a4
2000642c:	0705                	addi	a4,a4,1
2000642e:	bd25                	j	20006266 <_vsnprintf+0xa6>
20006430:	00490793          	addi	a5,s2,4
20006434:	d43e                	sw	a5,40(sp)
20006436:	00092c03          	lw	s8,0(s2)
2000643a:	8642                	mv	a2,a6
2000643c:	1c080363          	beqz	a6,20006602 <_vsnprintf+0x442>
20006440:	000c4503          	lbu	a0,0(s8)
20006444:	9662                	add	a2,a2,s8
20006446:	87e2                	mv	a5,s8
20006448:	32050a63          	beqz	a0,2000677c <_vsnprintf+0x5bc>
2000644c:	00c78663          	beq	a5,a2,20006458 <_vsnprintf+0x298>
20006450:	0017c703          	lbu	a4,1(a5)
20006454:	0785                	addi	a5,a5,1
20006456:	fb7d                	bnez	a4,2000644c <_vsnprintf+0x28c>
20006458:	418787b3          	sub	a5,a5,s8
2000645c:	d23e                	sw	a5,36(sp)
2000645e:	4006f793          	andi	a5,a3,1024
20006462:	1c078863          	beqz	a5,20006632 <_vsnprintf+0x472>
20006466:	0026f793          	andi	a5,a3,2
2000646a:	d03e                	sw	a5,32(sp)
2000646c:	5792                	lw	a5,36(sp)
2000646e:	0b07d7b3          	minu	a5,a5,a6
20006472:	d23e                	sw	a5,36(sp)
20006474:	5782                	lw	a5,32(sp)
20006476:	3c078163          	beqz	a5,20006838 <_vsnprintf+0x678>
2000647a:	4789                	li	a5,2
2000647c:	d03e                	sw	a5,32(sp)
2000647e:	01a807b3          	add	a5,a6,s10
20006482:	ce3e                	sw	a5,28(sp)
20006484:	896a                	mv	s2,s10
20006486:	a829                	j	200064a0 <_vsnprintf+0x2e0>
20006488:	864a                	mv	a2,s2
2000648a:	86ce                	mv	a3,s3
2000648c:	85d2                	mv	a1,s4
2000648e:	9482                	jalr	s1
20006490:	0905                	addi	s2,s2,1
20006492:	41a90733          	sub	a4,s2,s10
20006496:	9762                	add	a4,a4,s8
20006498:	00074503          	lbu	a0,0(a4)
2000649c:	1a050e63          	beqz	a0,20006658 <_vsnprintf+0x498>
200064a0:	47f2                	lw	a5,28(sp)
200064a2:	ff2793e3          	bne	a5,s2,20006488 <_vsnprintf+0x2c8>
200064a6:	8d3e                	mv	s10,a5
200064a8:	aa4d                	j	2000665a <_vsnprintf+0x49a>
200064aa:	001cc503          	lbu	a0,1(s9)
200064ae:	0026e693          	ori	a3,a3,2
200064b2:	8cba                	mv	s9,a4
200064b4:	41b00db3          	neg	s11,s11
200064b8:	0705                	addi	a4,a4,1
200064ba:	b375                	j	20006266 <_vsnprintf+0xa6>
200064bc:	001cc503          	lbu	a0,1(s9)
200064c0:	06c00793          	li	a5,108
200064c4:	def517e3          	bne	a0,a5,200062b2 <_vsnprintf+0xf2>
200064c8:	002cc503          	lbu	a0,2(s9)
200064cc:	3006e693          	ori	a3,a3,768
200064d0:	003c8713          	addi	a4,s9,3
200064d4:	b3d5                	j	200062b8 <_vsnprintf+0xf8>
200064d6:	001cc503          	lbu	a0,1(s9)
200064da:	2006e693          	ori	a3,a3,512
200064de:	0705                	addi	a4,a4,1
200064e0:	bbe1                	j	200062b8 <_vsnprintf+0xf8>
200064e2:	001cc503          	lbu	a0,1(s9)
200064e6:	06800793          	li	a5,104
200064ea:	22f50963          	beq	a0,a5,2000671c <_vsnprintf+0x55c>
200064ee:	0806e693          	ori	a3,a3,128
200064f2:	0705                	addi	a4,a4,1
200064f4:	b3d1                	j	200062b8 <_vsnprintf+0xf8>
200064f6:	0fd57793          	andi	a5,a0,253
200064fa:	0df57713          	andi	a4,a0,223
200064fe:	091d                	addi	s2,s2,7
20006500:	fbb78793          	addi	a5,a5,-69
20006504:	fb970713          	addi	a4,a4,-71
20006508:	ff897913          	andi	s2,s2,-8
2000650c:	0017b793          	seqz	a5,a5
20006510:	00173713          	seqz	a4,a4
20006514:	00092503          	lw	a0,0(s2)
20006518:	00492583          	lw	a1,4(s2)
2000651c:	072e                	slli	a4,a4,0xb
2000651e:	0796                	slli	a5,a5,0x5
20006520:	8fd9                	or	a5,a5,a4
20006522:	8fd5                	or	a5,a5,a3
20006524:	c03e                	sw	a5,0(sp)
20006526:	872a                	mv	a4,a0
20006528:	87ae                	mv	a5,a1
2000652a:	866a                	mv	a2,s10
2000652c:	88ee                	mv	a7,s11
2000652e:	86ce                	mv	a3,s3
20006530:	85d2                	mv	a1,s4
20006532:	8526                	mv	a0,s1
20006534:	f86ff0ef          	jal	20005cba <_etoa>
20006538:	0921                	addi	s2,s2,8
2000653a:	8d2a                	mv	s10,a0
2000653c:	b1dd                	j	20006222 <_vsnprintf+0x62>
2000653e:	04600793          	li	a5,70
20006542:	12f50063          	beq	a0,a5,20006662 <_vsnprintf+0x4a2>
20006546:	091d                	addi	s2,s2,7
20006548:	ff897913          	andi	s2,s2,-8
2000654c:	00092703          	lw	a4,0(s2)
20006550:	00492783          	lw	a5,4(s2)
20006554:	866a                	mv	a2,s10
20006556:	c036                	sw	a3,0(sp)
20006558:	88ee                	mv	a7,s11
2000655a:	86ce                	mv	a3,s3
2000655c:	85d2                	mv	a1,s4
2000655e:	8526                	mv	a0,s1
20006560:	a1eff0ef          	jal	2000577e <_ftoa>
20006564:	0921                	addi	s2,s2,8
20006566:	8d2a                	mv	s10,a0
20006568:	b96d                	j	20006222 <_vsnprintf+0x62>
2000656a:	866a                	mv	a2,s10
2000656c:	86ce                	mv	a3,s3
2000656e:	85d2                	mv	a1,s4
20006570:	02500513          	li	a0,37
20006574:	9482                	jalr	s1
20006576:	0d05                	addi	s10,s10,1
20006578:	b16d                	j	20006222 <_vsnprintf+0x62>
2000657a:	00490793          	addi	a5,s2,4
2000657e:	8a89                	andi	a3,a3,2
20006580:	d03e                	sw	a5,32(sp)
20006582:	001d0c13          	addi	s8,s10,1
20006586:	1a068863          	beqz	a3,20006736 <_vsnprintf+0x576>
2000658a:	00094503          	lbu	a0,0(s2)
2000658e:	866a                	mv	a2,s10
20006590:	86ce                	mv	a3,s3
20006592:	85d2                	mv	a1,s4
20006594:	9482                	jalr	s1
20006596:	4785                	li	a5,1
20006598:	9d6e                	add	s10,s10,s11
2000659a:	21b7f363          	bgeu	a5,s11,200067a0 <_vsnprintf+0x5e0>
2000659e:	8662                	mv	a2,s8
200065a0:	86ce                	mv	a3,s3
200065a2:	0c05                	addi	s8,s8,1
200065a4:	85d2                	mv	a1,s4
200065a6:	02000513          	li	a0,32
200065aa:	9482                	jalr	s1
200065ac:	ffac19e3          	bne	s8,s10,2000659e <_vsnprintf+0x3de>
200065b0:	5902                	lw	s2,32(sp)
200065b2:	b985                	j	20006222 <_vsnprintf+0x62>
200065b4:	000cc503          	lbu	a0,0(s9)
200065b8:	200054b7          	lui	s1,0x20005
200065bc:	4a648493          	addi	s1,s1,1190 # 200054a6 <_out_null>
200065c0:	4d01                	li	s10,0
200065c2:	c2051ae3          	bnez	a0,200061f6 <_vsnprintf+0x36>
200065c6:	4401                	li	s0,0
200065c8:	d93d64e3          	bltu	s10,s3,20006350 <_vsnprintf+0x190>
200065cc:	b341                	j	2000634c <_vsnprintf+0x18c>
200065ce:	06f00793          	li	a5,111
200065d2:	08f50b63          	beq	a0,a5,20006668 <_vsnprintf+0x4a8>
200065d6:	2aa7f963          	bgeu	a5,a0,20006888 <_vsnprintf+0x6c8>
200065da:	07800793          	li	a5,120
200065de:	18f50863          	beq	a0,a5,2000676e <_vsnprintf+0x5ae>
200065e2:	4629                	li	a2,10
200065e4:	9abd                	andi	a3,a3,-17
200065e6:	8c32                	mv	s8,a2
200065e8:	dc02                	sw	zero,56(sp)
200065ea:	a051                	j	2000666e <_vsnprintf+0x4ae>
200065ec:	00092803          	lw	a6,0(s2)
200065f0:	002cc503          	lbu	a0,2(s9)
200065f4:	0c89                	addi	s9,s9,2
200065f6:	001c8713          	addi	a4,s9,1
200065fa:	0a086833          	max	a6,a6,zero
200065fe:	0911                	addi	s2,s2,4
20006600:	b985                	j	20006270 <_vsnprintf+0xb0>
20006602:	000c4503          	lbu	a0,0(s8)
20006606:	567d                	li	a2,-1
20006608:	9662                	add	a2,a2,s8
2000660a:	87e2                	mv	a5,s8
2000660c:	e40510e3          	bnez	a0,2000644c <_vsnprintf+0x28c>
20006610:	a2b5                	j	2000677c <_vsnprintf+0x5bc>
20006612:	fef6f893          	andi	a7,a3,-17
20006616:	4006f693          	andi	a3,a3,1024
2000661a:	0218e893          	ori	a7,a7,33
2000661e:	0098                	addi	a4,sp,64
20006620:	d80685e3          	beqz	a3,200063aa <_vsnprintf+0x1ea>
20006624:	46a1                	li	a3,8
20006626:	c446                	sw	a7,8(sp)
20006628:	c042                	sw	a6,0(sp)
2000662a:	c236                	sw	a3,4(sp)
2000662c:	866a                	mv	a2,s10
2000662e:	48c1                	li	a7,16
20006630:	bb5d                	j	200063e6 <_vsnprintf+0x226>
20006632:	0026f793          	andi	a5,a3,2
20006636:	d03e                	sw	a5,32(sp)
20006638:	24078263          	beqz	a5,2000687c <_vsnprintf+0x6bc>
2000663c:	4789                	li	a5,2
2000663e:	d03e                	sw	a5,32(sp)
20006640:	896a                	mv	s2,s10
20006642:	864a                	mv	a2,s2
20006644:	86ce                	mv	a3,s3
20006646:	85d2                	mv	a1,s4
20006648:	9482                	jalr	s1
2000664a:	0905                	addi	s2,s2,1
2000664c:	41a90733          	sub	a4,s2,s10
20006650:	9762                	add	a4,a4,s8
20006652:	00074503          	lbu	a0,0(a4)
20006656:	f575                	bnez	a0,20006642 <_vsnprintf+0x482>
20006658:	8d4a                	mv	s10,s2
2000665a:	5782                	lw	a5,32(sp)
2000665c:	e3d1                	bnez	a5,200066e0 <_vsnprintf+0x520>
2000665e:	5922                	lw	s2,40(sp)
20006660:	b6c9                	j	20006222 <_vsnprintf+0x62>
20006662:	0206e693          	ori	a3,a3,32
20006666:	b5c5                	j	20006546 <_vsnprintf+0x386>
20006668:	4621                	li	a2,8
2000666a:	8c32                	mv	s8,a2
2000666c:	dc02                	sw	zero,56(sp)
2000666e:	4006ff13          	andi	t5,a3,1024
20006672:	ff36f313          	andi	t1,a3,-13
20006676:	000f0663          	beqz	t5,20006682 <_vsnprintf+0x4c2>
2000667a:	ff26f313          	andi	t1,a3,-14
2000667e:	40000f13          	li	t5,1024
20006682:	20037693          	andi	a3,t1,512
20006686:	12069063          	bnez	a3,200067a6 <_vsnprintf+0x5e6>
2000668a:	10037793          	andi	a5,t1,256
2000668e:	00490e93          	addi	t4,s2,4
20006692:	48079c63          	bnez	a5,20006b2a <_vsnprintf+0x96a>
20006696:	04037713          	andi	a4,t1,64
2000669a:	ef71                	bnez	a4,20006776 <_vsnprintf+0x5b6>
2000669c:	08037713          	andi	a4,t1,128
200066a0:	52070a63          	beqz	a4,20006bd4 <_vsnprintf+0xa14>
200066a4:	00095603          	lhu	a2,0(s2)
200066a8:	12061763          	bnez	a2,200067d6 <_vsnprintf+0x616>
200066ac:	fef37313          	andi	t1,t1,-17
200066b0:	120f0363          	beqz	t5,200067d6 <_vsnprintf+0x616>
200066b4:	4781                	li	a5,0
200066b6:	0098                	addi	a4,sp,64
200066b8:	ce76                	sw	t4,28(sp)
200066ba:	c41a                	sw	t1,8(sp)
200066bc:	c26e                	sw	s11,4(sp)
200066be:	c042                	sw	a6,0(sp)
200066c0:	88e2                	mv	a7,s8
200066c2:	866a                	mv	a2,s10
200066c4:	4801                	li	a6,0
200066c6:	86ce                	mv	a3,s3
200066c8:	85d2                	mv	a1,s4
200066ca:	8526                	mv	a0,s1
200066cc:	ea1fe0ef          	jal	2000556c <_ntoa_format>
200066d0:	8d2a                	mv	s10,a0
200066d2:	4972                	lw	s2,28(sp)
200066d4:	b6b9                	j	20006222 <_vsnprintf+0x62>
200066d6:	0026f793          	andi	a5,a3,2
200066da:	d03e                	sw	a5,32(sp)
200066dc:	50078c63          	beqz	a5,20006bf4 <_vsnprintf+0xa34>
200066e0:	896a                	mv	s2,s10
200066e2:	5792                	lw	a5,36(sp)
200066e4:	f7b7fde3          	bgeu	a5,s11,2000665e <_vsnprintf+0x49e>
200066e8:	9dea                	add	s11,s11,s10
200066ea:	40fd8d33          	sub	s10,s11,a5
200066ee:	864a                	mv	a2,s2
200066f0:	86ce                	mv	a3,s3
200066f2:	0905                	addi	s2,s2,1
200066f4:	85d2                	mv	a1,s4
200066f6:	02000513          	li	a0,32
200066fa:	9482                	jalr	s1
200066fc:	ffa919e3          	bne	s2,s10,200066ee <_vsnprintf+0x52e>
20006700:	5922                	lw	s2,40(sp)
20006702:	b605                	j	20006222 <_vsnprintf+0x62>
20006704:	05800793          	li	a5,88
20006708:	02f50163          	beq	a0,a5,2000672a <_vsnprintf+0x56a>
2000670c:	06200793          	li	a5,98
20006710:	4ef51f63          	bne	a0,a5,20006c0e <_vsnprintf+0xa4e>
20006714:	4609                	li	a2,2
20006716:	8c32                	mv	s8,a2
20006718:	dc02                	sw	zero,56(sp)
2000671a:	bf91                	j	2000666e <_vsnprintf+0x4ae>
2000671c:	002cc503          	lbu	a0,2(s9)
20006720:	0c06e693          	ori	a3,a3,192
20006724:	003c8713          	addi	a4,s9,3
20006728:	be41                	j	200062b8 <_vsnprintf+0xf8>
2000672a:	4641                	li	a2,16
2000672c:	0206e693          	ori	a3,a3,32
20006730:	8c32                	mv	s8,a2
20006732:	dc02                	sw	zero,56(sp)
20006734:	bf2d                	j	2000666e <_vsnprintf+0x4ae>
20006736:	4785                	li	a5,1
20006738:	05b7fe63          	bgeu	a5,s11,20006794 <_vsnprintf+0x5d4>
2000673c:	fffd0c13          	addi	s8,s10,-1
20006740:	01bc07b3          	add	a5,s8,s11
20006744:	ce3e                	sw	a5,28(sp)
20006746:	8c6a                	mv	s8,s10
20006748:	8662                	mv	a2,s8
2000674a:	86ce                	mv	a3,s3
2000674c:	85d2                	mv	a1,s4
2000674e:	02000513          	li	a0,32
20006752:	9482                	jalr	s1
20006754:	47f2                	lw	a5,28(sp)
20006756:	0c05                	addi	s8,s8,1
20006758:	fefc18e3          	bne	s8,a5,20006748 <_vsnprintf+0x588>
2000675c:	00094503          	lbu	a0,0(s2)
20006760:	8662                	mv	a2,s8
20006762:	86ce                	mv	a3,s3
20006764:	85d2                	mv	a1,s4
20006766:	9482                	jalr	s1
20006768:	9d6e                	add	s10,s10,s11
2000676a:	5902                	lw	s2,32(sp)
2000676c:	bc5d                	j	20006222 <_vsnprintf+0x62>
2000676e:	4641                	li	a2,16
20006770:	8c32                	mv	s8,a2
20006772:	dc02                	sw	zero,56(sp)
20006774:	bded                	j	2000666e <_vsnprintf+0x4ae>
20006776:	00094603          	lbu	a2,0(s2)
2000677a:	b73d                	j	200066a8 <_vsnprintf+0x4e8>
2000677c:	4006f793          	andi	a5,a3,1024
20006780:	d23e                	sw	a5,36(sp)
20006782:	dbb1                	beqz	a5,200066d6 <_vsnprintf+0x516>
20006784:	0026f793          	andi	a5,a3,2
20006788:	d23e                	sw	a5,36(sp)
2000678a:	46078263          	beqz	a5,20006bee <_vsnprintf+0xa2e>
2000678e:	896a                	mv	s2,s10
20006790:	d202                	sw	zero,36(sp)
20006792:	bf81                	j	200066e2 <_vsnprintf+0x522>
20006794:	00094503          	lbu	a0,0(s2)
20006798:	866a                	mv	a2,s10
2000679a:	86ce                	mv	a3,s3
2000679c:	85d2                	mv	a1,s4
2000679e:	9482                	jalr	s1
200067a0:	5902                	lw	s2,32(sp)
200067a2:	8d62                	mv	s10,s8
200067a4:	bcbd                	j	20006222 <_vsnprintf+0x62>
200067a6:	091d                	addi	s2,s2,7
200067a8:	ff897913          	andi	s2,s2,-8
200067ac:	00092e03          	lw	t3,0(s2)
200067b0:	00492e83          	lw	t4,4(s2)
200067b4:	0921                	addi	s2,s2,8
200067b6:	01de67b3          	or	a5,t3,t4
200067ba:	22079c63          	bnez	a5,200069f2 <_vsnprintf+0x832>
200067be:	fef37313          	andi	t1,t1,-17
200067c2:	220f0863          	beqz	t5,200069f2 <_vsnprintf+0x832>
200067c6:	4781                	li	a5,0
200067c8:	0098                	addi	a4,sp,64
200067ca:	c41a                	sw	t1,8(sp)
200067cc:	c26e                	sw	s11,4(sp)
200067ce:	c042                	sw	a6,0(sp)
200067d0:	88e2                	mv	a7,s8
200067d2:	866a                	mv	a2,s10
200067d4:	b909                	j	200063e6 <_vsnprintf+0x226>
200067d6:	48535713          	bexti	a4,t1,0x5
200067da:	06100e13          	li	t3,97
200067de:	c319                	beqz	a4,200067e4 <_vsnprintf+0x624>
200067e0:	04100e13          	li	t3,65
200067e4:	1e59                	addi	t3,t3,-10
200067e6:	0098                	addi	a4,sp,64
200067e8:	45a5                	li	a1,9
200067ea:	038676b3          	remu	a3,a2,s8
200067ee:	0785                	addi	a5,a5,1
200067f0:	02d5e563          	bltu	a1,a3,2000681a <_vsnprintf+0x65a>
200067f4:	03068693          	addi	a3,a3,48
200067f8:	00f70533          	add	a0,a4,a5
200067fc:	fed50fa3          	sb	a3,-1(a0)
20006800:	fe078693          	addi	a3,a5,-32
20006804:	ea068ae3          	beqz	a3,200066b8 <_vsnprintf+0x4f8>
20006808:	eb8668e3          	bltu	a2,s8,200066b8 <_vsnprintf+0x4f8>
2000680c:	03865633          	divu	a2,a2,s8
20006810:	0785                	addi	a5,a5,1
20006812:	038676b3          	remu	a3,a2,s8
20006816:	fcd5ffe3          	bgeu	a1,a3,200067f4 <_vsnprintf+0x634>
2000681a:	96f2                	add	a3,a3,t3
2000681c:	00f70533          	add	a0,a4,a5
20006820:	fed50fa3          	sb	a3,-1(a0)
20006824:	fe078693          	addi	a3,a5,-32
20006828:	e80688e3          	beqz	a3,200066b8 <_vsnprintf+0x4f8>
2000682c:	01063693          	sltiu	a3,a2,16
20006830:	e80694e3          	bnez	a3,200066b8 <_vsnprintf+0x4f8>
20006834:	8211                	srli	a2,a2,0x4
20006836:	bf55                	j	200067ea <_vsnprintf+0x62a>
20006838:	5792                	lw	a5,36(sp)
2000683a:	3db7f263          	bgeu	a5,s11,20006bfe <_vsnprintf+0xa3e>
2000683e:	40000793          	li	a5,1024
20006842:	d03e                	sw	a5,32(sp)
20006844:	5792                	lw	a5,36(sp)
20006846:	01ad8933          	add	s2,s11,s10
2000684a:	40f90933          	sub	s2,s2,a5
2000684e:	ce42                	sw	a6,28(sp)
20006850:	866a                	mv	a2,s10
20006852:	86ce                	mv	a3,s3
20006854:	85d2                	mv	a1,s4
20006856:	02000513          	li	a0,32
2000685a:	9482                	jalr	s1
2000685c:	0d05                	addi	s10,s10,1
2000685e:	4872                	lw	a6,28(sp)
20006860:	ff2d17e3          	bne	s10,s2,2000684e <_vsnprintf+0x68e>
20006864:	000c4503          	lbu	a0,0(s8)
20006868:	de050be3          	beqz	a0,2000665e <_vsnprintf+0x49e>
2000686c:	001d8793          	addi	a5,s11,1
20006870:	d23e                	sw	a5,36(sp)
20006872:	5782                	lw	a5,32(sp)
20006874:	dc0786e3          	beqz	a5,20006640 <_vsnprintf+0x480>
20006878:	d002                	sw	zero,32(sp)
2000687a:	b111                	j	2000647e <_vsnprintf+0x2be>
2000687c:	5792                	lw	a5,36(sp)
2000687e:	fdb7e3e3          	bltu	a5,s11,20006844 <_vsnprintf+0x684>
20006882:	0785                	addi	a5,a5,1
20006884:	d23e                	sw	a5,36(sp)
20006886:	bb6d                	j	20006640 <_vsnprintf+0x480>
20006888:	06900793          	li	a5,105
2000688c:	fef6f313          	andi	t1,a3,-17
20006890:	36f51a63          	bne	a0,a5,20006c04 <_vsnprintf+0xa44>
20006894:	4006ff13          	andi	t5,a3,1024
20006898:	000f0463          	beqz	t5,200068a0 <_vsnprintf+0x6e0>
2000689c:	fee6f313          	andi	t1,a3,-18
200068a0:	c589                	beqz	a1,200068aa <_vsnprintf+0x6ea>
200068a2:	f9c50513          	addi	a0,a0,-100
200068a6:	30051c63          	bnez	a0,20006bbe <_vsnprintf+0x9fe>
200068aa:	20037593          	andi	a1,t1,512
200068ae:	e9bd                	bnez	a1,20006924 <_vsnprintf+0x764>
200068b0:	10037793          	andi	a5,t1,256
200068b4:	00490c13          	addi	s8,s2,4
200068b8:	22079063          	bnez	a5,20006ad8 <_vsnprintf+0x918>
200068bc:	04037713          	andi	a4,t1,64
200068c0:	1e070e63          	beqz	a4,20006abc <_vsnprintf+0x8fc>
200068c4:	00094703          	lbu	a4,0(s2)
200068c8:	86ba                	mv	a3,a4
200068ca:	01f75893          	srli	a7,a4,0x1f
200068ce:	1c070d63          	beqz	a4,20006aa8 <_vsnprintf+0x8e8>
200068d2:	ccccdeb7          	lui	t4,0xccccd
200068d6:	ccde8e93          	addi	t4,t4,-819 # cccccccd <__StackTop+0xacc4accd>
200068da:	0098                	addi	a4,sp,64
200068dc:	a021                	j	200068e4 <_vsnprintf+0x724>
200068de:	fe078613          	addi	a2,a5,-32
200068e2:	c21d                	beqz	a2,20006908 <_vsnprintf+0x748>
200068e4:	03d6b633          	mulhu	a2,a3,t4
200068e8:	0785                	addi	a5,a5,1
200068ea:	00a6b593          	sltiu	a1,a3,10
200068ee:	00f70e33          	add	t3,a4,a5
200068f2:	820d                	srli	a2,a2,0x3
200068f4:	20c64533          	sh2add	a0,a2,a2
200068f8:	0506                	slli	a0,a0,0x1
200068fa:	8e89                	sub	a3,a3,a0
200068fc:	03068693          	addi	a3,a3,48
20006900:	fede0fa3          	sb	a3,-1(t3)
20006904:	86b2                	mv	a3,a2
20006906:	dde1                	beqz	a1,200068de <_vsnprintf+0x71e>
20006908:	c042                	sw	a6,0(sp)
2000690a:	c41a                	sw	t1,8(sp)
2000690c:	c26e                	sw	s11,4(sp)
2000690e:	8846                	mv	a6,a7
20006910:	866a                	mv	a2,s10
20006912:	48a9                	li	a7,10
20006914:	86ce                	mv	a3,s3
20006916:	85d2                	mv	a1,s4
20006918:	8526                	mv	a0,s1
2000691a:	c53fe0ef          	jal	2000556c <_ntoa_format>
2000691e:	8962                	mv	s2,s8
20006920:	8d2a                	mv	s10,a0
20006922:	b201                	j	20006222 <_vsnprintf+0x62>
20006924:	091d                	addi	s2,s2,7
20006926:	ff897913          	andi	s2,s2,-8
2000692a:	00492383          	lw	t2,4(s2)
2000692e:	00092583          	lw	a1,0(s2)
20006932:	0921                	addi	s2,s2,8
20006934:	01f3df93          	srli	t6,t2,0x1f
20006938:	0075e7b3          	or	a5,a1,t2
2000693c:	26078763          	beqz	a5,20006baa <_vsnprintf+0x9ea>
20006940:	41f3d793          	srai	a5,t2,0x1f
20006944:	8dbd                	xor	a1,a1,a5
20006946:	40f58733          	sub	a4,a1,a5
2000694a:	0077c3b3          	xor	t2,a5,t2
2000694e:	40f387b3          	sub	a5,t2,a5
20006952:	ccccd537          	lui	a0,0xccccd
20006956:	00e5b3b3          	sltu	t2,a1,a4
2000695a:	ccccdf37          	lui	t5,0xccccd
2000695e:	407783b3          	sub	t2,a5,t2
20006962:	85ba                	mv	a1,a4
20006964:	ccd50513          	addi	a0,a0,-819 # cccccccd <__StackTop+0xacc4accd>
20006968:	cccf0f13          	addi	t5,t5,-820 # cccccccc <__StackTop+0xacc4accc>
2000696c:	4781                	li	a5,0
2000696e:	0098                	addi	a4,sp,64
20006970:	42a5                	li	t0,9
20006972:	007586b3          	add	a3,a1,t2
20006976:	00b6b633          	sltu	a2,a3,a1
2000697a:	96b2                	add	a3,a3,a2
2000697c:	02a6b633          	mulhu	a2,a3,a0
20006980:	889e                	mv	a7,t2
20006982:	0785                	addi	a5,a5,1
20006984:	00f70e33          	add	t3,a4,a5
20006988:	8eae                	mv	t4,a1
2000698a:	00265c13          	srli	s8,a2,0x2
2000698e:	9a71                	andi	a2,a2,-4
20006990:	9662                	add	a2,a2,s8
20006992:	8e91                	sub	a3,a3,a2
20006994:	40d586b3          	sub	a3,a1,a3
20006998:	00d5b633          	sltu	a2,a1,a3
2000699c:	40c38633          	sub	a2,t2,a2
200069a0:	02a60633          	mul	a2,a2,a0
200069a4:	03e683b3          	mul	t2,a3,t5
200069a8:	961e                	add	a2,a2,t2
200069aa:	02a6b3b3          	mulhu	t2,a3,a0
200069ae:	02a686b3          	mul	a3,a3,a0
200069b2:	961e                	add	a2,a2,t2
200069b4:	01f61c13          	slli	s8,a2,0x1f
200069b8:	00165393          	srli	t2,a2,0x1
200069bc:	8285                	srli	a3,a3,0x1
200069be:	96e2                	add	a3,a3,s8
200069c0:	20d6c633          	sh2add	a2,a3,a3
200069c4:	0606                	slli	a2,a2,0x1
200069c6:	40c58633          	sub	a2,a1,a2
200069ca:	03060613          	addi	a2,a2,48
200069ce:	fece0fa3          	sb	a2,-1(t3)
200069d2:	85b6                	mv	a1,a3
200069d4:	00089b63          	bnez	a7,200069ea <_vsnprintf+0x82a>
200069d8:	01d2e963          	bltu	t0,t4,200069ea <_vsnprintf+0x82a>
200069dc:	c042                	sw	a6,0(sp)
200069de:	c41a                	sw	t1,8(sp)
200069e0:	c26e                	sw	s11,4(sp)
200069e2:	887e                	mv	a6,t6
200069e4:	866a                	mv	a2,s10
200069e6:	48a9                	li	a7,10
200069e8:	b401                	j	200063e8 <_vsnprintf+0x228>
200069ea:	fe078693          	addi	a3,a5,-32
200069ee:	f2d1                	bnez	a3,20006972 <_vsnprintf+0x7b2>
200069f0:	b7f5                	j	200069dc <_vsnprintf+0x81c>
200069f2:	48535793          	bexti	a5,t1,0x5
200069f6:	06100713          	li	a4,97
200069fa:	c399                	beqz	a5,20006a00 <_vsnprintf+0x840>
200069fc:	04100713          	li	a4,65
20006a00:	ff670793          	addi	a5,a4,-10
20006a04:	de3e                	sw	a5,60(sp)
20006a06:	0098                	addi	a4,sp,64
20006a08:	4781                	li	a5,0
20006a0a:	4681                	li	a3,0
20006a0c:	8572                	mv	a0,t3
20006a0e:	85f6                	mv	a1,t4
20006a10:	da3a                	sw	a4,52(sp)
20006a12:	d81a                	sw	t1,48(sp)
20006a14:	d63e                	sw	a5,44(sp)
20006a16:	d442                	sw	a6,40(sp)
20006a18:	d232                	sw	a2,36(sp)
20006a1a:	d072                	sw	t3,32(sp)
20006a1c:	ce76                	sw	t4,28(sp)
20006a1e:	0f6020ef          	jal	20008b14 <__umoddi3>
20006a22:	57b2                	lw	a5,44(sp)
20006a24:	0ff57693          	zext.b	a3,a0
20006a28:	45a5                	li	a1,9
20006a2a:	4ef2                	lw	t4,28(sp)
20006a2c:	5e02                	lw	t3,32(sp)
20006a2e:	5612                	lw	a2,36(sp)
20006a30:	5822                	lw	a6,40(sp)
20006a32:	5342                	lw	t1,48(sp)
20006a34:	5752                	lw	a4,52(sp)
20006a36:	0785                	addi	a5,a5,1
20006a38:	04d5e163          	bltu	a1,a3,20006a7a <_vsnprintf+0x8ba>
20006a3c:	03068693          	addi	a3,a3,48
20006a40:	00f705b3          	add	a1,a4,a5
20006a44:	fed58fa3          	sb	a3,-1(a1)
20006a48:	fe078693          	addi	a3,a5,-32
20006a4c:	d6068fe3          	beqz	a3,200067ca <_vsnprintf+0x60a>
20006a50:	56e2                	lw	a3,56(sp)
20006a52:	15d68963          	beq	a3,t4,20006ba4 <_vsnprintf+0x9e4>
20006a56:	8572                	mv	a0,t3
20006a58:	85f6                	mv	a1,t4
20006a5a:	4681                	li	a3,0
20006a5c:	d63a                	sw	a4,44(sp)
20006a5e:	d41a                	sw	t1,40(sp)
20006a60:	d23e                	sw	a5,36(sp)
20006a62:	d042                	sw	a6,32(sp)
20006a64:	ce32                	sw	a2,28(sp)
20006a66:	5c9010ef          	jal	2000882e <__udivdi3>
20006a6a:	4672                	lw	a2,28(sp)
20006a6c:	5802                	lw	a6,32(sp)
20006a6e:	5792                	lw	a5,36(sp)
20006a70:	5322                	lw	t1,40(sp)
20006a72:	5732                	lw	a4,44(sp)
20006a74:	8e2a                	mv	t3,a0
20006a76:	8eae                	mv	t4,a1
20006a78:	bf49                	j	20006a0a <_vsnprintf+0x84a>
20006a7a:	55f2                	lw	a1,60(sp)
20006a7c:	96ae                	add	a3,a3,a1
20006a7e:	00f705b3          	add	a1,a4,a5
20006a82:	fed58fa3          	sb	a3,-1(a1)
20006a86:	000e9563          	bnez	t4,20006a90 <_vsnprintf+0x8d0>
20006a8a:	46bd                	li	a3,15
20006a8c:	d3c6ffe3          	bgeu	a3,t3,200067ca <_vsnprintf+0x60a>
20006a90:	fe078693          	addi	a3,a5,-32
20006a94:	d2068be3          	beqz	a3,200067ca <_vsnprintf+0x60a>
20006a98:	01ce9693          	slli	a3,t4,0x1c
20006a9c:	004e5e13          	srli	t3,t3,0x4
20006aa0:	9e36                	add	t3,t3,a3
20006aa2:	004ede93          	srli	t4,t4,0x4
20006aa6:	b795                	j	20006a0a <_vsnprintf+0x84a>
20006aa8:	0098                	addi	a4,sp,64
20006aaa:	e40f1fe3          	bnez	t5,20006908 <_vsnprintf+0x748>
20006aae:	03000793          	li	a5,48
20006ab2:	04f10023          	sb	a5,64(sp)
20006ab6:	0098                	addi	a4,sp,64
20006ab8:	4785                	li	a5,1
20006aba:	b5b9                	j	20006908 <_vsnprintf+0x748>
20006abc:	08037713          	andi	a4,t1,128
20006ac0:	10070363          	beqz	a4,20006bc6 <_vsnprintf+0xa06>
20006ac4:	00091703          	lh	a4,0(s2)
20006ac8:	40f75613          	srai	a2,a4,0xf
20006acc:	00c746b3          	xor	a3,a4,a2
20006ad0:	8e91                	sub	a3,a3,a2
20006ad2:	0806c6b3          	zext.h	a3,a3
20006ad6:	bbd5                	j	200068ca <_vsnprintf+0x70a>
20006ad8:	00092683          	lw	a3,0(s2)
20006adc:	01f6d893          	srli	a7,a3,0x1f
20006ae0:	ceed                	beqz	a3,20006bda <_vsnprintf+0xa1a>
20006ae2:	40d007b3          	neg	a5,a3
20006ae6:	ccccdeb7          	lui	t4,0xccccd
20006aea:	0af6e6b3          	max	a3,a3,a5
20006aee:	ccde8e93          	addi	t4,t4,-819 # cccccccd <__StackTop+0xacc4accd>
20006af2:	0098                	addi	a4,sp,64
20006af4:	03d6b633          	mulhu	a2,a3,t4
20006af8:	0585                	addi	a1,a1,1
20006afa:	00a6b793          	sltiu	a5,a3,10
20006afe:	00b70e33          	add	t3,a4,a1
20006b02:	820d                	srli	a2,a2,0x3
20006b04:	20c64533          	sh2add	a0,a2,a2
20006b08:	0506                	slli	a0,a0,0x1
20006b0a:	8e89                	sub	a3,a3,a0
20006b0c:	03068693          	addi	a3,a3,48
20006b10:	fede0fa3          	sb	a3,-1(t3)
20006b14:	86b2                	mv	a3,a2
20006b16:	e781                	bnez	a5,20006b1e <_vsnprintf+0x95e>
20006b18:	fe058793          	addi	a5,a1,-32
20006b1c:	ffe1                	bnez	a5,20006af4 <_vsnprintf+0x934>
20006b1e:	c042                	sw	a6,0(sp)
20006b20:	c41a                	sw	t1,8(sp)
20006b22:	c26e                	sw	s11,4(sp)
20006b24:	8846                	mv	a6,a7
20006b26:	87ae                	mv	a5,a1
20006b28:	b3e5                	j	20006910 <_vsnprintf+0x750>
20006b2a:	00092603          	lw	a2,0(s2)
20006b2e:	e611                	bnez	a2,20006b3a <_vsnprintf+0x97a>
20006b30:	fef37313          	andi	t1,t1,-17
20006b34:	0098                	addi	a4,sp,64
20006b36:	060f1063          	bnez	t5,20006b96 <_vsnprintf+0x9d6>
20006b3a:	48535793          	bexti	a5,t1,0x5
20006b3e:	06100e13          	li	t3,97
20006b42:	c399                	beqz	a5,20006b48 <_vsnprintf+0x988>
20006b44:	04100e13          	li	t3,65
20006b48:	1e59                	addi	t3,t3,-10
20006b4a:	0098                	addi	a4,sp,64
20006b4c:	45a5                	li	a1,9
20006b4e:	038677b3          	remu	a5,a2,s8
20006b52:	0685                	addi	a3,a3,1
20006b54:	02f5e463          	bltu	a1,a5,20006b7c <_vsnprintf+0x9bc>
20006b58:	03078793          	addi	a5,a5,48
20006b5c:	00d70533          	add	a0,a4,a3
20006b60:	fef50fa3          	sb	a5,-1(a0)
20006b64:	fe068793          	addi	a5,a3,-32
20006b68:	c79d                	beqz	a5,20006b96 <_vsnprintf+0x9d6>
20006b6a:	03866663          	bltu	a2,s8,20006b96 <_vsnprintf+0x9d6>
20006b6e:	03865633          	divu	a2,a2,s8
20006b72:	0685                	addi	a3,a3,1
20006b74:	038677b3          	remu	a5,a2,s8
20006b78:	fef5f0e3          	bgeu	a1,a5,20006b58 <_vsnprintf+0x998>
20006b7c:	97f2                	add	a5,a5,t3
20006b7e:	00d70533          	add	a0,a4,a3
20006b82:	fef50fa3          	sb	a5,-1(a0)
20006b86:	01063793          	sltiu	a5,a2,16
20006b8a:	e791                	bnez	a5,20006b96 <_vsnprintf+0x9d6>
20006b8c:	fe068793          	addi	a5,a3,-32
20006b90:	c399                	beqz	a5,20006b96 <_vsnprintf+0x9d6>
20006b92:	8211                	srli	a2,a2,0x4
20006b94:	bf6d                	j	20006b4e <_vsnprintf+0x98e>
20006b96:	ce76                	sw	t4,28(sp)
20006b98:	c41a                	sw	t1,8(sp)
20006b9a:	c26e                	sw	s11,4(sp)
20006b9c:	c042                	sw	a6,0(sp)
20006b9e:	88e2                	mv	a7,s8
20006ba0:	87b6                	mv	a5,a3
20006ba2:	b605                	j	200066c2 <_vsnprintf+0x502>
20006ba4:	c2ce63e3          	bltu	t3,a2,200067ca <_vsnprintf+0x60a>
20006ba8:	b57d                	j	20006a56 <_vsnprintf+0x896>
20006baa:	0098                	addi	a4,sp,64
20006bac:	e20f18e3          	bnez	t5,200069dc <_vsnprintf+0x81c>
20006bb0:	03000793          	li	a5,48
20006bb4:	04f10023          	sb	a5,64(sp)
20006bb8:	0098                	addi	a4,sp,64
20006bba:	4785                	li	a5,1
20006bbc:	b505                	j	200069dc <_vsnprintf+0x81c>
20006bbe:	4629                	li	a2,10
20006bc0:	8c32                	mv	s8,a2
20006bc2:	dc02                	sw	zero,56(sp)
20006bc4:	bc7d                	j	20006682 <_vsnprintf+0x4c2>
20006bc6:	00092703          	lw	a4,0(s2)
20006bca:	40e006b3          	neg	a3,a4
20006bce:	0ad766b3          	max	a3,a4,a3
20006bd2:	b9e5                	j	200068ca <_vsnprintf+0x70a>
20006bd4:	00092603          	lw	a2,0(s2)
20006bd8:	bcc1                	j	200066a8 <_vsnprintf+0x4e8>
20006bda:	0098                	addi	a4,sp,64
20006bdc:	f40f11e3          	bnez	t5,20006b1e <_vsnprintf+0x95e>
20006be0:	03000793          	li	a5,48
20006be4:	04f10023          	sb	a5,64(sp)
20006be8:	0098                	addi	a4,sp,64
20006bea:	4585                	li	a1,1
20006bec:	bf0d                	j	20006b1e <_vsnprintf+0x95e>
20006bee:	40000793          	li	a5,1024
20006bf2:	d03e                	sw	a5,32(sp)
20006bf4:	c40d98e3          	bnez	s11,20006844 <_vsnprintf+0x684>
20006bf8:	5922                	lw	s2,40(sp)
20006bfa:	e28ff06f          	j	20006222 <_vsnprintf+0x62>
20006bfe:	0785                	addi	a5,a5,1
20006c00:	d23e                	sw	a5,36(sp)
20006c02:	b8b5                	j	2000647e <_vsnprintf+0x2be>
20006c04:	4629                	li	a2,10
20006c06:	869a                	mv	a3,t1
20006c08:	8c32                	mv	s8,a2
20006c0a:	dc02                	sw	zero,56(sp)
20006c0c:	b48d                	j	2000666e <_vsnprintf+0x4ae>
20006c0e:	fef6f313          	andi	t1,a3,-17
20006c12:	f9750593          	addi	a1,a0,-105
20006c16:	b9bd                	j	20006894 <_vsnprintf+0x6d4>

20006c18 <__wrap_vsnprintf>:
20006c18:	200057b7          	lui	a5,0x20005
20006c1c:	8736                	mv	a4,a3
20006c1e:	86b2                	mv	a3,a2
20006c20:	862e                	mv	a2,a1
20006c22:	85aa                	mv	a1,a0
20006c24:	49a78513          	addi	a0,a5,1178 # 2000549a <_out_buffer>
20006c28:	d98ff06f          	j	200061c0 <_vsnprintf>

20006c2c <weak_raw_vprintf>:
20006c2c:	8401a783          	lw	a5,-1984(gp) # 2000c7cc <lazy_vsnprintf>
20006c30:	1101                	addi	sp,sp,-32
20006c32:	ce06                	sw	ra,28(sp)
20006c34:	cf91                	beqz	a5,20006c50 <weak_raw_vprintf+0x24>
20006c36:	86aa                	mv	a3,a0
20006c38:	20005537          	lui	a0,0x20005
20006c3c:	872e                	mv	a4,a1
20006c3e:	77650513          	addi	a0,a0,1910 # 20005776 <_out_char>
20006c42:	006c                	addi	a1,sp,12
20006c44:	567d                	li	a2,-1
20006c46:	9782                	jalr	a5
20006c48:	40f2                	lw	ra,28(sp)
20006c4a:	4505                	li	a0,1
20006c4c:	6105                	addi	sp,sp,32
20006c4e:	8082                	ret
20006c50:	2631                	jal	20006f5c <__wrap_puts>
20006c52:	40f2                	lw	ra,28(sp)
20006c54:	4501                	li	a0,0
20006c56:	6105                	addi	sp,sp,32
20006c58:	8082                	ret

20006c5a <runtime_init_per_core_h3_irq_registers>:
20006c5a:	450d                	li	a0,3
20006c5c:	be251073          	csrw	0xbe2,a0
20006c60:	157d                	addi	a0,a0,-1
20006c62:	fe055de3          	bgez	a0,20006c5c <runtime_init_per_core_h3_irq_registers+0x2>
20006c66:	6505                	lui	a0,0x1
20006c68:	80050513          	addi	a0,a0,-2048 # 800 <HeapSize>
20006c6c:	30451073          	csrw	mie,a0
20006c70:	30046073          	csrsi	mstatus,8
20006c74:	34001073          	csrw	mscratch,zero
20006c78:	8082                	ret

20006c7a <_exit>:
20006c7a:	9002                	ebreak
20006c7c:	bffd                	j	20006c7a <_exit>

20006c7e <exit>:
20006c7e:	1141                	addi	sp,sp,-16
20006c80:	c606                	sw	ra,12(sp)
20006c82:	3fe5                	jal	20006c7a <_exit>

20006c84 <runtime_init>:
20006c84:	1141                	addi	sp,sp,-16
20006c86:	c422                	sw	s0,8(sp)
20006c88:	c226                	sw	s1,4(sp)
20006c8a:	2000c437          	lui	s0,0x2000c
20006c8e:	2000c4b7          	lui	s1,0x2000c
20006c92:	1e840413          	addi	s0,s0,488 # 2000c1e8 <default_alarm_pool_entries>
20006c96:	1e848493          	addi	s1,s1,488 # 2000c1e8 <default_alarm_pool_entries>
20006c9a:	c606                	sw	ra,12(sp)
20006c9c:	bf8fe0ef          	jal	20005094 <runtime_run_initializers>
20006ca0:	00947763          	bgeu	s0,s1,20006cae <runtime_init+0x2a>
20006ca4:	401c                	lw	a5,0(s0)
20006ca6:	0411                	addi	s0,s0,4
20006ca8:	9782                	jalr	a5
20006caa:	fe946de3          	bltu	s0,s1,20006ca4 <runtime_init+0x20>
20006cae:	40b2                	lw	ra,12(sp)
20006cb0:	4422                	lw	s0,8(sp)
20006cb2:	4492                	lw	s1,4(sp)
20006cb4:	0141                	addi	sp,sp,16
20006cb6:	8082                	ret

20006cb8 <stdio_out_chars_no_crlf>:
20006cb8:	411c                	lw	a5,0(a0)
20006cba:	852e                	mv	a0,a1
20006cbc:	85b2                	mv	a1,a2
20006cbe:	8782                	jr	a5

20006cc0 <stdio_out_chars_crlf>:
20006cc0:	01554783          	lbu	a5,21(a0)
20006cc4:	1101                	addi	sp,sp,-32
20006cc6:	c84a                	sw	s2,16(sp)
20006cc8:	ce06                	sw	ra,28(sp)
20006cca:	892e                	mv	s2,a1
20006ccc:	c7c1                	beqz	a5,20006d54 <stdio_out_chars_crlf+0x94>
20006cce:	06c05463          	blez	a2,20006d36 <stdio_out_chars_crlf+0x76>
20006cd2:	cc22                	sw	s0,24(sp)
20006cd4:	ca26                	sw	s1,20(sp)
20006cd6:	0005c783          	lbu	a5,0(a1)
20006cda:	8432                	mv	s0,a2
20006cdc:	84aa                	mv	s1,a0
20006cde:	17d9                	addi	a5,a5,-10
20006ce0:	e781                	bnez	a5,20006ce8 <stdio_out_chars_crlf+0x28>
20006ce2:	01454783          	lbu	a5,20(a0)
20006ce6:	cfa1                	beqz	a5,20006d3e <stdio_out_chars_crlf+0x7e>
20006ce8:	4785                	li	a5,1
20006cea:	4601                	li	a2,0
20006cec:	02f40463          	beq	s0,a5,20006d14 <stdio_out_chars_crlf+0x54>
20006cf0:	00190693          	addi	a3,s2,1
20006cf4:	4785                	li	a5,1
20006cf6:	0006c703          	lbu	a4,0(a3)
20006cfa:	883e                	mv	a6,a5
20006cfc:	0785                	addi	a5,a5,1
20006cfe:	1759                	addi	a4,a4,-10
20006d00:	e709                	bnez	a4,20006d0a <stdio_out_chars_crlf+0x4a>
20006d02:	fff6c703          	lbu	a4,-1(a3)
20006d06:	174d                	addi	a4,a4,-13
20006d08:	ef29                	bnez	a4,20006d62 <stdio_out_chars_crlf+0xa2>
20006d0a:	0685                	addi	a3,a3,1
20006d0c:	fef415e3          	bne	s0,a5,20006cf6 <stdio_out_chars_crlf+0x36>
20006d10:	00865863          	bge	a2,s0,20006d20 <stdio_out_chars_crlf+0x60>
20006d14:	409c                	lw	a5,0(s1)
20006d16:	40c405b3          	sub	a1,s0,a2
20006d1a:	00c90533          	add	a0,s2,a2
20006d1e:	9782                	jalr	a5
20006d20:	008905b3          	add	a1,s2,s0
20006d24:	fff5c783          	lbu	a5,-1(a1)
20006d28:	4462                	lw	s0,24(sp)
20006d2a:	17cd                	addi	a5,a5,-13
20006d2c:	0017b793          	seqz	a5,a5
20006d30:	00f48a23          	sb	a5,20(s1)
20006d34:	44d2                	lw	s1,20(sp)
20006d36:	40f2                	lw	ra,28(sp)
20006d38:	4942                	lw	s2,16(sp)
20006d3a:	6105                	addi	sp,sp,32
20006d3c:	8082                	ret
20006d3e:	411c                	lw	a5,0(a0)
20006d40:	2000c537          	lui	a0,0x2000c
20006d44:	fc850513          	addi	a0,a0,-56 # 2000bfc8 <crlf_str.0>
20006d48:	4589                	li	a1,2
20006d4a:	9782                	jalr	a5
20006d4c:	4605                	li	a2,1
20006d4e:	fac411e3          	bne	s0,a2,20006cf0 <stdio_out_chars_crlf+0x30>
20006d52:	b7f9                	j	20006d20 <stdio_out_chars_crlf+0x60>
20006d54:	411c                	lw	a5,0(a0)
20006d56:	40f2                	lw	ra,28(sp)
20006d58:	854a                	mv	a0,s2
20006d5a:	4942                	lw	s2,16(sp)
20006d5c:	85b2                	mv	a1,a2
20006d5e:	6105                	addi	sp,sp,32
20006d60:	8782                	jr	a5
20006d62:	40c805b3          	sub	a1,a6,a2
20006d66:	00c90533          	add	a0,s2,a2
20006d6a:	01065863          	bge	a2,a6,20006d7a <stdio_out_chars_crlf+0xba>
20006d6e:	4098                	lw	a4,0(s1)
20006d70:	c636                	sw	a3,12(sp)
20006d72:	c43e                	sw	a5,8(sp)
20006d74:	9702                	jalr	a4
20006d76:	46b2                	lw	a3,12(sp)
20006d78:	47a2                	lw	a5,8(sp)
20006d7a:	4098                	lw	a4,0(s1)
20006d7c:	2000c537          	lui	a0,0x2000c
20006d80:	fc850513          	addi	a0,a0,-56 # 2000bfc8 <crlf_str.0>
20006d84:	4589                	li	a1,2
20006d86:	c636                	sw	a3,12(sp)
20006d88:	c43e                	sw	a5,8(sp)
20006d8a:	9702                	jalr	a4
20006d8c:	47a2                	lw	a5,8(sp)
20006d8e:	46b2                	lw	a3,12(sp)
20006d90:	863e                	mv	a2,a5
20006d92:	bfa5                	j	20006d0a <stdio_out_chars_crlf+0x4a>

20006d94 <stdio_put_string>:
20006d94:	7139                	addi	sp,sp,-64
20006d96:	dc22                	sw	s0,56(sp)
20006d98:	da26                	sw	s1,52(sp)
20006d9a:	d84a                	sw	s2,48(sp)
20006d9c:	d256                	sw	s5,36(sp)
20006d9e:	de06                	sw	ra,60(sp)
20006da0:	8ab2                	mv	s5,a2
20006da2:	d64e                	sw	s3,44(sp)
20006da4:	d452                	sw	s4,40(sp)
20006da6:	ce5e                	sw	s7,28(sp)
20006da8:	84ae                	mv	s1,a1
20006daa:	892a                	mv	s2,a0
20006dac:	8436                	mv	s0,a3
20006dae:	f1ffd0ef          	jal	20004ccc <time_us_64>
20006db2:	000f47b7          	lui	a5,0xf4
20006db6:	24078793          	addi	a5,a5,576 # f4240 <HeapSize+0xf3a40>
20006dba:	97aa                	add	a5,a5,a0
20006dbc:	00a7b633          	sltu	a2,a5,a0
20006dc0:	80000737          	lui	a4,0x80000
20006dc4:	962e                	add	a2,a2,a1
20006dc6:	177d                	addi	a4,a4,-1 # 7fffffff <__StackTop+0x5ff7dfff>
20006dc8:	85be                	mv	a1,a5
20006dca:	00c77463          	bgeu	a4,a2,20006dd2 <stdio_put_string+0x3e>
20006dce:	863a                	mv	a2,a4
20006dd0:	55fd                	li	a1,-1
20006dd2:	2000ca37          	lui	s4,0x2000c
20006dd6:	1a8a0513          	addi	a0,s4,424 # 2000c1a8 <print_mutex>
20006dda:	d62f90ef          	jal	2000033c <mutex_try_enter_block_until>
20006dde:	57fd                	li	a5,-1
20006de0:	8baa                	mv	s7,a0
20006de2:	08f48f63          	beq	s1,a5,20006e80 <stdio_put_string+0xec>
20006de6:	c439                	beqz	s0,20006e34 <stdio_put_string+0xa0>
20006de8:	200079b7          	lui	s3,0x20007
20006dec:	cc098993          	addi	s3,s3,-832 # 20006cc0 <stdio_out_chars_crlf>
20006df0:	8481a403          	lw	s0,-1976(gp) # 2000c7d4 <drivers>
20006df4:	c01d                	beqz	s0,20006e1a <stdio_put_string+0x86>
20006df6:	040a9463          	bnez	s5,20006e3e <stdio_put_string+0xaa>
20006dfa:	a029                	j	20006e04 <stdio_put_string+0x70>
20006dfc:	00878c63          	beq	a5,s0,20006e14 <stdio_put_string+0x80>
20006e00:	4800                	lw	s0,16(s0)
20006e02:	cc01                	beqz	s0,20006e1a <stdio_put_string+0x86>
20006e04:	401c                	lw	a5,0(s0)
20006e06:	8626                	mv	a2,s1
20006e08:	85ca                	mv	a1,s2
20006e0a:	8522                	mv	a0,s0
20006e0c:	dbf5                	beqz	a5,20006e00 <stdio_put_string+0x6c>
20006e0e:	8441a783          	lw	a5,-1980(gp) # 2000c7d0 <filter>
20006e12:	f7ed                	bnez	a5,20006dfc <stdio_put_string+0x68>
20006e14:	9982                	jalr	s3
20006e16:	4800                	lw	s0,16(s0)
20006e18:	f475                	bnez	s0,20006e04 <stdio_put_string+0x70>
20006e1a:	040b9e63          	bnez	s7,20006e76 <stdio_put_string+0xe2>
20006e1e:	50f2                	lw	ra,60(sp)
20006e20:	5462                	lw	s0,56(sp)
20006e22:	5942                	lw	s2,48(sp)
20006e24:	59b2                	lw	s3,44(sp)
20006e26:	5a22                	lw	s4,40(sp)
20006e28:	5a92                	lw	s5,36(sp)
20006e2a:	4bf2                	lw	s7,28(sp)
20006e2c:	8526                	mv	a0,s1
20006e2e:	54d2                	lw	s1,52(sp)
20006e30:	6121                	addi	sp,sp,64
20006e32:	8082                	ret
20006e34:	200079b7          	lui	s3,0x20007
20006e38:	cb898993          	addi	s3,s3,-840 # 20006cb8 <stdio_out_chars_no_crlf>
20006e3c:	bf55                	j	20006df0 <stdio_put_string+0x5c>
20006e3e:	d05a                	sw	s6,32(sp)
20006e40:	4b29                	li	s6,10
20006e42:	a029                	j	20006e4c <stdio_put_string+0xb8>
20006e44:	00878c63          	beq	a5,s0,20006e5c <stdio_put_string+0xc8>
20006e48:	4800                	lw	s0,16(s0)
20006e4a:	c01d                	beqz	s0,20006e70 <stdio_put_string+0xdc>
20006e4c:	401c                	lw	a5,0(s0)
20006e4e:	8626                	mv	a2,s1
20006e50:	85ca                	mv	a1,s2
20006e52:	8522                	mv	a0,s0
20006e54:	dbf5                	beqz	a5,20006e48 <stdio_put_string+0xb4>
20006e56:	8441a783          	lw	a5,-1980(gp) # 2000c7d0 <filter>
20006e5a:	f7ed                	bnez	a5,20006e44 <stdio_put_string+0xb0>
20006e5c:	9982                	jalr	s3
20006e5e:	8522                	mv	a0,s0
20006e60:	00f10593          	addi	a1,sp,15
20006e64:	4605                	li	a2,1
20006e66:	016107a3          	sb	s6,15(sp)
20006e6a:	9982                	jalr	s3
20006e6c:	4800                	lw	s0,16(s0)
20006e6e:	fc79                	bnez	s0,20006e4c <stdio_put_string+0xb8>
20006e70:	5b02                	lw	s6,32(sp)
20006e72:	fa0b86e3          	beqz	s7,20006e1e <stdio_put_string+0x8a>
20006e76:	1a8a0513          	addi	a0,s4,424
20006e7a:	d2cf90ef          	jal	200003a6 <mutex_exit>
20006e7e:	b745                	j	20006e1e <stdio_put_string+0x8a>
20006e80:	854a                	mv	a0,s2
20006e82:	59f030ef          	jal	2000ac20 <strlen>
20006e86:	84aa                	mv	s1,a0
20006e88:	bfb9                	j	20006de6 <stdio_put_string+0x52>

20006e8a <stdio_set_driver_enabled>:
20006e8a:	8481a783          	lw	a5,-1976(gp) # 2000c7d4 <drivers>
20006e8e:	84818713          	addi	a4,gp,-1976 # 2000c7d4 <drivers>
20006e92:	c799                	beqz	a5,20006ea0 <stdio_set_driver_enabled+0x16>
20006e94:	00a78963          	beq	a5,a0,20006ea6 <stdio_set_driver_enabled+0x1c>
20006e98:	01078713          	addi	a4,a5,16
20006e9c:	4b9c                	lw	a5,16(a5)
20006e9e:	fbfd                	bnez	a5,20006e94 <stdio_set_driver_enabled+0xa>
20006ea0:	c191                	beqz	a1,20006ea4 <stdio_set_driver_enabled+0x1a>
20006ea2:	c308                	sw	a0,0(a4)
20006ea4:	8082                	ret
20006ea6:	fdfd                	bnez	a1,20006ea4 <stdio_set_driver_enabled+0x1a>
20006ea8:	4b94                	lw	a3,16(a5)
20006eaa:	c314                	sw	a3,0(a4)
20006eac:	0007a823          	sw	zero,16(a5)
20006eb0:	8082                	ret

20006eb2 <stdio_init_all>:
20006eb2:	1141                	addi	sp,sp,-16
20006eb4:	c606                	sw	ra,12(sp)
20006eb6:	2c9d                	jal	2000712c <stdio_uart_init>
20006eb8:	40b2                	lw	ra,12(sp)
20006eba:	4505                	li	a0,1
20006ebc:	0141                	addi	sp,sp,16
20006ebe:	8082                	ret

20006ec0 <__wrap_putchar>:
20006ec0:	7179                	addi	sp,sp,-48
20006ec2:	d04a                	sw	s2,32(sp)
20006ec4:	d606                	sw	ra,44(sp)
20006ec6:	d422                	sw	s0,40(sp)
20006ec8:	ce4e                	sw	s3,28(sp)
20006eca:	cc52                	sw	s4,24(sp)
20006ecc:	892a                	mv	s2,a0
20006ece:	00a107a3          	sb	a0,15(sp)
20006ed2:	dfbfd0ef          	jal	20004ccc <time_us_64>
20006ed6:	000f47b7          	lui	a5,0xf4
20006eda:	24078793          	addi	a5,a5,576 # f4240 <HeapSize+0xf3a40>
20006ede:	97aa                	add	a5,a5,a0
20006ee0:	00a7b633          	sltu	a2,a5,a0
20006ee4:	80000737          	lui	a4,0x80000
20006ee8:	962e                	add	a2,a2,a1
20006eea:	177d                	addi	a4,a4,-1 # 7fffffff <__StackTop+0x5ff7dfff>
20006eec:	85be                	mv	a1,a5
20006eee:	00c77463          	bgeu	a4,a2,20006ef6 <__wrap_putchar+0x36>
20006ef2:	863a                	mv	a2,a4
20006ef4:	55fd                	li	a1,-1
20006ef6:	2000c9b7          	lui	s3,0x2000c
20006efa:	1a898513          	addi	a0,s3,424 # 2000c1a8 <print_mutex>
20006efe:	c3ef90ef          	jal	2000033c <mutex_try_enter_block_until>
20006f02:	8481a403          	lw	s0,-1976(gp) # 2000c7d4 <drivers>
20006f06:	8a2a                	mv	s4,a0
20006f08:	c405                	beqz	s0,20006f30 <__wrap_putchar+0x70>
20006f0a:	d226                	sw	s1,36(sp)
20006f0c:	a029                	j	20006f16 <__wrap_putchar+0x56>
20006f0e:	00f40d63          	beq	s0,a5,20006f28 <__wrap_putchar+0x68>
20006f12:	4800                	lw	s0,16(s0)
20006f14:	cc09                	beqz	s0,20006f2e <__wrap_putchar+0x6e>
20006f16:	401c                	lw	a5,0(s0)
20006f18:	4605                	li	a2,1
20006f1a:	00f10593          	addi	a1,sp,15
20006f1e:	8522                	mv	a0,s0
20006f20:	dbed                	beqz	a5,20006f12 <__wrap_putchar+0x52>
20006f22:	8441a783          	lw	a5,-1980(gp) # 2000c7d0 <filter>
20006f26:	f7e5                	bnez	a5,20006f0e <__wrap_putchar+0x4e>
20006f28:	3b61                	jal	20006cc0 <stdio_out_chars_crlf>
20006f2a:	4800                	lw	s0,16(s0)
20006f2c:	f46d                	bnez	s0,20006f16 <__wrap_putchar+0x56>
20006f2e:	5492                	lw	s1,36(sp)
20006f30:	000a1a63          	bnez	s4,20006f44 <__wrap_putchar+0x84>
20006f34:	50b2                	lw	ra,44(sp)
20006f36:	5422                	lw	s0,40(sp)
20006f38:	49f2                	lw	s3,28(sp)
20006f3a:	4a62                	lw	s4,24(sp)
20006f3c:	854a                	mv	a0,s2
20006f3e:	5902                	lw	s2,32(sp)
20006f40:	6145                	addi	sp,sp,48
20006f42:	8082                	ret
20006f44:	1a898513          	addi	a0,s3,424
20006f48:	c5ef90ef          	jal	200003a6 <mutex_exit>
20006f4c:	50b2                	lw	ra,44(sp)
20006f4e:	5422                	lw	s0,40(sp)
20006f50:	49f2                	lw	s3,28(sp)
20006f52:	4a62                	lw	s4,24(sp)
20006f54:	854a                	mv	a0,s2
20006f56:	5902                	lw	s2,32(sp)
20006f58:	6145                	addi	sp,sp,48
20006f5a:	8082                	ret

20006f5c <__wrap_puts>:
20006f5c:	1141                	addi	sp,sp,-16
20006f5e:	c606                	sw	ra,12(sp)
20006f60:	c422                	sw	s0,8(sp)
20006f62:	c226                	sw	s1,4(sp)
20006f64:	842a                	mv	s0,a0
20006f66:	4bb030ef          	jal	2000ac20 <strlen>
20006f6a:	84aa                	mv	s1,a0
20006f6c:	4685                	li	a3,1
20006f6e:	8522                	mv	a0,s0
20006f70:	85a6                	mv	a1,s1
20006f72:	8636                	mv	a2,a3
20006f74:	3505                	jal	20006d94 <stdio_put_string>
20006f76:	8481a403          	lw	s0,-1976(gp) # 2000c7d4 <drivers>
20006f7a:	c411                	beqz	s0,20006f86 <__wrap_puts+0x2a>
20006f7c:	405c                	lw	a5,4(s0)
20006f7e:	cb91                	beqz	a5,20006f92 <__wrap_puts+0x36>
20006f80:	9782                	jalr	a5
20006f82:	4800                	lw	s0,16(s0)
20006f84:	fc65                	bnez	s0,20006f7c <__wrap_puts+0x20>
20006f86:	40b2                	lw	ra,12(sp)
20006f88:	4422                	lw	s0,8(sp)
20006f8a:	8526                	mv	a0,s1
20006f8c:	4492                	lw	s1,4(sp)
20006f8e:	0141                	addi	sp,sp,16
20006f90:	8082                	ret
20006f92:	4800                	lw	s0,16(s0)
20006f94:	f465                	bnez	s0,20006f7c <__wrap_puts+0x20>
20006f96:	40b2                	lw	ra,12(sp)
20006f98:	4422                	lw	s0,8(sp)
20006f9a:	8526                	mv	a0,s1
20006f9c:	4492                	lw	s1,4(sp)
20006f9e:	0141                	addi	sp,sp,16
20006fa0:	8082                	ret

20006fa2 <stdio_uart_out_chars>:
20006fa2:	02b05e63          	blez	a1,20006fde <stdio_uart_out_chars+0x3c>
20006fa6:	8541a703          	lw	a4,-1964(gp) # 2000c7e0 <uart_instance>
20006faa:	bff887b7          	lui	a5,0xbff88
20006fae:	97ba                	add	a5,a5,a4
20006fb0:	0017b793          	seqz	a5,a5
20006fb4:	83c18693          	addi	a3,gp,-1988 # 2000c7c8 <uart_char_to_line_feed>
20006fb8:	20d7a7b3          	sh1add	a5,a5,a3
20006fbc:	00079803          	lh	a6,0(a5) # bff88000 <__StackTop+0x9ff06000>
20006fc0:	00b50633          	add	a2,a0,a1
20006fc4:	45b5                	li	a1,13
20006fc6:	00054683          	lbu	a3,0(a0)
20006fca:	00d80b63          	beq	a6,a3,20006fe0 <stdio_uart_out_chars+0x3e>
20006fce:	4f1c                	lw	a5,24(a4)
20006fd0:	0207f793          	andi	a5,a5,32
20006fd4:	ffed                	bnez	a5,20006fce <stdio_uart_out_chars+0x2c>
20006fd6:	c314                	sw	a3,0(a4)
20006fd8:	0505                	addi	a0,a0,1
20006fda:	fec516e3          	bne	a0,a2,20006fc6 <stdio_uart_out_chars+0x24>
20006fde:	8082                	ret
20006fe0:	4f1c                	lw	a5,24(a4)
20006fe2:	0207f793          	andi	a5,a5,32
20006fe6:	ffed                	bnez	a5,20006fe0 <stdio_uart_out_chars+0x3e>
20006fe8:	c30c                	sw	a1,0(a4)
20006fea:	b7d5                	j	20006fce <stdio_uart_out_chars+0x2c>

20006fec <stdio_uart_in_chars>:
20006fec:	8501a803          	lw	a6,-1968(gp) # 2000c7dc <chars_available_callback>
20006ff0:	06b05363          	blez	a1,20007056 <stdio_uart_in_chars+0x6a>
20006ff4:	8541a703          	lw	a4,-1964(gp) # 2000c7e0 <uart_instance>
20006ff8:	4681                	li	a3,0
20006ffa:	4f1c                	lw	a5,24(a4)
20006ffc:	8bc1                	andi	a5,a5,16
20006ffe:	ef85                	bnez	a5,20007036 <stdio_uart_in_chars+0x4a>
20007000:	0685                	addi	a3,a3,1
20007002:	4f1c                	lw	a5,24(a4)
20007004:	8bc1                	andi	a5,a5,16
20007006:	fff5                	bnez	a5,20007002 <stdio_uart_in_chars+0x16>
20007008:	4310                	lw	a2,0(a4)
2000700a:	00d507b3          	add	a5,a0,a3
2000700e:	fec78fa3          	sb	a2,-1(a5)
20007012:	fed594e3          	bne	a1,a3,20006ffa <stdio_uart_in_chars+0xe>
20007016:	00080d63          	beqz	a6,20007030 <stdio_uart_in_chars+0x44>
2000701a:	05000793          	li	a5,80
2000701e:	df1c                	sw	a5,56(a4)
20007020:	5b5c                	lw	a5,52(a4)
20007022:	6685                	lui	a3,0x1
20007024:	03468693          	addi	a3,a3,52 # 1034 <HeapSize+0x834>
20007028:	0387f793          	andi	a5,a5,56
2000702c:	9736                	add	a4,a4,a3
2000702e:	c31c                	sw	a5,0(a4)
20007030:	86ae                	mv	a3,a1
20007032:	8536                	mv	a0,a3
20007034:	8082                	ret
20007036:	00080d63          	beqz	a6,20007050 <stdio_uart_in_chars+0x64>
2000703a:	05000793          	li	a5,80
2000703e:	df1c                	sw	a5,56(a4)
20007040:	5b5c                	lw	a5,52(a4)
20007042:	6605                	lui	a2,0x1
20007044:	03460613          	addi	a2,a2,52 # 1034 <HeapSize+0x834>
20007048:	0387f793          	andi	a5,a5,56
2000704c:	9732                	add	a4,a4,a2
2000704e:	c31c                	sw	a5,0(a4)
20007050:	f2ed                	bnez	a3,20007032 <stdio_uart_in_chars+0x46>
20007052:	56f5                	li	a3,-3
20007054:	bff9                	j	20007032 <stdio_uart_in_chars+0x46>
20007056:	fe080ee3          	beqz	a6,20007052 <stdio_uart_in_chars+0x66>
2000705a:	8541a783          	lw	a5,-1964(gp) # 2000c7e0 <uart_instance>
2000705e:	05000713          	li	a4,80
20007062:	6685                	lui	a3,0x1
20007064:	df98                	sw	a4,56(a5)
20007066:	5bd8                	lw	a4,52(a5)
20007068:	03468693          	addi	a3,a3,52 # 1034 <HeapSize+0x834>
2000706c:	97b6                	add	a5,a5,a3
2000706e:	03877713          	andi	a4,a4,56
20007072:	c398                	sw	a4,0(a5)
20007074:	56f5                	li	a3,-3
20007076:	bf75                	j	20007032 <stdio_uart_in_chars+0x46>

20007078 <on_uart_rx>:
20007078:	8501a783          	lw	a5,-1968(gp) # 2000c7dc <chars_available_callback>
2000707c:	cb81                	beqz	a5,2000708c <on_uart_rx+0x14>
2000707e:	8541a703          	lw	a4,-1964(gp) # 2000c7e0 <uart_instance>
20007082:	84c1a503          	lw	a0,-1972(gp) # 2000c7d8 <chars_available_param>
20007086:	02072c23          	sw	zero,56(a4)
2000708a:	8782                	jr	a5
2000708c:	8082                	ret

2000708e <stdio_uart_out_flush>:
2000708e:	8541a703          	lw	a4,-1964(gp) # 2000c7e0 <uart_instance>
20007092:	4f1c                	lw	a5,24(a4)
20007094:	8ba1                	andi	a5,a5,8
20007096:	fff5                	bnez	a5,20007092 <stdio_uart_out_flush+0x4>
20007098:	8082                	ret

2000709a <stdio_uart_set_chars_available_callback>:
2000709a:	8541a703          	lw	a4,-1964(gp) # 2000c7e0 <uart_instance>
2000709e:	400787b7          	lui	a5,0x40078
200070a2:	1101                	addi	sp,sp,-32
200070a4:	862a                	mv	a2,a0
200070a6:	40f70533          	sub	a0,a4,a5
200070aa:	00153513          	seqz	a0,a0
200070ae:	ce06                	sw	ra,28(sp)
200070b0:	882e                	mv	a6,a1
200070b2:	02150513          	addi	a0,a0,33
200070b6:	8501a583          	lw	a1,-1968(gp) # 2000c7dc <chars_available_callback>
200070ba:	c609                	beqz	a2,200070c4 <stdio_uart_set_chars_available_callback+0x2a>
200070bc:	c98d                	beqz	a1,200070ee <stdio_uart_set_chars_available_callback+0x54>
200070be:	40f2                	lw	ra,28(sp)
200070c0:	6105                	addi	sp,sp,32
200070c2:	8082                	ret
200070c4:	dded                	beqz	a1,200070be <stdio_uart_set_chars_available_callback+0x24>
200070c6:	02072c23          	sw	zero,56(a4)
200070ca:	4581                	li	a1,0
200070cc:	c62a                	sw	a0,12(sp)
200070ce:	edffc0ef          	jal	20003fac <irq_set_enabled>
200070d2:	4532                	lw	a0,12(sp)
200070d4:	200075b7          	lui	a1,0x20007
200070d8:	07858593          	addi	a1,a1,120 # 20007078 <on_uart_rx>
200070dc:	f9bfc0ef          	jal	20004076 <irq_remove_handler>
200070e0:	40f2                	lw	ra,28(sp)
200070e2:	8401a823          	sw	zero,-1968(gp) # 2000c7dc <chars_available_callback>
200070e6:	8401a623          	sw	zero,-1972(gp) # 2000c7d8 <chars_available_param>
200070ea:	6105                	addi	sp,sp,32
200070ec:	8082                	ret
200070ee:	200075b7          	lui	a1,0x20007
200070f2:	07858593          	addi	a1,a1,120 # 20007078 <on_uart_rx>
200070f6:	c62a                	sw	a0,12(sp)
200070f8:	84c1a823          	sw	a2,-1968(gp) # 2000c7dc <chars_available_callback>
200070fc:	8501a623          	sw	a6,-1972(gp) # 2000c7d8 <chars_available_param>
20007100:	ef5fc0ef          	jal	20003ff4 <irq_set_exclusive_handler>
20007104:	4532                	lw	a0,12(sp)
20007106:	4585                	li	a1,1
20007108:	ea5fc0ef          	jal	20003fac <irq_set_enabled>
2000710c:	8541a783          	lw	a5,-1964(gp) # 2000c7e0 <uart_instance>
20007110:	05000713          	li	a4,80
20007114:	6685                	lui	a3,0x1
20007116:	df98                	sw	a4,56(a5)
20007118:	5bd8                	lw	a4,52(a5)
2000711a:	40f2                	lw	ra,28(sp)
2000711c:	03468693          	addi	a3,a3,52 # 1034 <HeapSize+0x834>
20007120:	97b6                	add	a5,a5,a3
20007122:	03877713          	andi	a4,a4,56
20007126:	c398                	sw	a4,0(a5)
20007128:	6105                	addi	sp,sp,32
2000712a:	8082                	ret

2000712c <stdio_uart_init>:
2000712c:	2000c7b7          	lui	a5,0x2000c
20007130:	ff07c783          	lbu	a5,-16(a5) # 2000bff0 <__bi_ptr45.13>
20007134:	1141                	addi	sp,sp,-16
20007136:	2000c7b7          	lui	a5,0x2000c
2000713a:	fec7c783          	lbu	a5,-20(a5) # 2000bfec <__bi_ptr49.12>
2000713e:	c422                	sw	s0,8(sp)
20007140:	2000c7b7          	lui	a5,0x2000c
20007144:	fe87c783          	lbu	a5,-24(a5) # 2000bfe8 <__bi_ptr50.11>
20007148:	400707b7          	lui	a5,0x40070
2000714c:	4589                	li	a1,2
2000714e:	4501                	li	a0,0
20007150:	c606                	sw	ra,12(sp)
20007152:	84f1aa23          	sw	a5,-1964(gp) # 2000c7e0 <uart_instance>
20007156:	c49fc0ef          	jal	20003d9e <gpio_set_function>
2000715a:	4589                	li	a1,2
2000715c:	4505                	li	a0,1
2000715e:	c41fc0ef          	jal	20003d9e <gpio_set_function>
20007162:	8541a503          	lw	a0,-1964(gp) # 2000c7e0 <uart_instance>
20007166:	65f1                	lui	a1,0x1c
20007168:	20058593          	addi	a1,a1,512 # 1c200 <HeapSize+0x1ba00>
2000716c:	bfbfd0ef          	jal	20004d66 <uart_init>
20007170:	4422                	lw	s0,8(sp)
20007172:	40b2                	lw	ra,12(sp)
20007174:	2000c537          	lui	a0,0x2000c
20007178:	05850513          	addi	a0,a0,88 # 2000c058 <stdio_uart>
2000717c:	4585                	li	a1,1
2000717e:	0141                	addi	sp,sp,16
20007180:	d0bff06f          	j	20006e8a <stdio_set_driver_enabled>

20007184 <core1_trampoline>:
20007184:	4502                	lw	a0,0(sp)
20007186:	4592                	lw	a1,4(sp)
20007188:	4622                	lw	a2,8(sp)
2000718a:	41b2                	lw	gp,12(sp)
2000718c:	0141                	addi	sp,sp,16
2000718e:	8602                	jr	a2

20007190 <core1_wrapper>:
20007190:	1101                	addi	sp,sp,-32
20007192:	ce06                	sw	ra,28(sp)
20007194:	c62a                	sw	a0,12(sp)
20007196:	f2ffd0ef          	jal	200050c4 <runtime_run_per_core_initializers>
2000719a:	4532                	lw	a0,12(sp)
2000719c:	40f2                	lw	ra,28(sp)
2000719e:	6105                	addi	sp,sp,32
200071a0:	8502                	jr	a0

200071a2 <multicore_launch_core1_raw>:
200071a2:	7139                	addi	sp,sp,-64
200071a4:	da26                	sw	s1,52(sp)
200071a6:	84aa                	mv	s1,a0
200071a8:	4565                	li	a0,25
200071aa:	c632                	sw	a2,12(sp)
200071ac:	de06                	sw	ra,60(sp)
200071ae:	dc22                	sw	s0,56(sp)
200071b0:	d84a                	sw	s2,48(sp)
200071b2:	842e                	mv	s0,a1
200071b4:	e2ffc0ef          	jal	20003fe2 <irq_is_enabled>
200071b8:	4581                	li	a1,0
200071ba:	892a                	mv	s2,a0
200071bc:	4565                	li	a0,25
200071be:	deffc0ef          	jal	20003fac <irq_set_enabled>
200071c2:	4632                	lw	a2,12(sp)
200071c4:	4785                	li	a5,1
200071c6:	d422                	sw	s0,40(sp)
200071c8:	d232                	sw	a2,36(sp)
200071ca:	d626                	sw	s1,44(sp)
200071cc:	d03e                	sw	a5,32(sp)
200071ce:	cc02                	sw	zero,24(sp)
200071d0:	ce02                	sw	zero,28(sp)
200071d2:	082c                	addi	a1,sp,24
200071d4:	4681                	li	a3,0
200071d6:	4601                	li	a2,0
200071d8:	d0000737          	lui	a4,0xd0000
200071dc:	4519                	li	a0,6
200071de:	ca85                	beqz	a3,2000720e <multicore_launch_core1_raw+0x6c>
200071e0:	4b3c                	lw	a5,80(a4)
200071e2:	8b89                	andi	a5,a5,2
200071e4:	dff5                	beqz	a5,200071e0 <multicore_launch_core1_raw+0x3e>
200071e6:	cb74                	sw	a3,84(a4)
200071e8:	00102033          	sgtz	zero,ra
200071ec:	4b3c                	lw	a5,80(a4)
200071ee:	8b85                	andi	a5,a5,1
200071f0:	e791                	bnez	a5,200071fc <multicore_launch_core1_raw+0x5a>
200071f2:	00002033          	sltz	zero,zero
200071f6:	4b3c                	lw	a5,80(a4)
200071f8:	8b85                	andi	a5,a5,1
200071fa:	dfe5                	beqz	a5,200071f2 <multicore_launch_core1_raw+0x50>
200071fc:	4f3c                	lw	a5,88(a4)
200071fe:	00d78e63          	beq	a5,a3,2000721a <multicore_launch_core1_raw+0x78>
20007202:	4601                	li	a2,0
20007204:	20b647b3          	sh2add	a5,a2,a1
20007208:	4394                	lw	a3,0(a5)
2000720a:	bfd1                	j	200071de <multicore_launch_core1_raw+0x3c>
2000720c:	4f3c                	lw	a5,88(a4)
2000720e:	4b3c                	lw	a5,80(a4)
20007210:	8b85                	andi	a5,a5,1
20007212:	ffed                	bnez	a5,2000720c <multicore_launch_core1_raw+0x6a>
20007214:	00102033          	sgtz	zero,ra
20007218:	b7e1                	j	200071e0 <multicore_launch_core1_raw+0x3e>
2000721a:	0605                	addi	a2,a2,1
2000721c:	fea614e3          	bne	a2,a0,20007204 <multicore_launch_core1_raw+0x62>
20007220:	5462                	lw	s0,56(sp)
20007222:	50f2                	lw	ra,60(sp)
20007224:	54d2                	lw	s1,52(sp)
20007226:	85ca                	mv	a1,s2
20007228:	5942                	lw	s2,48(sp)
2000722a:	4565                	li	a0,25
2000722c:	6121                	addi	sp,sp,64
2000722e:	d7ffc06f          	j	20003fac <irq_set_enabled>

20007232 <multicore_launch_core1>:
20007232:	200817b7          	lui	a5,0x20081
20007236:	20080737          	lui	a4,0x20080
2000723a:	80078793          	addi	a5,a5,-2048 # 20080800 <__StackOneBottom>
2000723e:	00070713          	mv	a4,a4
20007242:	02e7ef63          	bltu	a5,a4,20007280 <multicore_launch_core1+0x4e>
20007246:	20081837          	lui	a6,0x20081
2000724a:	200815b7          	lui	a1,0x20081
2000724e:	873e                	mv	a4,a5
20007250:	ffc80813          	addi	a6,a6,-4 # 20080ffc <__StackOneBottom+0x7fc>
20007254:	ff058593          	addi	a1,a1,-16 # 20080ff0 <__StackOneBottom+0x7f0>
20007258:	30502673          	csrr	a2,mtvec
2000725c:	888e                	mv	a7,gp
2000725e:	200076b7          	lui	a3,0x20007
20007262:	01182023          	sw	a7,0(a6)
20007266:	19068693          	addi	a3,a3,400 # 20007190 <core1_wrapper>
2000726a:	20007837          	lui	a6,0x20007
2000726e:	7ea72823          	sw	a0,2032(a4) # 200807f0 <core1_stack+0x7f0>
20007272:	7ef72a23          	sw	a5,2036(a4)
20007276:	7ed72c23          	sw	a3,2040(a4)
2000727a:	18480513          	addi	a0,a6,388 # 20007184 <core1_trampoline>
2000727e:	b715                	j	200071a2 <multicore_launch_core1_raw>
20007280:	57fd                	li	a5,-1
20007282:	873e                	mv	a4,a5
20007284:	7fb00813          	li	a6,2043
20007288:	7ef00593          	li	a1,2031
2000728c:	b7f1                	j	20007258 <multicore_launch_core1+0x26>

2000728e <add_program_at_offset>:
2000728e:	16852703          	lw	a4,360(a0)
20007292:	0075c783          	lbu	a5,7(a1)
20007296:	88aa                	mv	a7,a0
20007298:	c75d                	beqz	a4,20007346 <add_program_at_offset+0xb8>
2000729a:	8b85                	andi	a5,a5,1
2000729c:	ebcd                	bnez	a5,2000734e <add_program_at_offset+0xc0>
2000729e:	00558783          	lb	a5,5(a1)
200072a2:	0007c463          	bltz	a5,200072aa <add_program_at_offset+0x1c>
200072a6:	0ac79463          	bne	a5,a2,2000734e <add_program_at_offset+0xc0>
200072aa:	afe00f37          	lui	t5,0xafe00
200072ae:	0045ce03          	lbu	t3,4(a1)
200072b2:	9f46                	add	t5,t5,a7
200072b4:	2000c3b7          	lui	t2,0x2000c
200072b8:	014f5f13          	srli	t5,t5,0x14
200072bc:	4c038393          	addi	t2,t2,1216 # 2000c4c0 <_used_instruction_space>
200072c0:	207f47b3          	sh2add	a5,t5,t2
200072c4:	0007a283          	lw	t0,0(a5)
200072c8:	29c01fb3          	bset	t6,zero,t3
200072cc:	1ffd                	addi	t6,t6,-1
200072ce:	00cf9fb3          	sll	t6,t6,a2
200072d2:	01f2f7b3          	and	a5,t0,t6
200072d6:	efb5                	bnez	a5,20007352 <add_program_at_offset+0xc4>
200072d8:	040e0f63          	beqz	t3,20007336 <add_program_at_offset+0xa8>
200072dc:	4198                	lw	a4,0(a1)
200072de:	7ef9                	lui	t4,0xffffe
200072e0:	85b2                	mv	a1,a2
200072e2:	20ee2e33          	sh1add	t3,t3,a4
200072e6:	6309                	lui	t1,0x2
200072e8:	a811                	j	200072fc <add_program_at_offset+0x6e>
200072ea:	00c78833          	add	a6,a5,a2
200072ee:	0267fe63          	bgeu	a5,t1,2000732a <add_program_at_offset+0x9c>
200072f2:	0106a423          	sw	a6,8(a3)
200072f6:	0585                	addi	a1,a1,1
200072f8:	03c70f63          	beq	a4,t3,20007336 <add_program_at_offset+0xa8>
200072fc:	00075783          	lhu	a5,0(a4)
20007300:	01058693          	addi	a3,a1,16
20007304:	2116c6b3          	sh2add	a3,a3,a7
20007308:	01d7f533          	and	a0,a5,t4
2000730c:	0709                	addi	a4,a4,2
2000730e:	fc651ee3          	bne	a0,t1,200072ea <add_program_at_offset+0x5c>
20007312:	0607f513          	andi	a0,a5,96
20007316:	e911                	bnez	a0,2000732a <add_program_at_offset+0x9c>
20007318:	1688a503          	lw	a0,360(a7)
2000731c:	8fa9                	xor	a5,a5,a0
2000731e:	0807c7b3          	zext.h	a5,a5
20007322:	00c78833          	add	a6,a5,a2
20007326:	fc67e6e3          	bltu	a5,t1,200072f2 <add_program_at_offset+0x64>
2000732a:	883e                	mv	a6,a5
2000732c:	0106a423          	sw	a6,8(a3)
20007330:	0585                	addi	a1,a1,1
20007332:	fdc715e3          	bne	a4,t3,200072fc <add_program_at_offset+0x6e>
20007336:	207f4f33          	sh2add	t5,t5,t2
2000733a:	01f2e2b3          	or	t0,t0,t6
2000733e:	005f2023          	sw	t0,0(t5) # afe00000 <__StackTop+0x8fd7e000>
20007342:	8532                	mv	a0,a2
20007344:	8082                	ret
20007346:	8b91                	andi	a5,a5,4
20007348:	5555                	li	a0,-11
2000734a:	dbb1                	beqz	a5,2000729e <add_program_at_offset+0x10>
2000734c:	8082                	ret
2000734e:	5555                	li	a0,-11
20007350:	8082                	ret
20007352:	555d                	li	a0,-9
20007354:	8082                	ret

20007356 <pio_claim_unused_sm>:
20007356:	afe007b7          	lui	a5,0xafe00
2000735a:	00f50633          	add	a2,a0,a5
2000735e:	8251                	srli	a2,a2,0x14
20007360:	060a                	slli	a2,a2,0x2
20007362:	2000b737          	lui	a4,0x2000b
20007366:	1101                	addi	sp,sp,-32
20007368:	00360693          	addi	a3,a2,3
2000736c:	19870713          	addi	a4,a4,408 # 2000b198 <strcmp+0x514>
20007370:	85818513          	addi	a0,gp,-1960 # 2000c7e4 <claimed>
20007374:	c632                	sw	a2,12(sp)
20007376:	ce06                	sw	ra,28(sp)
20007378:	b39fc0ef          	jal	20003eb0 <hw_claim_unused_from_range>
2000737c:	4632                	lw	a2,12(sp)
2000737e:	00c54663          	blt	a0,a2,2000738a <pio_claim_unused_sm+0x34>
20007382:	8d11                	sub	a0,a0,a2
20007384:	40f2                	lw	ra,28(sp)
20007386:	6105                	addi	sp,sp,32
20007388:	8082                	ret
2000738a:	557d                	li	a0,-1
2000738c:	bfe5                	j	20007384 <pio_claim_unused_sm+0x2e>

2000738e <pio_add_program>:
2000738e:	1101                	addi	sp,sp,-32
20007390:	cc22                	sw	s0,24(sp)
20007392:	c62e                	sw	a1,12(sp)
20007394:	842a                	mv	s0,a0
20007396:	ce06                	sw	ra,28(sp)
20007398:	ca26                	sw	s1,20(sp)
2000739a:	a75fc0ef          	jal	20003e0e <hw_claim_lock>
2000739e:	45b2                	lw	a1,12(sp)
200073a0:	afe007b7          	lui	a5,0xafe00
200073a4:	97a2                	add	a5,a5,s0
200073a6:	0045c803          	lbu	a6,4(a1)
200073aa:	2000c737          	lui	a4,0x2000c
200073ae:	00558603          	lb	a2,5(a1)
200073b2:	4c070713          	addi	a4,a4,1216 # 2000c4c0 <_used_instruction_space>
200073b6:	83d1                	srli	a5,a5,0x14
200073b8:	20e7c7b3          	sh2add	a5,a5,a4
200073bc:	290016b3          	bset	a3,zero,a6
200073c0:	02000713          	li	a4,32
200073c4:	88aa                	mv	a7,a0
200073c6:	16fd                	addi	a3,a3,-1
200073c8:	4388                	lw	a0,0(a5)
200073ca:	410707b3          	sub	a5,a4,a6
200073ce:	02064763          	bltz	a2,200073fc <pio_add_program+0x6e>
200073d2:	04c7c463          	blt	a5,a2,2000741a <pio_add_program+0x8c>
200073d6:	00c696b3          	sll	a3,a3,a2
200073da:	8ee9                	and	a3,a3,a0
200073dc:	54fd                	li	s1,-1
200073de:	e691                	bnez	a3,200073ea <pio_add_program+0x5c>
200073e0:	8522                	mv	a0,s0
200073e2:	c646                	sw	a7,12(sp)
200073e4:	356d                	jal	2000728e <add_program_at_offset>
200073e6:	48b2                	lw	a7,12(sp)
200073e8:	84aa                	mv	s1,a0
200073ea:	8546                	mv	a0,a7
200073ec:	a47fc0ef          	jal	20003e32 <hw_claim_unlock>
200073f0:	40f2                	lw	ra,28(sp)
200073f2:	4462                	lw	s0,24(sp)
200073f4:	8526                	mv	a0,s1
200073f6:	44d2                	lw	s1,20(sp)
200073f8:	6105                	addi	sp,sp,32
200073fa:	8082                	ret
200073fc:	01074d63          	blt	a4,a6,20007416 <pio_add_program+0x88>
20007400:	587d                	li	a6,-1
20007402:	a019                	j	20007408 <pio_add_program+0x7a>
20007404:	01078963          	beq	a5,a6,20007416 <pio_add_program+0x88>
20007408:	00f69733          	sll	a4,a3,a5
2000740c:	8f69                	and	a4,a4,a0
2000740e:	863e                	mv	a2,a5
20007410:	17fd                	addi	a5,a5,-1 # afdfffff <__StackTop+0x8fd7dfff>
20007412:	fb6d                	bnez	a4,20007404 <pio_add_program+0x76>
20007414:	b7f1                	j	200073e0 <pio_add_program+0x52>
20007416:	54dd                	li	s1,-9
20007418:	bfc9                	j	200073ea <pio_add_program+0x5c>
2000741a:	54fd                	li	s1,-1
2000741c:	b7f9                	j	200073ea <pio_add_program+0x5c>

2000741e <pio_sm_set_consecutive_pindirs>:
2000741e:	16852783          	lw	a5,360(a0)
20007422:	832a                	mv	t1,a0
20007424:	8e1d                	sub	a2,a2,a5
20007426:	47fd                	li	a5,31
20007428:	08c7e163          	bltu	a5,a2,200074aa <pio_sm_set_consecutive_pindirs+0x8c>
2000742c:	20b5a7b3          	sh1add	a5,a1,a1
20007430:	680d                	lui	a6,0x3
20007432:	20a7e8b3          	sh3add	a7,a5,a0
20007436:	0cc80813          	addi	a6,a6,204 # 30cc <HeapSize+0x28cc>
2000743a:	0dc8ae83          	lw	t4,220(a7)
2000743e:	010887b3          	add	a5,a7,a6
20007442:	0cc8ae03          	lw	t3,204(a7)
20007446:	00020537          	lui	a0,0x20
2000744a:	6839                	lui	a6,0xe
2000744c:	c388                	sw	a0,0(a5)
2000744e:	09f80813          	addi	a6,a6,159 # e09f <HeapSize+0xd89f>
20007452:	cb21                	beqz	a4,200074a2 <pio_sm_set_consecutive_pindirs+0x84>
20007454:	20b5a733          	sh1add	a4,a1,a1
20007458:	4895                	li	a7,5
2000745a:	20676733          	sh3add	a4,a4,t1
2000745e:	02d8f163          	bgeu	a7,a3,20007480 <pio_sm_set_consecutive_pindirs+0x62>
20007462:	00561793          	slli	a5,a2,0x5
20007466:	29a79793          	bseti	a5,a5,0x1a
2000746a:	29c79793          	bseti	a5,a5,0x1c
2000746e:	0cf72e23          	sw	a5,220(a4)
20007472:	0615                	addi	a2,a2,5
20007474:	16ed                	addi	a3,a3,-5
20007476:	0d072c23          	sw	a6,216(a4)
2000747a:	8a7d                	andi	a2,a2,31
2000747c:	fed8e3e3          	bltu	a7,a3,20007462 <pio_sm_set_consecutive_pindirs+0x44>
20007480:	0616                	slli	a2,a2,0x5
20007482:	20b5a5b3          	sh1add	a1,a1,a1
20007486:	06ea                	slli	a3,a3,0x1a
20007488:	2065e533          	sh3add	a0,a1,t1
2000748c:	8ed1                	or	a3,a3,a2
2000748e:	0cd52e23          	sw	a3,220(a0) # 200dc <HeapSize+0x1f8dc>
20007492:	0d052c23          	sw	a6,216(a0)
20007496:	0dd52e23          	sw	t4,220(a0)
2000749a:	0dc52623          	sw	t3,204(a0)
2000749e:	4501                	li	a0,0
200074a0:	8082                	ret
200074a2:	6839                	lui	a6,0xe
200074a4:	08080813          	addi	a6,a6,128 # e080 <HeapSize+0xd880>
200074a8:	b775                	j	20007454 <pio_sm_set_consecutive_pindirs+0x36>
200074aa:	556d                	li	a0,-5
200074ac:	8082                	ret

200074ae <pio_sm_init>:
200074ae:	411c                	lw	a5,0(a0)
200074b0:	48b797b3          	bclr	a5,a5,a1
200074b4:	c11c                	sw	a5,0(a0)
200074b6:	c2fd                	beqz	a3,2000759c <pio_sm_init+0xee>
200074b8:	0106a803          	lw	a6,16(a3)
200074bc:	4298                	lw	a4,0(a3)
200074be:	0086ae83          	lw	t4,8(a3)
200074c2:	20b5a7b3          	sh1add	a5,a1,a1
200074c6:	20a7e7b3          	sh3add	a5,a5,a0
200074ca:	fff84313          	not	t1,a6
200074ce:	0ce7a423          	sw	a4,200(a5)
200074d2:	00108e37          	lui	t3,0x108
200074d6:	00435713          	srli	a4,t1,0x4
200074da:	00135893          	srli	a7,t1,0x1
200074de:	0dd7a823          	sw	t4,208(a5)
200074e2:	421e0e13          	addi	t3,t3,1057 # 108421 <HeapSize+0x107c21>
200074e6:	0068f8b3          	and	a7,a7,t1
200074ea:	01c77733          	and	a4,a4,t3
200074ee:	16852303          	lw	t1,360(a0)
200074f2:	00e8f8b3          	and	a7,a7,a4
200074f6:	00159793          	slli	a5,a1,0x1
200074fa:	00088463          	beqz	a7,20007502 <pio_sm_init+0x54>
200074fe:	0c031463          	bnez	t1,200075c6 <pio_sm_init+0x118>
20007502:	00185813          	srli	a6,a6,0x1
20007506:	00e87833          	and	a6,a6,a4
2000750a:	00080463          	beqz	a6,20007512 <pio_sm_init+0x64>
2000750e:	0a030c63          	beqz	t1,200075c6 <pio_sm_init+0x118>
20007512:	0046ae03          	lw	t3,4(a3)
20007516:	46d4                	lw	a3,12(a3)
20007518:	06030b63          	beqz	t1,2000758e <pio_sm_init+0xe0>
2000751c:	01475893          	srli	a7,a4,0x14
20007520:	08f2                	slli	a7,a7,0x1c
20007522:	0732                	slli	a4,a4,0xc
20007524:	00b78833          	add	a6,a5,a1
20007528:	01c8c8b3          	xor	a7,a7,t3
2000752c:	8321                	srli	a4,a4,0x8
2000752e:	20a86833          	sh3add	a6,a6,a0
20007532:	8eb9                	xor	a3,a3,a4
20007534:	0d182623          	sw	a7,204(a6)
20007538:	00b78733          	add	a4,a5,a1
2000753c:	20a76733          	sh3add	a4,a4,a0
20007540:	0cd72e23          	sw	a3,220(a4)
20007544:	97ae                	add	a5,a5,a1
20007546:	078e                	slli	a5,a5,0x3
20007548:	0d078713          	addi	a4,a5,208
2000754c:	972a                	add	a4,a4,a0
2000754e:	6685                	lui	a3,0x1
20007550:	9736                	add	a4,a4,a3
20007552:	80000837          	lui	a6,0x80000
20007556:	010106b7          	lui	a3,0x1010
2000755a:	01072023          	sw	a6,0(a4)
2000755e:	10168693          	addi	a3,a3,257 # 1010101 <HeapSize+0x100f901>
20007562:	01072023          	sw	a6,0(a4)
20007566:	00b69733          	sll	a4,a3,a1
2000756a:	c518                	sw	a4,8(a0)
2000756c:	00458693          	addi	a3,a1,4
20007570:	6709                	lui	a4,0x2
20007572:	972a                	add	a4,a4,a0
20007574:	28d016b3          	bset	a3,zero,a3
20007578:	05a1                	addi	a1,a1,8
2000757a:	c314                	sw	a3,0(a4)
2000757c:	28b015b3          	bset	a1,zero,a1
20007580:	953e                	add	a0,a0,a5
20007582:	8a7d                	andi	a2,a2,31
20007584:	c30c                	sw	a1,0(a4)
20007586:	0cc52c23          	sw	a2,216(a0)
2000758a:	4501                	li	a0,0
2000758c:	8082                	ret
2000758e:	00b78733          	add	a4,a5,a1
20007592:	20a76733          	sh3add	a4,a4,a0
20007596:	0dc72623          	sw	t3,204(a4) # 20cc <HeapSize+0x18cc>
2000759a:	bf79                	j	20007538 <pio_sm_init+0x8a>
2000759c:	20b5a7b3          	sh1add	a5,a1,a1
200075a0:	20a7e7b3          	sh3add	a5,a5,a0
200075a4:	6741                	lui	a4,0x10
200075a6:	0ce7a423          	sw	a4,200(a5)
200075aa:	000c0737          	lui	a4,0xc0
200075ae:	0ce7a823          	sw	a4,208(a5)
200075b2:	677d                	lui	a4,0x1f
200075b4:	16852683          	lw	a3,360(a0)
200075b8:	0ce7a623          	sw	a4,204(a5)
200075bc:	0c07ae23          	sw	zero,220(a5)
200075c0:	00159793          	slli	a5,a1,0x1
200075c4:	b741                	j	20007544 <pio_sm_init+0x96>
200075c6:	5555                	li	a0,-11
200075c8:	8082                	ret

200075ca <dma_claim_unused_channel>:
200075ca:	85aa                	mv	a1,a0
200075cc:	2000b737          	lui	a4,0x2000b
200075d0:	1bc70713          	addi	a4,a4,444 # 2000b1bc <strcmp+0x538>
200075d4:	85a18513          	addi	a0,gp,-1958 # 2000c7e6 <_claimed>
200075d8:	46bd                	li	a3,15
200075da:	4601                	li	a2,0
200075dc:	8d5fc06f          	j	20003eb0 <hw_claim_unused_from_range>

200075e0 <sqrtf>:
200075e0:	1141                	addi	sp,sp,-16
200075e2:	c422                	sw	s0,8(sp)
200075e4:	c226                	sw	s1,4(sp)
200075e6:	c606                	sw	ra,12(sp)
200075e8:	84aa                	mv	s1,a0
200075ea:	2075                	jal	20007696 <__ieee754_sqrtf>
200075ec:	842a                	mv	s0,a0
200075ee:	85a6                	mv	a1,s1
200075f0:	8526                	mv	a0,s1
200075f2:	27a030ef          	jal	2000a86c <__unordsf2>
200075f6:	e901                	bnez	a0,20007606 <sqrtf+0x26>
200075f8:	8526                	mv	a0,s1
200075fa:	00000593          	li	a1,0
200075fe:	1f2030ef          	jal	2000a7f0 <__lesf2>
20007602:	00054863          	bltz	a0,20007612 <sqrtf+0x32>
20007606:	40b2                	lw	ra,12(sp)
20007608:	8522                	mv	a0,s0
2000760a:	4422                	lw	s0,8(sp)
2000760c:	4492                	lw	s1,4(sp)
2000760e:	0141                	addi	sp,sp,16
20007610:	8082                	ret
20007612:	604030ef          	jal	2000ac16 <__errno>
20007616:	02100793          	li	a5,33
2000761a:	00000593          	li	a1,0
2000761e:	c11c                	sw	a5,0(a0)
20007620:	852e                	mv	a0,a1
20007622:	6f9020ef          	jal	2000a51a <__divsf3>
20007626:	842a                	mv	s0,a0
20007628:	40b2                	lw	ra,12(sp)
2000762a:	8522                	mv	a0,s0
2000762c:	4422                	lw	s0,8(sp)
2000762e:	4492                	lw	s1,4(sp)
20007630:	0141                	addi	sp,sp,16
20007632:	8082                	ret

20007634 <sinf>:
20007634:	3f4917b7          	lui	a5,0x3f491
20007638:	49f51713          	bclri	a4,a0,0x1f
2000763c:	fd878793          	addi	a5,a5,-40 # 3f490fd8 <__StackTop+0x1f40efd8>
20007640:	02e7fd63          	bgeu	a5,a4,2000767a <sinf+0x46>
20007644:	1101                	addi	sp,sp,-32
20007646:	ce06                	sw	ra,28(sp)
20007648:	7f8007b7          	lui	a5,0x7f800
2000764c:	00f76863          	bltu	a4,a5,2000765c <sinf+0x28>
20007650:	85aa                	mv	a1,a0
20007652:	c1ffd0ef          	jal	20005270 <__subsf3>
20007656:	40f2                	lw	ra,28(sp)
20007658:	6105                	addi	sp,sp,32
2000765a:	8082                	ret
2000765c:	002c                	addi	a1,sp,8
2000765e:	2949                	jal	20007af0 <__ieee754_rem_pio2f>
20007660:	00357793          	andi	a5,a0,3
20007664:	4605                	li	a2,1
20007666:	4522                	lw	a0,8(sp)
20007668:	45b2                	lw	a1,12(sp)
2000766a:	02c78063          	beq	a5,a2,2000768a <sinf+0x56>
2000766e:	4709                	li	a4,2
20007670:	00e78963          	beq	a5,a4,20007682 <sinf+0x4e>
20007674:	ef89                	bnez	a5,2000768e <sinf+0x5a>
20007676:	2ea1                	jal	200079ce <__kernel_sinf>
20007678:	bff9                	j	20007656 <sinf+0x22>
2000767a:	4601                	li	a2,0
2000767c:	00000593          	li	a1,0
20007680:	a6b9                	j	200079ce <__kernel_sinf>
20007682:	26b1                	jal	200079ce <__kernel_sinf>
20007684:	69f51513          	binvi	a0,a0,0x1f
20007688:	b7f9                	j	20007656 <sinf+0x22>
2000768a:	2a3d                	jal	200077c8 <__kernel_cosf>
2000768c:	b7e9                	j	20007656 <sinf+0x22>
2000768e:	2a2d                	jal	200077c8 <__kernel_cosf>
20007690:	69f51513          	binvi	a0,a0,0x1f
20007694:	b7c9                	j	20007656 <sinf+0x22>

20007696 <__ieee754_sqrtf>:
20007696:	1101                	addi	sp,sp,-32
20007698:	ce06                	sw	ra,28(sp)
2000769a:	49f51793          	bclri	a5,a0,0x1f
2000769e:	7f800737          	lui	a4,0x7f800
200076a2:	85aa                	mv	a1,a0
200076a4:	0ce7fb63          	bgeu	a5,a4,2000777a <__ieee754_sqrtf+0xe4>
200076a8:	872a                	mv	a4,a0
200076aa:	c7e1                	beqz	a5,20007772 <__ieee754_sqrtf+0xdc>
200076ac:	87aa                	mv	a5,a0
200076ae:	0e054c63          	bltz	a0,200077a6 <__ieee754_sqrtf+0x110>
200076b2:	01755713          	srli	a4,a0,0x17
200076b6:	0ff77713          	zext.b	a4,a4
200076ba:	cb79                	beqz	a4,20007790 <__ieee754_sqrtf+0xfa>
200076bc:	41755713          	srai	a4,a0,0x17
200076c0:	00979613          	slli	a2,a5,0x9
200076c4:	f8170713          	addi	a4,a4,-127 # 7f7fff81 <__StackTop+0x5f77df81>
200076c8:	8225                	srli	a2,a2,0x9
200076ca:	00177793          	andi	a5,a4,1
200076ce:	29761613          	bseti	a2,a2,0x17
200076d2:	c391                	beqz	a5,200076d6 <__ieee754_sqrtf+0x40>
200076d4:	0606                	slli	a2,a2,0x1
200076d6:	40175893          	srai	a7,a4,0x1
200076da:	0606                	slli	a2,a2,0x1
200076dc:	46e5                	li	a3,25
200076de:	4801                	li	a6,0
200076e0:	4581                	li	a1,0
200076e2:	01000737          	lui	a4,0x1000
200076e6:	87b2                	mv	a5,a2
200076e8:	00e58633          	add	a2,a1,a4
200076ec:	16fd                	addi	a3,a3,-1
200076ee:	00c7c663          	blt	a5,a2,200076fa <__ieee754_sqrtf+0x64>
200076f2:	8f91                	sub	a5,a5,a2
200076f4:	00e605b3          	add	a1,a2,a4
200076f8:	983a                	add	a6,a6,a4
200076fa:	8305                	srli	a4,a4,0x1
200076fc:	00179613          	slli	a2,a5,0x1
20007700:	f2fd                	bnez	a3,200076e6 <__ieee754_sqrtf+0x50>
20007702:	c3a5                	beqz	a5,20007762 <__ieee754_sqrtf+0xcc>
20007704:	2000c7b7          	lui	a5,0x2000c
20007708:	2000c737          	lui	a4,0x2000c
2000770c:	fd07a503          	lw	a0,-48(a5) # 2000bfd0 <one>
20007710:	fcc72583          	lw	a1,-52(a4) # 2000bfcc <tiny>
20007714:	fd07a703          	lw	a4,-48(a5)
20007718:	c646                	sw	a7,12(sp)
2000771a:	c442                	sw	a6,8(sp)
2000771c:	cc22                	sw	s0,24(sp)
2000771e:	843a                	mv	s0,a4
20007720:	b51fd0ef          	jal	20005270 <__subsf3>
20007724:	85aa                	mv	a1,a0
20007726:	8522                	mv	a0,s0
20007728:	0c8030ef          	jal	2000a7f0 <__lesf2>
2000772c:	4822                	lw	a6,8(sp)
2000772e:	48b2                	lw	a7,12(sp)
20007730:	08a04563          	bgtz	a0,200077ba <__ieee754_sqrtf+0x124>
20007734:	2000c737          	lui	a4,0x2000c
20007738:	2000c7b7          	lui	a5,0x2000c
2000773c:	fd07a503          	lw	a0,-48(a5) # 2000bfd0 <one>
20007740:	fcc72583          	lw	a1,-52(a4) # 2000bfcc <tiny>
20007744:	fd07a783          	lw	a5,-48(a5)
20007748:	843e                	mv	s0,a5
2000774a:	b2bfd0ef          	jal	20005274 <__addsf3>
2000774e:	85aa                	mv	a1,a0
20007750:	8522                	mv	a0,s0
20007752:	09e030ef          	jal	2000a7f0 <__lesf2>
20007756:	4822                	lw	a6,8(sp)
20007758:	48b2                	lw	a7,12(sp)
2000775a:	06055263          	bgez	a0,200077be <__ieee754_sqrtf+0x128>
2000775e:	4462                	lw	s0,24(sp)
20007760:	0809                	addi	a6,a6,2 # 80000002 <__StackTop+0x5ff7e002>
20007762:	40185813          	srai	a6,a6,0x1
20007766:	3f0007b7          	lui	a5,0x3f000
2000776a:	01789713          	slli	a4,a7,0x17
2000776e:	983e                	add	a6,a6,a5
20007770:	9742                	add	a4,a4,a6
20007772:	40f2                	lw	ra,28(sp)
20007774:	853a                	mv	a0,a4
20007776:	6105                	addi	sp,sp,32
20007778:	8082                	ret
2000777a:	c42a                	sw	a0,8(sp)
2000777c:	c49fd0ef          	jal	200053c4 <__mulsf3>
20007780:	45a2                	lw	a1,8(sp)
20007782:	af3fd0ef          	jal	20005274 <__addsf3>
20007786:	40f2                	lw	ra,28(sp)
20007788:	872a                	mv	a4,a0
2000778a:	853a                	mv	a0,a4
2000778c:	6105                	addi	sp,sp,32
2000778e:	8082                	ret
20007790:	4681                	li	a3,0
20007792:	0786                	slli	a5,a5,0x1
20007794:	00879613          	slli	a2,a5,0x8
20007798:	8736                	mv	a4,a3
2000779a:	0685                	addi	a3,a3,1
2000779c:	fe065be3          	bgez	a2,20007792 <__ieee754_sqrtf+0xfc>
200077a0:	40e00733          	neg	a4,a4
200077a4:	bf31                	j	200076c0 <__ieee754_sqrtf+0x2a>
200077a6:	acbfd0ef          	jal	20005270 <__subsf3>
200077aa:	85aa                	mv	a1,a0
200077ac:	56f020ef          	jal	2000a51a <__divsf3>
200077b0:	40f2                	lw	ra,28(sp)
200077b2:	872a                	mv	a4,a0
200077b4:	853a                	mv	a0,a4
200077b6:	6105                	addi	sp,sp,32
200077b8:	8082                	ret
200077ba:	4462                	lw	s0,24(sp)
200077bc:	b75d                	j	20007762 <__ieee754_sqrtf+0xcc>
200077be:	0805                	addi	a6,a6,1
200077c0:	4462                	lw	s0,24(sp)
200077c2:	ffe87813          	andi	a6,a6,-2
200077c6:	bf71                	j	20007762 <__ieee754_sqrtf+0xcc>

200077c8 <__kernel_cosf>:
200077c8:	7179                	addi	sp,sp,-48
200077ca:	d226                	sw	s1,36(sp)
200077cc:	ce4e                	sw	s3,28(sp)
200077ce:	d606                	sw	ra,44(sp)
200077d0:	d422                	sw	s0,40(sp)
200077d2:	cc52                	sw	s4,24(sp)
200077d4:	49f51793          	bclri	a5,a0,0x1f
200077d8:	32000737          	lui	a4,0x32000
200077dc:	84aa                	mv	s1,a0
200077de:	89ae                	mv	s3,a1
200077e0:	0ce7f863          	bgeu	a5,a4,200078b0 <__kernel_cosf+0xe8>
200077e4:	0bc030ef          	jal	2000a8a0 <__fixsfsi>
200077e8:	1c050863          	beqz	a0,200079b8 <__kernel_cosf+0x1f0>
200077ec:	85a6                	mv	a1,s1
200077ee:	8526                	mv	a0,s1
200077f0:	d04a                	sw	s2,32(sp)
200077f2:	bd3fd0ef          	jal	200053c4 <__mulsf3>
200077f6:	2000c7b7          	lui	a5,0x2000c
200077fa:	ea07a583          	lw	a1,-352(a5) # 2000bea0 <__clz_tab+0x15c>
200077fe:	842a                	mv	s0,a0
20007800:	bc5fd0ef          	jal	200053c4 <__mulsf3>
20007804:	2000c7b7          	lui	a5,0x2000c
20007808:	ea47a583          	lw	a1,-348(a5) # 2000bea4 <__clz_tab+0x160>
2000780c:	a69fd0ef          	jal	20005274 <__addsf3>
20007810:	85a2                	mv	a1,s0
20007812:	bb3fd0ef          	jal	200053c4 <__mulsf3>
20007816:	2000c7b7          	lui	a5,0x2000c
2000781a:	ea87a583          	lw	a1,-344(a5) # 2000bea8 <__clz_tab+0x164>
2000781e:	a53fd0ef          	jal	20005270 <__subsf3>
20007822:	85a2                	mv	a1,s0
20007824:	ba1fd0ef          	jal	200053c4 <__mulsf3>
20007828:	2000c7b7          	lui	a5,0x2000c
2000782c:	eac7a583          	lw	a1,-340(a5) # 2000beac <__clz_tab+0x168>
20007830:	a45fd0ef          	jal	20005274 <__addsf3>
20007834:	85a2                	mv	a1,s0
20007836:	b8ffd0ef          	jal	200053c4 <__mulsf3>
2000783a:	2000c7b7          	lui	a5,0x2000c
2000783e:	eb07a583          	lw	a1,-336(a5) # 2000beb0 <__clz_tab+0x16c>
20007842:	a2ffd0ef          	jal	20005270 <__subsf3>
20007846:	85a2                	mv	a1,s0
20007848:	b7dfd0ef          	jal	200053c4 <__mulsf3>
2000784c:	2000c7b7          	lui	a5,0x2000c
20007850:	eb47a583          	lw	a1,-332(a5) # 2000beb4 <__clz_tab+0x170>
20007854:	a21fd0ef          	jal	20005274 <__addsf3>
20007858:	85a2                	mv	a1,s0
2000785a:	b6bfd0ef          	jal	200053c4 <__mulsf3>
2000785e:	8a2a                	mv	s4,a0
20007860:	2000c7b7          	lui	a5,0x2000c
20007864:	e8c7a583          	lw	a1,-372(a5) # 2000be8c <__clz_tab+0x148>
20007868:	8522                	mv	a0,s0
2000786a:	b5bfd0ef          	jal	200053c4 <__mulsf3>
2000786e:	892a                	mv	s2,a0
20007870:	85d2                	mv	a1,s4
20007872:	8522                	mv	a0,s0
20007874:	b51fd0ef          	jal	200053c4 <__mulsf3>
20007878:	842a                	mv	s0,a0
2000787a:	85ce                	mv	a1,s3
2000787c:	8526                	mv	a0,s1
2000787e:	b47fd0ef          	jal	200053c4 <__mulsf3>
20007882:	85aa                	mv	a1,a0
20007884:	8522                	mv	a0,s0
20007886:	9ebfd0ef          	jal	20005270 <__subsf3>
2000788a:	85aa                	mv	a1,a0
2000788c:	854a                	mv	a0,s2
2000788e:	9e3fd0ef          	jal	20005270 <__subsf3>
20007892:	2000c7b7          	lui	a5,0x2000c
20007896:	85aa                	mv	a1,a0
20007898:	e487a503          	lw	a0,-440(a5) # 2000be48 <__clz_tab+0x104>
2000789c:	9d5fd0ef          	jal	20005270 <__subsf3>
200078a0:	50b2                	lw	ra,44(sp)
200078a2:	5422                	lw	s0,40(sp)
200078a4:	5902                	lw	s2,32(sp)
200078a6:	5492                	lw	s1,36(sp)
200078a8:	49f2                	lw	s3,28(sp)
200078aa:	4a62                	lw	s4,24(sp)
200078ac:	6145                	addi	sp,sp,48
200078ae:	8082                	ret
200078b0:	85aa                	mv	a1,a0
200078b2:	c63e                	sw	a5,12(sp)
200078b4:	d04a                	sw	s2,32(sp)
200078b6:	b0ffd0ef          	jal	200053c4 <__mulsf3>
200078ba:	2000c737          	lui	a4,0x2000c
200078be:	ea072583          	lw	a1,-352(a4) # 2000bea0 <__clz_tab+0x15c>
200078c2:	842a                	mv	s0,a0
200078c4:	b01fd0ef          	jal	200053c4 <__mulsf3>
200078c8:	2000c737          	lui	a4,0x2000c
200078cc:	ea472583          	lw	a1,-348(a4) # 2000bea4 <__clz_tab+0x160>
200078d0:	9a5fd0ef          	jal	20005274 <__addsf3>
200078d4:	85a2                	mv	a1,s0
200078d6:	aeffd0ef          	jal	200053c4 <__mulsf3>
200078da:	2000c737          	lui	a4,0x2000c
200078de:	ea872583          	lw	a1,-344(a4) # 2000bea8 <__clz_tab+0x164>
200078e2:	98ffd0ef          	jal	20005270 <__subsf3>
200078e6:	85a2                	mv	a1,s0
200078e8:	addfd0ef          	jal	200053c4 <__mulsf3>
200078ec:	2000c737          	lui	a4,0x2000c
200078f0:	eac72583          	lw	a1,-340(a4) # 2000beac <__clz_tab+0x168>
200078f4:	981fd0ef          	jal	20005274 <__addsf3>
200078f8:	85a2                	mv	a1,s0
200078fa:	acbfd0ef          	jal	200053c4 <__mulsf3>
200078fe:	2000c737          	lui	a4,0x2000c
20007902:	eb072583          	lw	a1,-336(a4) # 2000beb0 <__clz_tab+0x16c>
20007906:	96bfd0ef          	jal	20005270 <__subsf3>
2000790a:	85a2                	mv	a1,s0
2000790c:	ab9fd0ef          	jal	200053c4 <__mulsf3>
20007910:	2000c737          	lui	a4,0x2000c
20007914:	eb472583          	lw	a1,-332(a4) # 2000beb4 <__clz_tab+0x170>
20007918:	95dfd0ef          	jal	20005274 <__addsf3>
2000791c:	85a2                	mv	a1,s0
2000791e:	aa7fd0ef          	jal	200053c4 <__mulsf3>
20007922:	47b2                	lw	a5,12(sp)
20007924:	3e99a737          	lui	a4,0x3e99a
20007928:	99970713          	addi	a4,a4,-1639 # 3e999999 <__StackTop+0x1e917999>
2000792c:	8a2a                	mv	s4,a0
2000792e:	f2f779e3          	bgeu	a4,a5,20007860 <__kernel_cosf+0x98>
20007932:	ca56                	sw	s5,20(sp)
20007934:	3f480737          	lui	a4,0x3f480
20007938:	06f76763          	bltu	a4,a5,200079a6 <__kernel_cosf+0x1de>
2000793c:	2000c6b7          	lui	a3,0x2000c
20007940:	ff000737          	lui	a4,0xff000
20007944:	e486a503          	lw	a0,-440(a3) # 2000be48 <__clz_tab+0x104>
20007948:	97ba                	add	a5,a5,a4
2000794a:	85be                	mv	a1,a5
2000794c:	893e                	mv	s2,a5
2000794e:	923fd0ef          	jal	20005270 <__subsf3>
20007952:	8aaa                	mv	s5,a0
20007954:	2000c7b7          	lui	a5,0x2000c
20007958:	e8c7a583          	lw	a1,-372(a5) # 2000be8c <__clz_tab+0x148>
2000795c:	8522                	mv	a0,s0
2000795e:	a67fd0ef          	jal	200053c4 <__mulsf3>
20007962:	85ca                	mv	a1,s2
20007964:	90dfd0ef          	jal	20005270 <__subsf3>
20007968:	892a                	mv	s2,a0
2000796a:	85d2                	mv	a1,s4
2000796c:	8522                	mv	a0,s0
2000796e:	a57fd0ef          	jal	200053c4 <__mulsf3>
20007972:	842a                	mv	s0,a0
20007974:	85ce                	mv	a1,s3
20007976:	8526                	mv	a0,s1
20007978:	a4dfd0ef          	jal	200053c4 <__mulsf3>
2000797c:	85aa                	mv	a1,a0
2000797e:	8522                	mv	a0,s0
20007980:	8f1fd0ef          	jal	20005270 <__subsf3>
20007984:	85aa                	mv	a1,a0
20007986:	854a                	mv	a0,s2
20007988:	8e9fd0ef          	jal	20005270 <__subsf3>
2000798c:	85aa                	mv	a1,a0
2000798e:	8556                	mv	a0,s5
20007990:	8e1fd0ef          	jal	20005270 <__subsf3>
20007994:	50b2                	lw	ra,44(sp)
20007996:	5422                	lw	s0,40(sp)
20007998:	5902                	lw	s2,32(sp)
2000799a:	4ad2                	lw	s5,20(sp)
2000799c:	5492                	lw	s1,36(sp)
2000799e:	49f2                	lw	s3,28(sp)
200079a0:	4a62                	lw	s4,24(sp)
200079a2:	6145                	addi	sp,sp,48
200079a4:	8082                	ret
200079a6:	2000c737          	lui	a4,0x2000c
200079aa:	2000c7b7          	lui	a5,0x2000c
200079ae:	e9872a83          	lw	s5,-360(a4) # 2000be98 <__clz_tab+0x154>
200079b2:	e9c7a903          	lw	s2,-356(a5) # 2000be9c <__clz_tab+0x158>
200079b6:	bf79                	j	20007954 <__kernel_cosf+0x18c>
200079b8:	50b2                	lw	ra,44(sp)
200079ba:	5422                	lw	s0,40(sp)
200079bc:	2000c7b7          	lui	a5,0x2000c
200079c0:	e487a503          	lw	a0,-440(a5) # 2000be48 <__clz_tab+0x104>
200079c4:	5492                	lw	s1,36(sp)
200079c6:	49f2                	lw	s3,28(sp)
200079c8:	4a62                	lw	s4,24(sp)
200079ca:	6145                	addi	sp,sp,48
200079cc:	8082                	ret

200079ce <__kernel_sinf>:
200079ce:	7179                	addi	sp,sp,-48
200079d0:	d422                	sw	s0,40(sp)
200079d2:	ce4e                	sw	s3,28(sp)
200079d4:	cc52                	sw	s4,24(sp)
200079d6:	d606                	sw	ra,44(sp)
200079d8:	49f51713          	bclri	a4,a0,0x1f
200079dc:	320007b7          	lui	a5,0x32000
200079e0:	842a                	mv	s0,a0
200079e2:	8a2e                	mv	s4,a1
200079e4:	89b2                	mv	s3,a2
200079e6:	00f77763          	bgeu	a4,a5,200079f4 <__kernel_sinf+0x26>
200079ea:	6b7020ef          	jal	2000a8a0 <__fixsfsi>
200079ee:	87aa                	mv	a5,a0
200079f0:	8522                	mv	a0,s0
200079f2:	cbc9                	beqz	a5,20007a84 <__kernel_sinf+0xb6>
200079f4:	85a2                	mv	a1,s0
200079f6:	8522                	mv	a0,s0
200079f8:	d226                	sw	s1,36(sp)
200079fa:	d04a                	sw	s2,32(sp)
200079fc:	9c9fd0ef          	jal	200053c4 <__mulsf3>
20007a00:	84aa                	mv	s1,a0
20007a02:	85aa                	mv	a1,a0
20007a04:	8522                	mv	a0,s0
20007a06:	9bffd0ef          	jal	200053c4 <__mulsf3>
20007a0a:	2000c7b7          	lui	a5,0x2000c
20007a0e:	eb87a583          	lw	a1,-328(a5) # 2000beb8 <__clz_tab+0x174>
20007a12:	892a                	mv	s2,a0
20007a14:	8526                	mv	a0,s1
20007a16:	9affd0ef          	jal	200053c4 <__mulsf3>
20007a1a:	2000c7b7          	lui	a5,0x2000c
20007a1e:	ebc7a583          	lw	a1,-324(a5) # 2000bebc <__clz_tab+0x178>
20007a22:	84ffd0ef          	jal	20005270 <__subsf3>
20007a26:	85a6                	mv	a1,s1
20007a28:	99dfd0ef          	jal	200053c4 <__mulsf3>
20007a2c:	2000c7b7          	lui	a5,0x2000c
20007a30:	ec07a583          	lw	a1,-320(a5) # 2000bec0 <__clz_tab+0x17c>
20007a34:	841fd0ef          	jal	20005274 <__addsf3>
20007a38:	85a6                	mv	a1,s1
20007a3a:	98bfd0ef          	jal	200053c4 <__mulsf3>
20007a3e:	2000c7b7          	lui	a5,0x2000c
20007a42:	ec47a583          	lw	a1,-316(a5) # 2000bec4 <__clz_tab+0x180>
20007a46:	82bfd0ef          	jal	20005270 <__subsf3>
20007a4a:	85a6                	mv	a1,s1
20007a4c:	979fd0ef          	jal	200053c4 <__mulsf3>
20007a50:	2000c7b7          	lui	a5,0x2000c
20007a54:	ec87a583          	lw	a1,-312(a5) # 2000bec8 <__clz_tab+0x184>
20007a58:	81dfd0ef          	jal	20005274 <__addsf3>
20007a5c:	02099a63          	bnez	s3,20007a90 <__kernel_sinf+0xc2>
20007a60:	85aa                	mv	a1,a0
20007a62:	8526                	mv	a0,s1
20007a64:	961fd0ef          	jal	200053c4 <__mulsf3>
20007a68:	2000c7b7          	lui	a5,0x2000c
20007a6c:	ecc7a583          	lw	a1,-308(a5) # 2000becc <__clz_tab+0x188>
20007a70:	801fd0ef          	jal	20005270 <__subsf3>
20007a74:	85ca                	mv	a1,s2
20007a76:	94ffd0ef          	jal	200053c4 <__mulsf3>
20007a7a:	85a2                	mv	a1,s0
20007a7c:	ff8fd0ef          	jal	20005274 <__addsf3>
20007a80:	5492                	lw	s1,36(sp)
20007a82:	5902                	lw	s2,32(sp)
20007a84:	50b2                	lw	ra,44(sp)
20007a86:	5422                	lw	s0,40(sp)
20007a88:	49f2                	lw	s3,28(sp)
20007a8a:	4a62                	lw	s4,24(sp)
20007a8c:	6145                	addi	sp,sp,48
20007a8e:	8082                	ret
20007a90:	2000c737          	lui	a4,0x2000c
20007a94:	e8c72583          	lw	a1,-372(a4) # 2000be8c <__clz_tab+0x148>
20007a98:	c62a                	sw	a0,12(sp)
20007a9a:	8552                	mv	a0,s4
20007a9c:	929fd0ef          	jal	200053c4 <__mulsf3>
20007aa0:	45b2                	lw	a1,12(sp)
20007aa2:	89d2                	mv	s3,s4
20007aa4:	8a2a                	mv	s4,a0
20007aa6:	854a                	mv	a0,s2
20007aa8:	91dfd0ef          	jal	200053c4 <__mulsf3>
20007aac:	85aa                	mv	a1,a0
20007aae:	8552                	mv	a0,s4
20007ab0:	fc0fd0ef          	jal	20005270 <__subsf3>
20007ab4:	85a6                	mv	a1,s1
20007ab6:	90ffd0ef          	jal	200053c4 <__mulsf3>
20007aba:	85ce                	mv	a1,s3
20007abc:	fb4fd0ef          	jal	20005270 <__subsf3>
20007ac0:	2000c7b7          	lui	a5,0x2000c
20007ac4:	ecc7a583          	lw	a1,-308(a5) # 2000becc <__clz_tab+0x188>
20007ac8:	84aa                	mv	s1,a0
20007aca:	854a                	mv	a0,s2
20007acc:	8f9fd0ef          	jal	200053c4 <__mulsf3>
20007ad0:	85aa                	mv	a1,a0
20007ad2:	8526                	mv	a0,s1
20007ad4:	fa0fd0ef          	jal	20005274 <__addsf3>
20007ad8:	85aa                	mv	a1,a0
20007ada:	8522                	mv	a0,s0
20007adc:	f94fd0ef          	jal	20005270 <__subsf3>
20007ae0:	50b2                	lw	ra,44(sp)
20007ae2:	5422                	lw	s0,40(sp)
20007ae4:	5492                	lw	s1,36(sp)
20007ae6:	5902                	lw	s2,32(sp)
20007ae8:	49f2                	lw	s3,28(sp)
20007aea:	4a62                	lw	s4,24(sp)
20007aec:	6145                	addi	sp,sp,48
20007aee:	8082                	ret

20007af0 <__ieee754_rem_pio2f>:
20007af0:	3f491737          	lui	a4,0x3f491
20007af4:	49f51793          	bclri	a5,a0,0x1f
20007af8:	fd870713          	addi	a4,a4,-40 # 3f490fd8 <__StackTop+0x1f40efd8>
20007afc:	12f77a63          	bgeu	a4,a5,20007c30 <__ieee754_rem_pio2f+0x140>
20007b00:	7139                	addi	sp,sp,-64
20007b02:	4016d737          	lui	a4,0x4016d
20007b06:	dc22                	sw	s0,56(sp)
20007b08:	de06                	sw	ra,60(sp)
20007b0a:	be370713          	addi	a4,a4,-1053 # 4016cbe3 <__StackTop+0x200eabe3>
20007b0e:	842e                	mv	s0,a1
20007b10:	06f76363          	bltu	a4,a5,20007b76 <__ieee754_rem_pio2f+0x86>
20007b14:	800007b7          	lui	a5,0x80000
20007b18:	17c1                	addi	a5,a5,-16 # 7ffffff0 <__StackTop+0x5ff7dff0>
20007b1a:	8fe9                	and	a5,a5,a0
20007b1c:	2000c737          	lui	a4,0x2000c
20007b20:	da26                	sw	s1,52(sp)
20007b22:	c23e                	sw	a5,4(sp)
20007b24:	ed072583          	lw	a1,-304(a4) # 2000bed0 <__clz_tab+0x18c>
20007b28:	32a05163          	blez	a0,20007e4a <__ieee754_rem_pio2f+0x35a>
20007b2c:	f44fd0ef          	jal	20005270 <__subsf3>
20007b30:	4792                	lw	a5,4(sp)
20007b32:	3fc91737          	lui	a4,0x3fc91
20007b36:	fd070713          	addi	a4,a4,-48 # 3fc90fd0 <__StackTop+0x1fc0efd0>
20007b3a:	84aa                	mv	s1,a0
20007b3c:	10e78863          	beq	a5,a4,20007c4c <__ieee754_rem_pio2f+0x15c>
20007b40:	2000c737          	lui	a4,0x2000c
20007b44:	ed472583          	lw	a1,-300(a4) # 2000bed4 <__clz_tab+0x190>
20007b48:	f28fd0ef          	jal	20005270 <__subsf3>
20007b4c:	85aa                	mv	a1,a0
20007b4e:	c22a                	sw	a0,4(sp)
20007b50:	8526                	mv	a0,s1
20007b52:	f1efd0ef          	jal	20005270 <__subsf3>
20007b56:	2000c737          	lui	a4,0x2000c
20007b5a:	ed472583          	lw	a1,-300(a4) # 2000bed4 <__clz_tab+0x190>
20007b5e:	f12fd0ef          	jal	20005270 <__subsf3>
20007b62:	4792                	lw	a5,4(sp)
20007b64:	54d2                	lw	s1,52(sp)
20007b66:	c01c                	sw	a5,0(s0)
20007b68:	c048                	sw	a0,4(s0)
20007b6a:	4705                	li	a4,1
20007b6c:	50f2                	lw	ra,60(sp)
20007b6e:	5462                	lw	s0,56(sp)
20007b70:	853a                	mv	a0,a4
20007b72:	6121                	addi	sp,sp,64
20007b74:	8082                	ret
20007b76:	43491737          	lui	a4,0x43491
20007b7a:	f8070713          	addi	a4,a4,-128 # 43490f80 <__StackTop+0x2340ef80>
20007b7e:	10f77163          	bgeu	a4,a5,20007c80 <__ieee754_rem_pio2f+0x190>
20007b82:	7f800737          	lui	a4,0x7f800
20007b86:	0ae7fc63          	bgeu	a5,a4,20007c3e <__ieee754_rem_pio2f+0x14e>
20007b8a:	4177d613          	srai	a2,a5,0x17
20007b8e:	f7a60613          	addi	a2,a2,-134
20007b92:	01761713          	slli	a4,a2,0x17
20007b96:	8f99                	sub	a5,a5,a4
20007b98:	c62a                	sw	a0,12(sp)
20007b9a:	853e                	mv	a0,a5
20007b9c:	c432                	sw	a2,8(sp)
20007b9e:	c23e                	sw	a5,4(sp)
20007ba0:	da26                	sw	s1,52(sp)
20007ba2:	4ff020ef          	jal	2000a8a0 <__fixsfsi>
20007ba6:	5a7020ef          	jal	2000a94c <__floatsisf>
20007baa:	85aa                	mv	a1,a0
20007bac:	ca2a                	sw	a0,20(sp)
20007bae:	4512                	lw	a0,4(sp)
20007bb0:	ec0fd0ef          	jal	20005270 <__subsf3>
20007bb4:	2000c737          	lui	a4,0x2000c
20007bb8:	e6472583          	lw	a1,-412(a4) # 2000be64 <__clz_tab+0x120>
20007bbc:	809fd0ef          	jal	200053c4 <__mulsf3>
20007bc0:	84aa                	mv	s1,a0
20007bc2:	4df020ef          	jal	2000a8a0 <__fixsfsi>
20007bc6:	587020ef          	jal	2000a94c <__floatsisf>
20007bca:	87aa                	mv	a5,a0
20007bcc:	85aa                	mv	a1,a0
20007bce:	8526                	mv	a0,s1
20007bd0:	cc3e                	sw	a5,24(sp)
20007bd2:	c23e                	sw	a5,4(sp)
20007bd4:	e9cfd0ef          	jal	20005270 <__subsf3>
20007bd8:	2000c737          	lui	a4,0x2000c
20007bdc:	e6472583          	lw	a1,-412(a4) # 2000be64 <__clz_tab+0x120>
20007be0:	fe4fd0ef          	jal	200053c4 <__mulsf3>
20007be4:	00000593          	li	a1,0
20007be8:	ce2a                	sw	a0,28(sp)
20007bea:	337020ef          	jal	2000a720 <__eqsf2>
20007bee:	4622                	lw	a2,8(sp)
20007bf0:	4832                	lw	a6,12(sp)
20007bf2:	468d                	li	a3,3
20007bf4:	e919                	bnez	a0,20007c0a <__ieee754_rem_pio2f+0x11a>
20007bf6:	4512                	lw	a0,4(sp)
20007bf8:	00000593          	li	a1,0
20007bfc:	325020ef          	jal	2000a720 <__eqsf2>
20007c00:	4622                	lw	a2,8(sp)
20007c02:	4832                	lw	a6,12(sp)
20007c04:	00a036b3          	snez	a3,a0
20007c08:	0685                	addi	a3,a3,1
20007c0a:	2000c7b7          	lui	a5,0x2000c
20007c0e:	4709                	li	a4,2
20007c10:	97c78793          	addi	a5,a5,-1668 # 2000b97c <two_over_pi>
20007c14:	85a2                	mv	a1,s0
20007c16:	0848                	addi	a0,sp,20
20007c18:	c242                	sw	a6,4(sp)
20007c1a:	2475                	jal	20007ec6 <__kernel_rem_pio2f>
20007c1c:	4812                	lw	a6,4(sp)
20007c1e:	872a                	mv	a4,a0
20007c20:	1a084c63          	bltz	a6,20007dd8 <__ieee754_rem_pio2f+0x2e8>
20007c24:	50f2                	lw	ra,60(sp)
20007c26:	5462                	lw	s0,56(sp)
20007c28:	54d2                	lw	s1,52(sp)
20007c2a:	853a                	mv	a0,a4
20007c2c:	6121                	addi	sp,sp,64
20007c2e:	8082                	ret
20007c30:	00000793          	li	a5,0
20007c34:	4701                	li	a4,0
20007c36:	c188                	sw	a0,0(a1)
20007c38:	c1dc                	sw	a5,4(a1)
20007c3a:	853a                	mv	a0,a4
20007c3c:	8082                	ret
20007c3e:	85aa                	mv	a1,a0
20007c40:	e30fd0ef          	jal	20005270 <__subsf3>
20007c44:	c048                	sw	a0,4(s0)
20007c46:	c008                	sw	a0,0(s0)
20007c48:	4701                	li	a4,0
20007c4a:	b70d                	j	20007b6c <__ieee754_rem_pio2f+0x7c>
20007c4c:	2000c7b7          	lui	a5,0x2000c
20007c50:	ed87a583          	lw	a1,-296(a5) # 2000bed8 <__clz_tab+0x194>
20007c54:	e1cfd0ef          	jal	20005270 <__subsf3>
20007c58:	2000c737          	lui	a4,0x2000c
20007c5c:	edc72583          	lw	a1,-292(a4) # 2000bedc <__clz_tab+0x198>
20007c60:	84aa                	mv	s1,a0
20007c62:	e0efd0ef          	jal	20005270 <__subsf3>
20007c66:	85aa                	mv	a1,a0
20007c68:	c22a                	sw	a0,4(sp)
20007c6a:	8526                	mv	a0,s1
20007c6c:	e04fd0ef          	jal	20005270 <__subsf3>
20007c70:	2000c737          	lui	a4,0x2000c
20007c74:	edc72583          	lw	a1,-292(a4) # 2000bedc <__clz_tab+0x198>
20007c78:	df8fd0ef          	jal	20005270 <__subsf3>
20007c7c:	4792                	lw	a5,4(sp)
20007c7e:	b5dd                	j	20007b64 <__ieee754_rem_pio2f+0x74>
20007c80:	c43e                	sw	a5,8(sp)
20007c82:	da26                	sw	s1,52(sp)
20007c84:	d84a                	sw	s2,48(sp)
20007c86:	d452                	sw	s4,40(sp)
20007c88:	c62a                	sw	a0,12(sp)
20007c8a:	2c1d                	jal	20007ec0 <fabsf>
20007c8c:	2000c737          	lui	a4,0x2000c
20007c90:	ee072583          	lw	a1,-288(a4) # 2000bee0 <__clz_tab+0x19c>
20007c94:	892a                	mv	s2,a0
20007c96:	f2efd0ef          	jal	200053c4 <__mulsf3>
20007c9a:	2000c737          	lui	a4,0x2000c
20007c9e:	e8c72583          	lw	a1,-372(a4) # 2000be8c <__clz_tab+0x148>
20007ca2:	dd2fd0ef          	jal	20005274 <__addsf3>
20007ca6:	3fb020ef          	jal	2000a8a0 <__fixsfsi>
20007caa:	c22a                	sw	a0,4(sp)
20007cac:	4a1020ef          	jal	2000a94c <__floatsisf>
20007cb0:	2000c6b7          	lui	a3,0x2000c
20007cb4:	ed06a583          	lw	a1,-304(a3) # 2000bed0 <__clz_tab+0x18c>
20007cb8:	84aa                	mv	s1,a0
20007cba:	8a2a                	mv	s4,a0
20007cbc:	f08fd0ef          	jal	200053c4 <__mulsf3>
20007cc0:	85aa                	mv	a1,a0
20007cc2:	854a                	mv	a0,s2
20007cc4:	dacfd0ef          	jal	20005270 <__subsf3>
20007cc8:	2000c637          	lui	a2,0x2000c
20007ccc:	ed462583          	lw	a1,-300(a2) # 2000bed4 <__clz_tab+0x190>
20007cd0:	86aa                	mv	a3,a0
20007cd2:	8526                	mv	a0,s1
20007cd4:	84b6                	mv	s1,a3
20007cd6:	eeefd0ef          	jal	200053c4 <__mulsf3>
20007cda:	85aa                	mv	a1,a0
20007cdc:	892a                	mv	s2,a0
20007cde:	8526                	mv	a0,s1
20007ce0:	d90fd0ef          	jal	20005270 <__subsf3>
20007ce4:	4712                	lw	a4,4(sp)
20007ce6:	467d                	li	a2,31
20007ce8:	47a2                	lw	a5,8(sp)
20007cea:	4832                	lw	a6,12(sp)
20007cec:	86aa                	mv	a3,a0
20007cee:	02e64463          	blt	a2,a4,20007d16 <__ieee754_rem_pio2f+0x226>
20007cf2:	2000c637          	lui	a2,0x2000c
20007cf6:	8fc60613          	addi	a2,a2,-1796 # 2000b8fc <npio2_hw>
20007cfa:	20c74633          	sh2add	a2,a4,a2
20007cfe:	ffc62583          	lw	a1,-4(a2)
20007d02:	80000637          	lui	a2,0x80000
20007d06:	f0060613          	addi	a2,a2,-256 # 7fffff00 <__StackTop+0x5ff7df00>
20007d0a:	01067633          	and	a2,a2,a6
20007d0e:	00b60463          	beq	a2,a1,20007d16 <__ieee754_rem_pio2f+0x226>
20007d12:	c014                	sw	a3,0(s0)
20007d14:	a051                	j	20007d98 <__ieee754_rem_pio2f+0x2a8>
20007d16:	0176d613          	srli	a2,a3,0x17
20007d1a:	87dd                	srai	a5,a5,0x17
20007d1c:	0ff67613          	zext.b	a2,a2
20007d20:	40c78633          	sub	a2,a5,a2
20007d24:	45a1                	li	a1,8
20007d26:	fec5d6e3          	bge	a1,a2,20007d12 <__ieee754_rem_pio2f+0x222>
20007d2a:	2000c6b7          	lui	a3,0x2000c
20007d2e:	ed86a583          	lw	a1,-296(a3) # 2000bed8 <__clz_tab+0x194>
20007d32:	8552                	mv	a0,s4
20007d34:	c642                	sw	a6,12(sp)
20007d36:	c43a                	sw	a4,8(sp)
20007d38:	c23e                	sw	a5,4(sp)
20007d3a:	d64e                	sw	s3,44(sp)
20007d3c:	e88fd0ef          	jal	200053c4 <__mulsf3>
20007d40:	85aa                	mv	a1,a0
20007d42:	89aa                	mv	s3,a0
20007d44:	8526                	mv	a0,s1
20007d46:	d2afd0ef          	jal	20005270 <__subsf3>
20007d4a:	8926                	mv	s2,s1
20007d4c:	84aa                	mv	s1,a0
20007d4e:	85a6                	mv	a1,s1
20007d50:	854a                	mv	a0,s2
20007d52:	d1efd0ef          	jal	20005270 <__subsf3>
20007d56:	85ce                	mv	a1,s3
20007d58:	d18fd0ef          	jal	20005270 <__subsf3>
20007d5c:	2000c6b7          	lui	a3,0x2000c
20007d60:	edc6a583          	lw	a1,-292(a3) # 2000bedc <__clz_tab+0x198>
20007d64:	892a                	mv	s2,a0
20007d66:	8552                	mv	a0,s4
20007d68:	e5cfd0ef          	jal	200053c4 <__mulsf3>
20007d6c:	85ca                	mv	a1,s2
20007d6e:	d02fd0ef          	jal	20005270 <__subsf3>
20007d72:	85aa                	mv	a1,a0
20007d74:	892a                	mv	s2,a0
20007d76:	8526                	mv	a0,s1
20007d78:	cf8fd0ef          	jal	20005270 <__subsf3>
20007d7c:	4792                	lw	a5,4(sp)
20007d7e:	01755613          	srli	a2,a0,0x17
20007d82:	0ff67613          	zext.b	a2,a2
20007d86:	8f91                	sub	a5,a5,a2
20007d88:	4665                	li	a2,25
20007d8a:	4722                	lw	a4,8(sp)
20007d8c:	4832                	lw	a6,12(sp)
20007d8e:	86aa                	mv	a3,a0
20007d90:	06f64063          	blt	a2,a5,20007df0 <__ieee754_rem_pio2f+0x300>
20007d94:	59b2                	lw	s3,44(sp)
20007d96:	c008                	sw	a0,0(s0)
20007d98:	85b6                	mv	a1,a3
20007d9a:	8526                	mv	a0,s1
20007d9c:	c442                	sw	a6,8(sp)
20007d9e:	c23a                	sw	a4,4(sp)
20007da0:	c636                	sw	a3,12(sp)
20007da2:	ccefd0ef          	jal	20005270 <__subsf3>
20007da6:	85ca                	mv	a1,s2
20007da8:	cc8fd0ef          	jal	20005270 <__subsf3>
20007dac:	4822                	lw	a6,8(sp)
20007dae:	c048                	sw	a0,4(s0)
20007db0:	4712                	lw	a4,4(sp)
20007db2:	00084663          	bltz	a6,20007dbe <__ieee754_rem_pio2f+0x2ce>
20007db6:	54d2                	lw	s1,52(sp)
20007db8:	5942                	lw	s2,48(sp)
20007dba:	5a22                	lw	s4,40(sp)
20007dbc:	bb45                	j	20007b6c <__ieee754_rem_pio2f+0x7c>
20007dbe:	46b2                	lw	a3,12(sp)
20007dc0:	69f51513          	binvi	a0,a0,0x1f
20007dc4:	54d2                	lw	s1,52(sp)
20007dc6:	69f69693          	binvi	a3,a3,0x1f
20007dca:	5942                	lw	s2,48(sp)
20007dcc:	5a22                	lw	s4,40(sp)
20007dce:	c014                	sw	a3,0(s0)
20007dd0:	c048                	sw	a0,4(s0)
20007dd2:	40e00733          	neg	a4,a4
20007dd6:	bb59                	j	20007b6c <__ieee754_rem_pio2f+0x7c>
20007dd8:	4014                	lw	a3,0(s0)
20007dda:	405c                	lw	a5,4(s0)
20007ddc:	54d2                	lw	s1,52(sp)
20007dde:	69f69693          	binvi	a3,a3,0x1f
20007de2:	69f79793          	binvi	a5,a5,0x1f
20007de6:	40a00733          	neg	a4,a0
20007dea:	c014                	sw	a3,0(s0)
20007dec:	c05c                	sw	a5,4(s0)
20007dee:	bbbd                	j	20007b6c <__ieee754_rem_pio2f+0x7c>
20007df0:	2000c7b7          	lui	a5,0x2000c
20007df4:	ee47a583          	lw	a1,-284(a5) # 2000bee4 <__clz_tab+0x1a0>
20007df8:	8552                	mv	a0,s4
20007dfa:	c442                	sw	a6,8(sp)
20007dfc:	c23a                	sw	a4,4(sp)
20007dfe:	dc6fd0ef          	jal	200053c4 <__mulsf3>
20007e02:	89aa                	mv	s3,a0
20007e04:	85aa                	mv	a1,a0
20007e06:	8526                	mv	a0,s1
20007e08:	c68fd0ef          	jal	20005270 <__subsf3>
20007e0c:	8926                	mv	s2,s1
20007e0e:	84aa                	mv	s1,a0
20007e10:	85a6                	mv	a1,s1
20007e12:	854a                	mv	a0,s2
20007e14:	c5cfd0ef          	jal	20005270 <__subsf3>
20007e18:	85ce                	mv	a1,s3
20007e1a:	c56fd0ef          	jal	20005270 <__subsf3>
20007e1e:	2000c7b7          	lui	a5,0x2000c
20007e22:	ee87a583          	lw	a1,-280(a5) # 2000bee8 <__clz_tab+0x1a4>
20007e26:	892a                	mv	s2,a0
20007e28:	8552                	mv	a0,s4
20007e2a:	d9afd0ef          	jal	200053c4 <__mulsf3>
20007e2e:	85ca                	mv	a1,s2
20007e30:	c40fd0ef          	jal	20005270 <__subsf3>
20007e34:	85aa                	mv	a1,a0
20007e36:	892a                	mv	s2,a0
20007e38:	8526                	mv	a0,s1
20007e3a:	c36fd0ef          	jal	20005270 <__subsf3>
20007e3e:	4822                	lw	a6,8(sp)
20007e40:	4712                	lw	a4,4(sp)
20007e42:	59b2                	lw	s3,44(sp)
20007e44:	86aa                	mv	a3,a0
20007e46:	c008                	sw	a0,0(s0)
20007e48:	bf81                	j	20007d98 <__ieee754_rem_pio2f+0x2a8>
20007e4a:	c2afd0ef          	jal	20005274 <__addsf3>
20007e4e:	4792                	lw	a5,4(sp)
20007e50:	3fc91737          	lui	a4,0x3fc91
20007e54:	fd070713          	addi	a4,a4,-48 # 3fc90fd0 <__StackTop+0x1fc0efd0>
20007e58:	84aa                	mv	s1,a0
20007e5a:	02e78963          	beq	a5,a4,20007e8c <__ieee754_rem_pio2f+0x39c>
20007e5e:	2000c737          	lui	a4,0x2000c
20007e62:	ed472583          	lw	a1,-300(a4) # 2000bed4 <__clz_tab+0x190>
20007e66:	c0efd0ef          	jal	20005274 <__addsf3>
20007e6a:	85aa                	mv	a1,a0
20007e6c:	c22a                	sw	a0,4(sp)
20007e6e:	8526                	mv	a0,s1
20007e70:	c00fd0ef          	jal	20005270 <__subsf3>
20007e74:	2000c737          	lui	a4,0x2000c
20007e78:	ed472583          	lw	a1,-300(a4) # 2000bed4 <__clz_tab+0x190>
20007e7c:	bf8fd0ef          	jal	20005274 <__addsf3>
20007e80:	4792                	lw	a5,4(sp)
20007e82:	54d2                	lw	s1,52(sp)
20007e84:	c01c                	sw	a5,0(s0)
20007e86:	c048                	sw	a0,4(s0)
20007e88:	577d                	li	a4,-1
20007e8a:	b1cd                	j	20007b6c <__ieee754_rem_pio2f+0x7c>
20007e8c:	2000c7b7          	lui	a5,0x2000c
20007e90:	ed87a583          	lw	a1,-296(a5) # 2000bed8 <__clz_tab+0x194>
20007e94:	be0fd0ef          	jal	20005274 <__addsf3>
20007e98:	2000c737          	lui	a4,0x2000c
20007e9c:	edc72583          	lw	a1,-292(a4) # 2000bedc <__clz_tab+0x198>
20007ea0:	84aa                	mv	s1,a0
20007ea2:	bd2fd0ef          	jal	20005274 <__addsf3>
20007ea6:	85aa                	mv	a1,a0
20007ea8:	c22a                	sw	a0,4(sp)
20007eaa:	8526                	mv	a0,s1
20007eac:	bc4fd0ef          	jal	20005270 <__subsf3>
20007eb0:	2000c737          	lui	a4,0x2000c
20007eb4:	edc72583          	lw	a1,-292(a4) # 2000bedc <__clz_tab+0x198>
20007eb8:	bbcfd0ef          	jal	20005274 <__addsf3>
20007ebc:	4792                	lw	a5,4(sp)
20007ebe:	b7d1                	j	20007e82 <__ieee754_rem_pio2f+0x392>

20007ec0 <fabsf>:
20007ec0:	49f51513          	bclri	a0,a0,0x1f
20007ec4:	8082                	ret

20007ec6 <__kernel_rem_pio2f>:
20007ec6:	2000c837          	lui	a6,0x2000c
20007eca:	7121                	addi	sp,sp,-448
20007ecc:	cc080813          	addi	a6,a6,-832 # 2000bcc0 <init_jk>
20007ed0:	21074833          	sh2add	a6,a4,a6
20007ed4:	1b612023          	sw	s6,416(sp)
20007ed8:	19a12823          	sw	s10,400(sp)
20007edc:	19b12623          	sw	s11,396(sp)
20007ee0:	d83a                	sw	a4,48(sp)
20007ee2:	1a112e23          	sw	ra,444(sp)
20007ee6:	1a812c23          	sw	s0,440(sp)
20007eea:	1a912a23          	sw	s1,436(sp)
20007eee:	1b212823          	sw	s2,432(sp)
20007ef2:	1b312623          	sw	s3,428(sp)
20007ef6:	1b412423          	sw	s4,424(sp)
20007efa:	1b512223          	sw	s5,420(sp)
20007efe:	19712e23          	sw	s7,412(sp)
20007f02:	19812c23          	sw	s8,408(sp)
20007f06:	19912a23          	sw	s9,404(sp)
20007f0a:	de32                	sw	a2,60(sp)
20007f0c:	5771                	li	a4,-4
20007f0e:	d42e                	sw	a1,40(sp)
20007f10:	ca3e                	sw	a5,20(sp)
20007f12:	00082b03          	lw	s6,0(a6)
20007f16:	8daa                	mv	s11,a0
20007f18:	fff68d13          	addi	s10,a3,-1
20007f1c:	5ae64863          	blt	a2,a4,200084cc <__kernel_rem_pio2f+0x606>
20007f20:	ffd60713          	addi	a4,a2,-3
20007f24:	41f75793          	srai	a5,a4,0x1f
20007f28:	8b9d                	andi	a5,a5,7
20007f2a:	97ba                	add	a5,a5,a4
20007f2c:	878d                	srai	a5,a5,0x3
20007f2e:	ce3e                	sw	a5,28(sp)
20007f30:	0785                	addi	a5,a5,1
20007f32:	078e                	slli	a5,a5,0x3
20007f34:	da3e                	sw	a5,52(sp)
20007f36:	5772                	lw	a4,60(sp)
20007f38:	5652                	lw	a2,52(sp)
20007f3a:	01ab07b3          	add	a5,s6,s10
20007f3e:	40c70633          	sub	a2,a4,a2
20007f42:	0207ce63          	bltz	a5,20007f7e <__kernel_rem_pio2f+0xb8>
20007f46:	4772                	lw	a4,28(sp)
20007f48:	0785                	addi	a5,a5,1
20007f4a:	0904                	addi	s1,sp,144
20007f4c:	41a70433          	sub	s0,a4,s10
20007f50:	008789b3          	add	s3,a5,s0
20007f54:	47d2                	lw	a5,20(sp)
20007f56:	8a32                	mv	s4,a2
20007f58:	8ab6                	mv	s5,a3
20007f5a:	20f44933          	sh2add	s2,s0,a5
20007f5e:	00000513          	li	a0,0
20007f62:	00044663          	bltz	s0,20007f6e <__kernel_rem_pio2f+0xa8>
20007f66:	00092503          	lw	a0,0(s2)
20007f6a:	1e3020ef          	jal	2000a94c <__floatsisf>
20007f6e:	c088                	sw	a0,0(s1)
20007f70:	0405                	addi	s0,s0,1
20007f72:	0491                	addi	s1,s1,4
20007f74:	0911                	addi	s2,s2,4
20007f76:	ff3414e3          	bne	s0,s3,20007f5e <__kernel_rem_pio2f+0x98>
20007f7a:	8652                	mv	a2,s4
20007f7c:	86d6                	mv	a3,s5
20007f7e:	13010a93          	addi	s5,sp,304
20007f82:	00269993          	slli	s3,a3,0x2
20007f86:	020b4763          	bltz	s6,20007fb4 <__kernel_rem_pio2f+0xee>
20007f8a:	08c10b93          	addi	s7,sp,140
20007f8e:	8c56                	mv	s8,s5
20007f90:	2176cbb3          	sh2add	s7,a3,s7
20007f94:	00269993          	slli	s3,a3,0x2
20007f98:	8cea                	mv	s9,s10
20007f9a:	00db04b3          	add	s1,s6,a3
20007f9e:	460d5e63          	bgez	s10,2000841a <__kernel_rem_pio2f+0x554>
20007fa2:	00000793          	li	a5,0
20007fa6:	00fc2023          	sw	a5,0(s8)
20007faa:	0c85                	addi	s9,s9,1
20007fac:	0c11                	addi	s8,s8,4
20007fae:	0b91                	addi	s7,s7,4
20007fb0:	fe9c97e3          	bne	s9,s1,20007f9e <__kernel_rem_pio2f+0xd8>
20007fb4:	2000c7b7          	lui	a5,0x2000c
20007fb8:	e8c7a783          	lw	a5,-372(a5) # 2000be8c <__clz_tab+0x148>
20007fbc:	2000c837          	lui	a6,0x2000c
20007fc0:	2000c537          	lui	a0,0x2000c
20007fc4:	2000c5b7          	lui	a1,0x2000c
20007fc8:	2000c737          	lui	a4,0x2000c
20007fcc:	ef082403          	lw	s0,-272(a6) # 2000bef0 <__clz_tab+0x1ac>
20007fd0:	ef452503          	lw	a0,-268(a0) # 2000bef4 <__clz_tab+0x1b0>
20007fd4:	eec5a583          	lw	a1,-276(a1) # 2000beec <__clz_tab+0x1a8>
20007fd8:	e6472703          	lw	a4,-412(a4) # 2000be64 <__clz_tab+0x120>
20007fdc:	dc3e                	sw	a5,56(sp)
20007fde:	4a52                	lw	s4,20(sp)
20007fe0:	009c                	addi	a5,sp,64
20007fe2:	20fb4bb3          	sh2add	s7,s6,a5
20007fe6:	c85e                	sw	s7,16(sp)
20007fe8:	d022                	sw	s0,32(sp)
20007fea:	d22a                	sw	a0,36(sp)
20007fec:	c22e                	sw	a1,4(sp)
20007fee:	c43a                	sw	a4,8(sp)
20007ff0:	013d84b3          	add	s1,s11,s3
20007ff4:	c65a                	sw	s6,12(sp)
20007ff6:	8cb2                	mv	s9,a2
20007ff8:	8bda                	mv	s7,s6
20007ffa:	d636                	sw	a3,44(sp)
20007ffc:	215bc7b3          	sh2add	a5,s7,s5
20008000:	0007ac03          	lw	s8,0(a5)
20008004:	002b9993          	slli	s3,s7,0x2
20008008:	05705463          	blez	s7,20008050 <__kernel_rem_pio2f+0x18a>
2000800c:	8926                	mv	s2,s1
2000800e:	0080                	addi	s0,sp,64
20008010:	84be                	mv	s1,a5
20008012:	4592                	lw	a1,4(sp)
20008014:	8562                	mv	a0,s8
20008016:	14f1                	addi	s1,s1,-4
20008018:	bacfd0ef          	jal	200053c4 <__mulsf3>
2000801c:	085020ef          	jal	2000a8a0 <__fixsfsi>
20008020:	12d020ef          	jal	2000a94c <__floatsisf>
20008024:	45a2                	lw	a1,8(sp)
20008026:	8b2a                	mv	s6,a0
20008028:	0411                	addi	s0,s0,4
2000802a:	b9afd0ef          	jal	200053c4 <__mulsf3>
2000802e:	85aa                	mv	a1,a0
20008030:	8562                	mv	a0,s8
20008032:	a3efd0ef          	jal	20005270 <__subsf3>
20008036:	06b020ef          	jal	2000a8a0 <__fixsfsi>
2000803a:	408c                	lw	a1,0(s1)
2000803c:	872a                	mv	a4,a0
2000803e:	fee42e23          	sw	a4,-4(s0)
20008042:	855a                	mv	a0,s6
20008044:	a30fd0ef          	jal	20005274 <__addsf3>
20008048:	8c2a                	mv	s8,a0
2000804a:	fc9a94e3          	bne	s5,s1,20008012 <__kernel_rem_pio2f+0x14c>
2000804e:	84ca                	mv	s1,s2
20008050:	8562                	mv	a0,s8
20008052:	85e6                	mv	a1,s9
20008054:	2dd9                	jal	2000872a <scalbnf>
20008056:	5582                	lw	a1,32(sp)
20008058:	842a                	mv	s0,a0
2000805a:	b6afd0ef          	jal	200053c4 <__mulsf3>
2000805e:	2be5                	jal	20008656 <floorf>
20008060:	5592                	lw	a1,36(sp)
20008062:	b62fd0ef          	jal	200053c4 <__mulsf3>
20008066:	85aa                	mv	a1,a0
20008068:	8522                	mv	a0,s0
2000806a:	a06fd0ef          	jal	20005270 <__subsf3>
2000806e:	842a                	mv	s0,a0
20008070:	031020ef          	jal	2000a8a0 <__fixsfsi>
20008074:	8c2a                	mv	s8,a0
20008076:	0d7020ef          	jal	2000a94c <__floatsisf>
2000807a:	85aa                	mv	a1,a0
2000807c:	8522                	mv	a0,s0
2000807e:	9f2fd0ef          	jal	20005270 <__subsf3>
20008082:	842a                	mv	s0,a0
20008084:	11905163          	blez	s9,20008186 <__kernel_rem_pio2f+0x2c0>
20008088:	009c                	addi	a5,sp,64
2000808a:	fffb8593          	addi	a1,s7,-1
2000808e:	20f5c5b3          	sh2add	a1,a1,a5
20008092:	4190                	lw	a2,0(a1)
20008094:	47a1                	li	a5,8
20008096:	419787b3          	sub	a5,a5,s9
2000809a:	40f65533          	sra	a0,a2,a5
2000809e:	00f517b3          	sll	a5,a0,a5
200080a2:	491d                	li	s2,7
200080a4:	40f607b3          	sub	a5,a2,a5
200080a8:	41990933          	sub	s2,s2,s9
200080ac:	c19c                	sw	a5,0(a1)
200080ae:	4127d933          	sra	s2,a5,s2
200080b2:	9c2a                	add	s8,s8,a0
200080b4:	35204563          	bgtz	s2,200083fe <__kernel_rem_pio2f+0x538>
200080b8:	00000593          	li	a1,0
200080bc:	8522                	mv	a0,s0
200080be:	662020ef          	jal	2000a720 <__eqsf2>
200080c2:	16051663          	bnez	a0,2000822e <__kernel_rem_pio2f+0x368>
200080c6:	47b2                	lw	a5,12(sp)
200080c8:	0177df63          	bge	a5,s7,200080e6 <__kernel_rem_pio2f+0x220>
200080cc:	46c2                	lw	a3,16(sp)
200080ce:	04098793          	addi	a5,s3,64
200080d2:	978a                	add	a5,a5,sp
200080d4:	4601                	li	a2,0
200080d6:	ffc7a703          	lw	a4,-4(a5)
200080da:	17f1                	addi	a5,a5,-4
200080dc:	8e59                	or	a2,a2,a4
200080de:	fed79ce3          	bne	a5,a3,200080d6 <__kernel_rem_pio2f+0x210>
200080e2:	36061f63          	bnez	a2,20008460 <__kernel_rem_pio2f+0x59a>
200080e6:	47b2                	lw	a5,12(sp)
200080e8:	001b8c13          	addi	s8,s7,1
200080ec:	2027c7b3          	sh2add	a5,a5,sp
200080f0:	5fdc                	lw	a5,60(a5)
200080f2:	32079263          	bnez	a5,20008416 <__kernel_rem_pio2f+0x550>
200080f6:	4642                	lw	a2,16(sp)
200080f8:	4785                	li	a5,1
200080fa:	ff862703          	lw	a4,-8(a2)
200080fe:	1671                	addi	a2,a2,-4
20008100:	0785                	addi	a5,a5,1
20008102:	df65                	beqz	a4,200080fa <__kernel_rem_pio2f+0x234>
20008104:	00fb8b33          	add	s6,s7,a5
20008108:	47f2                	lw	a5,28(sp)
2000810a:	0918                	addi	a4,sp,144
2000810c:	cc52                	sw	s4,24(sp)
2000810e:	01778933          	add	s2,a5,s7
20008112:	57b2                	lw	a5,44(sp)
20008114:	21494933          	sh2add	s2,s2,s4
20008118:	99d6                	add	s3,s3,s5
2000811a:	97de                	add	a5,a5,s7
2000811c:	ca56                	sw	s5,20(sp)
2000811e:	20e7ca33          	sh2add	s4,a5,a4
20008122:	00492503          	lw	a0,4(s2)
20008126:	027020ef          	jal	2000a94c <__floatsisf>
2000812a:	00aa2023          	sw	a0,0(s4)
2000812e:	040d4163          	bltz	s10,20008170 <__kernel_rem_pio2f+0x2aa>
20008132:	8bd2                	mv	s7,s4
20008134:	8aee                	mv	s5,s11
20008136:	00000413          	li	s0,0
2000813a:	000ba583          	lw	a1,0(s7)
2000813e:	000aa503          	lw	a0,0(s5)
20008142:	0a91                	addi	s5,s5,4
20008144:	1bf1                	addi	s7,s7,-4
20008146:	a7efd0ef          	jal	200053c4 <__mulsf3>
2000814a:	85aa                	mv	a1,a0
2000814c:	8522                	mv	a0,s0
2000814e:	926fd0ef          	jal	20005274 <__addsf3>
20008152:	842a                	mv	s0,a0
20008154:	fe9a93e3          	bne	s5,s1,2000813a <__kernel_rem_pio2f+0x274>
20008158:	0089a223          	sw	s0,4(s3)
2000815c:	0c05                	addi	s8,s8,1
2000815e:	0911                	addi	s2,s2,4
20008160:	0a11                	addi	s4,s4,4
20008162:	0991                	addi	s3,s3,4
20008164:	fb8b5fe3          	bge	s6,s8,20008122 <__kernel_rem_pio2f+0x25c>
20008168:	4ad2                	lw	s5,20(sp)
2000816a:	4a62                	lw	s4,24(sp)
2000816c:	8bda                	mv	s7,s6
2000816e:	b579                	j	20007ffc <__kernel_rem_pio2f+0x136>
20008170:	00000413          	li	s0,0
20008174:	0089a223          	sw	s0,4(s3)
20008178:	0c05                	addi	s8,s8,1
2000817a:	0911                	addi	s2,s2,4
2000817c:	0a11                	addi	s4,s4,4
2000817e:	0991                	addi	s3,s3,4
20008180:	fb8b51e3          	bge	s6,s8,20008122 <__kernel_rem_pio2f+0x25c>
20008184:	b7d5                	j	20008168 <__kernel_rem_pio2f+0x2a2>
20008186:	240c8563          	beqz	s9,200083d0 <__kernel_rem_pio2f+0x50a>
2000818a:	55e2                	lw	a1,56(sp)
2000818c:	4901                	li	s2,0
2000818e:	5e6020ef          	jal	2000a774 <__gesf2>
20008192:	f20543e3          	bltz	a0,200080b8 <__kernel_rem_pio2f+0x1f2>
20008196:	0c05                	addi	s8,s8,1
20008198:	4909                	li	s2,2
2000819a:	25705963          	blez	s7,200083ec <__kernel_rem_pio2f+0x526>
2000819e:	4b06                	lw	s6,64(sp)
200081a0:	009c                	addi	a5,sp,64
200081a2:	883e                	mv	a6,a5
200081a4:	4581                	li	a1,0
200081a6:	200b0d63          	beqz	s6,200083c0 <__kernel_rem_pio2f+0x4fa>
200081aa:	10000513          	li	a0,256
200081ae:	41650633          	sub	a2,a0,s6
200081b2:	00c82023          	sw	a2,0(a6)
200081b6:	a039                	j	200081c4 <__kernel_rem_pio2f+0x2fe>
200081b8:	4398                	lw	a4,0(a5)
200081ba:	0ff00693          	li	a3,255
200081be:	40e68733          	sub	a4,a3,a4
200081c2:	c398                	sw	a4,0(a5)
200081c4:	0585                	addi	a1,a1,1
200081c6:	0791                	addi	a5,a5,4
200081c8:	ff75c8e3          	blt	a1,s7,200081b8 <__kernel_rem_pio2f+0x2f2>
200081cc:	4b05                	li	s6,1
200081ce:	03905163          	blez	s9,200081f0 <__kernel_rem_pio2f+0x32a>
200081d2:	4785                	li	a5,1
200081d4:	2efc8263          	beq	s9,a5,200084b8 <__kernel_rem_pio2f+0x5f2>
200081d8:	4789                	li	a5,2
200081da:	00fc9b63          	bne	s9,a5,200081f0 <__kernel_rem_pio2f+0x32a>
200081de:	fffb8793          	addi	a5,s7,-1
200081e2:	0098                	addi	a4,sp,64
200081e4:	20e7c7b3          	sh2add	a5,a5,a4
200081e8:	438c                	lw	a1,0(a5)
200081ea:	03f5f593          	andi	a1,a1,63
200081ee:	c38c                	sw	a1,0(a5)
200081f0:	4789                	li	a5,2
200081f2:	ecf913e3          	bne	s2,a5,200080b8 <__kernel_rem_pio2f+0x1f2>
200081f6:	2000c7b7          	lui	a5,0x2000c
200081fa:	e487a503          	lw	a0,-440(a5) # 2000be48 <__clz_tab+0x104>
200081fe:	85a2                	mv	a1,s0
20008200:	870fd0ef          	jal	20005270 <__subsf3>
20008204:	842a                	mv	s0,a0
20008206:	ea0b09e3          	beqz	s6,200080b8 <__kernel_rem_pio2f+0x1f2>
2000820a:	2000c7b7          	lui	a5,0x2000c
2000820e:	e487a503          	lw	a0,-440(a5) # 2000be48 <__clz_tab+0x104>
20008212:	85e6                	mv	a1,s9
20008214:	2b19                	jal	2000872a <scalbnf>
20008216:	85aa                	mv	a1,a0
20008218:	8522                	mv	a0,s0
2000821a:	856fd0ef          	jal	20005270 <__subsf3>
2000821e:	842a                	mv	s0,a0
20008220:	00000593          	li	a1,0
20008224:	8522                	mv	a0,s0
20008226:	4fa020ef          	jal	2000a720 <__eqsf2>
2000822a:	e8050ee3          	beqz	a0,200080c6 <__kernel_rem_pio2f+0x200>
2000822e:	5752                	lw	a4,52(sp)
20008230:	56f2                	lw	a3,60(sp)
20008232:	8522                	mv	a0,s0
20008234:	c266                	sw	s9,4(sp)
20008236:	40d705b3          	sub	a1,a4,a3
2000823a:	4b32                	lw	s6,12(sp)
2000823c:	21fd                	jal	2000872a <scalbnf>
2000823e:	2000c7b7          	lui	a5,0x2000c
20008242:	e647a483          	lw	s1,-412(a5) # 2000be64 <__clz_tab+0x120>
20008246:	8cce                	mv	s9,s3
20008248:	8a5e                	mv	s4,s7
2000824a:	85a6                	mv	a1,s1
2000824c:	89e2                	mv	s3,s8
2000824e:	842a                	mv	s0,a0
20008250:	524020ef          	jal	2000a774 <__gesf2>
20008254:	36054b63          	bltz	a0,200085ca <__kernel_rem_pio2f+0x704>
20008258:	2000c7b7          	lui	a5,0x2000c
2000825c:	eec7a583          	lw	a1,-276(a5) # 2000beec <__clz_tab+0x1a8>
20008260:	8522                	mv	a0,s0
20008262:	962fd0ef          	jal	200053c4 <__mulsf3>
20008266:	63a020ef          	jal	2000a8a0 <__fixsfsi>
2000826a:	6e2020ef          	jal	2000a94c <__floatsisf>
2000826e:	85a6                	mv	a1,s1
20008270:	8baa                	mv	s7,a0
20008272:	952fd0ef          	jal	200053c4 <__mulsf3>
20008276:	85aa                	mv	a1,a0
20008278:	8522                	mv	a0,s0
2000827a:	ff7fc0ef          	jal	20005270 <__subsf3>
2000827e:	622020ef          	jal	2000a8a0 <__fixsfsi>
20008282:	4612                	lw	a2,4(sp)
20008284:	002c84b3          	add	s1,s9,sp
20008288:	c0a8                	sw	a0,64(s1)
2000828a:	0621                	addi	a2,a2,8
2000828c:	855e                	mv	a0,s7
2000828e:	c232                	sw	a2,4(sp)
20008290:	610020ef          	jal	2000a8a0 <__fixsfsi>
20008294:	001a0c93          	addi	s9,s4,1
20008298:	4612                	lw	a2,4(sp)
2000829a:	202cc433          	sh2add	s0,s9,sp
2000829e:	c028                	sw	a0,64(s0)
200082a0:	2000c7b7          	lui	a5,0x2000c
200082a4:	e487a503          	lw	a0,-440(a5) # 2000be48 <__clz_tab+0x104>
200082a8:	85b2                	mv	a1,a2
200082aa:	2141                	jal	2000872a <scalbnf>
200082ac:	842a                	mv	s0,a0
200082ae:	1e0cc763          	bltz	s9,2000849c <__kernel_rem_pio2f+0x5d6>
200082b2:	2000c7b7          	lui	a5,0x2000c
200082b6:	eec7aa03          	lw	s4,-276(a5) # 2000beec <__clz_tab+0x1a8>
200082ba:	215ccab3          	sh2add	s5,s9,s5
200082be:	009c                	addi	a5,sp,64
200082c0:	8bd6                	mv	s7,s5
200082c2:	002c9d13          	slli	s10,s9,0x2
200082c6:	20fcc4b3          	sh2add	s1,s9,a5
200082ca:	03c10c13          	addi	s8,sp,60
200082ce:	4088                	lw	a0,0(s1)
200082d0:	14f1                	addi	s1,s1,-4
200082d2:	1bf1                	addi	s7,s7,-4
200082d4:	678020ef          	jal	2000a94c <__floatsisf>
200082d8:	85a2                	mv	a1,s0
200082da:	8eafd0ef          	jal	200053c4 <__mulsf3>
200082de:	00aba223          	sw	a0,4(s7)
200082e2:	85d2                	mv	a1,s4
200082e4:	8522                	mv	a0,s0
200082e6:	8defd0ef          	jal	200053c4 <__mulsf3>
200082ea:	842a                	mv	s0,a0
200082ec:	fe9c11e3          	bne	s8,s1,200082ce <__kernel_rem_pio2f+0x408>
200082f0:	c24a                	sw	s2,4(sp)
200082f2:	0e010b93          	addi	s7,sp,224
200082f6:	4a01                	li	s4,0
200082f8:	2000cc37          	lui	s8,0x2000c
200082fc:	040b4363          	bltz	s6,20008342 <__kernel_rem_pio2f+0x47c>
20008300:	c94c0913          	addi	s2,s8,-876 # 2000bc94 <PIo2>
20008304:	8dd6                	mv	s11,s5
20008306:	00000413          	li	s0,0
2000830a:	4481                	li	s1,0
2000830c:	029a4263          	blt	s4,s1,20008330 <__kernel_rem_pio2f+0x46a>
20008310:	000da583          	lw	a1,0(s11)
20008314:	00092503          	lw	a0,0(s2)
20008318:	0485                	addi	s1,s1,1
2000831a:	0911                	addi	s2,s2,4
2000831c:	8a8fd0ef          	jal	200053c4 <__mulsf3>
20008320:	85aa                	mv	a1,a0
20008322:	8522                	mv	a0,s0
20008324:	f51fc0ef          	jal	20005274 <__addsf3>
20008328:	0d91                	addi	s11,s11,4
2000832a:	842a                	mv	s0,a0
2000832c:	fe9b50e3          	bge	s6,s1,2000830c <__kernel_rem_pio2f+0x446>
20008330:	008ba023          	sw	s0,0(s7)
20008334:	1af1                	addi	s5,s5,-4
20008336:	0b91                	addi	s7,s7,4
20008338:	019a0d63          	beq	s4,s9,20008352 <__kernel_rem_pio2f+0x48c>
2000833c:	0a05                	addi	s4,s4,1
2000833e:	fc0b51e3          	bgez	s6,20008300 <__kernel_rem_pio2f+0x43a>
20008342:	00000413          	li	s0,0
20008346:	008ba023          	sw	s0,0(s7)
2000834a:	1af1                	addi	s5,s5,-4
2000834c:	0b91                	addi	s7,s7,4
2000834e:	ff9a17e3          	bne	s4,s9,2000833c <__kernel_rem_pio2f+0x476>
20008352:	5742                	lw	a4,48(sp)
20008354:	4789                	li	a5,2
20008356:	4912                	lw	s2,4(sp)
20008358:	1ce7c963          	blt	a5,a4,2000852a <__kernel_rem_pio2f+0x664>
2000835c:	16e04c63          	bgtz	a4,200084d4 <__kernel_rem_pio2f+0x60e>
20008360:	e315                	bnez	a4,20008384 <__kernel_rem_pio2f+0x4be>
20008362:	119c                	addi	a5,sp,224
20008364:	9d3e                	add	s10,s10,a5
20008366:	ffc78a13          	addi	s4,a5,-4
2000836a:	00000513          	li	a0,0
2000836e:	000d2583          	lw	a1,0(s10)
20008372:	1d71                	addi	s10,s10,-4
20008374:	f01fc0ef          	jal	20005274 <__addsf3>
20008378:	ffaa1be3          	bne	s4,s10,2000836e <__kernel_rem_pio2f+0x4a8>
2000837c:	26091d63          	bnez	s2,200085f6 <__kernel_rem_pio2f+0x730>
20008380:	57a2                	lw	a5,40(sp)
20008382:	c388                	sw	a0,0(a5)
20008384:	1bc12083          	lw	ra,444(sp)
20008388:	1b812403          	lw	s0,440(sp)
2000838c:	1b412483          	lw	s1,436(sp)
20008390:	1b012903          	lw	s2,432(sp)
20008394:	1a812a03          	lw	s4,424(sp)
20008398:	1a412a83          	lw	s5,420(sp)
2000839c:	1a012b03          	lw	s6,416(sp)
200083a0:	19c12b83          	lw	s7,412(sp)
200083a4:	19812c03          	lw	s8,408(sp)
200083a8:	19412c83          	lw	s9,404(sp)
200083ac:	19012d03          	lw	s10,400(sp)
200083b0:	18c12d83          	lw	s11,396(sp)
200083b4:	0079f513          	andi	a0,s3,7
200083b8:	1ac12983          	lw	s3,428(sp)
200083bc:	6139                	addi	sp,sp,448
200083be:	8082                	ret
200083c0:	0585                	addi	a1,a1,1
200083c2:	0791                	addi	a5,a5,4
200083c4:	e175d5e3          	bge	a1,s7,200081ce <__kernel_rem_pio2f+0x308>
200083c8:	0007ab03          	lw	s6,0(a5)
200083cc:	883e                	mv	a6,a5
200083ce:	bbe1                	j	200081a6 <__kernel_rem_pio2f+0x2e0>
200083d0:	202bc7b3          	sh2add	a5,s7,sp
200083d4:	03c7a903          	lw	s2,60(a5)
200083d8:	40795913          	srai	s2,s2,0x7
200083dc:	cd205ee3          	blez	s2,200080b8 <__kernel_rem_pio2f+0x1f2>
200083e0:	0c05                	addi	s8,s8,1
200083e2:	db704ee3          	bgtz	s7,2000819e <__kernel_rem_pio2f+0x2d8>
200083e6:	4789                	li	a5,2
200083e8:	ccf918e3          	bne	s2,a5,200080b8 <__kernel_rem_pio2f+0x1f2>
200083ec:	2000c7b7          	lui	a5,0x2000c
200083f0:	e487a503          	lw	a0,-440(a5) # 2000be48 <__clz_tab+0x104>
200083f4:	85a2                	mv	a1,s0
200083f6:	e7bfc0ef          	jal	20005270 <__subsf3>
200083fa:	842a                	mv	s0,a0
200083fc:	b975                	j	200080b8 <__kernel_rem_pio2f+0x1f2>
200083fe:	0c05                	addi	s8,s8,1
20008400:	d9704fe3          	bgtz	s7,2000819e <__kernel_rem_pio2f+0x2d8>
20008404:	4605                	li	a2,1
20008406:	20cc8c63          	beq	s9,a2,2000861e <__kernel_rem_pio2f+0x758>
2000840a:	4609                	li	a2,2
2000840c:	20cc8363          	beq	s9,a2,20008612 <__kernel_rem_pio2f+0x74c>
20008410:	cac914e3          	bne	s2,a2,200080b8 <__kernel_rem_pio2f+0x1f2>
20008414:	bfe1                	j	200083ec <__kernel_rem_pio2f+0x526>
20008416:	8b62                	mv	s6,s8
20008418:	b9c5                	j	20008108 <__kernel_rem_pio2f+0x242>
2000841a:	013d8933          	add	s2,s11,s3
2000841e:	c232                	sw	a2,4(sp)
20008420:	c44e                	sw	s3,8(sp)
20008422:	c636                	sw	a3,12(sp)
20008424:	8a5e                	mv	s4,s7
20008426:	89ee                	mv	s3,s11
20008428:	00000413          	li	s0,0
2000842c:	000a2583          	lw	a1,0(s4)
20008430:	0009a503          	lw	a0,0(s3)
20008434:	0991                	addi	s3,s3,4
20008436:	1a71                	addi	s4,s4,-4
20008438:	f8dfc0ef          	jal	200053c4 <__mulsf3>
2000843c:	85aa                	mv	a1,a0
2000843e:	8522                	mv	a0,s0
20008440:	e35fc0ef          	jal	20005274 <__addsf3>
20008444:	842a                	mv	s0,a0
20008446:	ff2993e3          	bne	s3,s2,2000842c <__kernel_rem_pio2f+0x566>
2000844a:	00ac2023          	sw	a0,0(s8)
2000844e:	0c85                	addi	s9,s9,1
20008450:	0c11                	addi	s8,s8,4
20008452:	0b91                	addi	s7,s7,4
20008454:	fc9c98e3          	bne	s9,s1,20008424 <__kernel_rem_pio2f+0x55e>
20008458:	4612                	lw	a2,4(sp)
2000845a:	49a2                	lw	s3,8(sp)
2000845c:	46b2                	lw	a3,12(sp)
2000845e:	be99                	j	20007fb4 <__kernel_rem_pio2f+0xee>
20008460:	ff8c8613          	addi	a2,s9,-8
20008464:	fffb8c93          	addi	s9,s7,-1
20008468:	202cc7b3          	sh2add	a5,s9,sp
2000846c:	43bc                	lw	a5,64(a5)
2000846e:	874e                	mv	a4,s3
20008470:	4b32                	lw	s6,12(sp)
20008472:	89e2                	mv	s3,s8
20008474:	e20796e3          	bnez	a5,200082a0 <__kernel_rem_pio2f+0x3da>
20008478:	04070793          	addi	a5,a4,64
2000847c:	978a                	add	a5,a5,sp
2000847e:	ff87a703          	lw	a4,-8(a5)
20008482:	17f1                	addi	a5,a5,-4
20008484:	1cfd                	addi	s9,s9,-1
20008486:	1661                	addi	a2,a2,-8
20008488:	db7d                	beqz	a4,2000847e <__kernel_rem_pio2f+0x5b8>
2000848a:	2000c7b7          	lui	a5,0x2000c
2000848e:	e487a503          	lw	a0,-440(a5) # 2000be48 <__clz_tab+0x104>
20008492:	85b2                	mv	a1,a2
20008494:	2c59                	jal	2000872a <scalbnf>
20008496:	842a                	mv	s0,a0
20008498:	e00cdde3          	bgez	s9,200082b2 <__kernel_rem_pio2f+0x3ec>
2000849c:	5742                	lw	a4,48(sp)
2000849e:	4789                	li	a5,2
200084a0:	18e7c363          	blt	a5,a4,20008626 <__kernel_rem_pio2f+0x760>
200084a4:	18e04863          	bgtz	a4,20008634 <__kernel_rem_pio2f+0x76e>
200084a8:	57c2                	lw	a5,48(sp)
200084aa:	00000513          	li	a0,0
200084ae:	ec079be3          	bnez	a5,20008384 <__kernel_rem_pio2f+0x4be>
200084b2:	ec0907e3          	beqz	s2,20008380 <__kernel_rem_pio2f+0x4ba>
200084b6:	a281                	j	200085f6 <__kernel_rem_pio2f+0x730>
200084b8:	fffb8793          	addi	a5,s7,-1
200084bc:	0098                	addi	a4,sp,64
200084be:	20e7c7b3          	sh2add	a5,a5,a4
200084c2:	438c                	lw	a1,0(a5)
200084c4:	07f5f593          	andi	a1,a1,127
200084c8:	c38c                	sw	a1,0(a5)
200084ca:	b31d                	j	200081f0 <__kernel_rem_pio2f+0x32a>
200084cc:	47a1                	li	a5,8
200084ce:	da3e                	sw	a5,52(sp)
200084d0:	ce02                	sw	zero,28(sp)
200084d2:	b495                	j	20007f36 <__kernel_rem_pio2f+0x70>
200084d4:	5a8e                	lw	s5,224(sp)
200084d6:	119c                	addi	a5,sp,224
200084d8:	9d3e                	add	s10,s10,a5
200084da:	ffc78a13          	addi	s4,a5,-4
200084de:	00000513          	li	a0,0
200084e2:	000d2583          	lw	a1,0(s10)
200084e6:	1d71                	addi	s10,s10,-4
200084e8:	d8dfc0ef          	jal	20005274 <__addsf3>
200084ec:	ffaa1be3          	bne	s4,s10,200084e2 <__kernel_rem_pio2f+0x61c>
200084f0:	84aa                	mv	s1,a0
200084f2:	0e091563          	bnez	s2,200085dc <__kernel_rem_pio2f+0x716>
200084f6:	8556                	mv	a0,s5
200084f8:	85a6                	mv	a1,s1
200084fa:	d77fc0ef          	jal	20005270 <__subsf3>
200084fe:	57a2                	lw	a5,40(sp)
20008500:	c384                	sw	s1,0(a5)
20008502:	020c8163          	beqz	s9,20008524 <__kernel_rem_pio2f+0x65e>
20008506:	0e410c13          	addi	s8,sp,228
2000850a:	4405                	li	s0,1
2000850c:	000c2583          	lw	a1,0(s8)
20008510:	0405                	addi	s0,s0,1
20008512:	0c11                	addi	s8,s8,4
20008514:	d61fc0ef          	jal	20005274 <__addsf3>
20008518:	fe8cdae3          	bge	s9,s0,2000850c <__kernel_rem_pio2f+0x646>
2000851c:	00090463          	beqz	s2,20008524 <__kernel_rem_pio2f+0x65e>
20008520:	69f51513          	binvi	a0,a0,0x1f
20008524:	57a2                	lw	a5,40(sp)
20008526:	c3c8                	sw	a0,4(a5)
20008528:	bdb1                	j	20008384 <__kernel_rem_pio2f+0x4be>
2000852a:	5742                	lw	a4,48(sp)
2000852c:	478d                	li	a5,3
2000852e:	e4f71be3          	bne	a4,a5,20008384 <__kernel_rem_pio2f+0x4be>
20008532:	0e0c8e63          	beqz	s9,2000862e <__kernel_rem_pio2f+0x768>
20008536:	119c                	addi	a5,sp,224
20008538:	01a78433          	add	s0,a5,s10
2000853c:	4004                	lw	s1,0(s0)
2000853e:	8aa2                	mv	s5,s0
20008540:	8a22                	mv	s4,s0
20008542:	ffca2b03          	lw	s6,-4(s4)
20008546:	8526                	mv	a0,s1
20008548:	8ba6                	mv	s7,s1
2000854a:	85da                	mv	a1,s6
2000854c:	d29fc0ef          	jal	20005274 <__addsf3>
20008550:	84aa                	mv	s1,a0
20008552:	85a6                	mv	a1,s1
20008554:	855a                	mv	a0,s6
20008556:	d1bfc0ef          	jal	20005270 <__subsf3>
2000855a:	85de                	mv	a1,s7
2000855c:	d19fc0ef          	jal	20005274 <__addsf3>
20008560:	00aa2023          	sw	a0,0(s4)
20008564:	fe9a2e23          	sw	s1,-4(s4)
20008568:	119c                	addi	a5,sp,224
2000856a:	1a71                	addi	s4,s4,-4
2000856c:	fd479be3          	bne	a5,s4,20008542 <__kernel_rem_pio2f+0x67c>
20008570:	4785                	li	a5,1
20008572:	0afc8e63          	beq	s9,a5,2000862e <__kernel_rem_pio2f+0x768>
20008576:	4004                	lw	s1,0(s0)
20008578:	0e410c13          	addi	s8,sp,228
2000857c:	ffc42a03          	lw	s4,-4(s0)
20008580:	8526                	mv	a0,s1
20008582:	8b26                	mv	s6,s1
20008584:	85d2                	mv	a1,s4
20008586:	ceffc0ef          	jal	20005274 <__addsf3>
2000858a:	84aa                	mv	s1,a0
2000858c:	85a6                	mv	a1,s1
2000858e:	8552                	mv	a0,s4
20008590:	ce1fc0ef          	jal	20005270 <__subsf3>
20008594:	85da                	mv	a1,s6
20008596:	cdffc0ef          	jal	20005274 <__addsf3>
2000859a:	c008                	sw	a0,0(s0)
2000859c:	fe942e23          	sw	s1,-4(s0)
200085a0:	1471                	addi	s0,s0,-4
200085a2:	fc8c1de3          	bne	s8,s0,2000857c <__kernel_rem_pio2f+0x6b6>
200085a6:	00000513          	li	a0,0
200085aa:	000aa583          	lw	a1,0(s5)
200085ae:	1af1                	addi	s5,s5,-4
200085b0:	cc5fc0ef          	jal	20005274 <__addsf3>
200085b4:	ff5c1be3          	bne	s8,s5,200085aa <__kernel_rem_pio2f+0x6e4>
200085b8:	570e                	lw	a4,224(sp)
200085ba:	579e                	lw	a5,228(sp)
200085bc:	04091063          	bnez	s2,200085fc <__kernel_rem_pio2f+0x736>
200085c0:	56a2                	lw	a3,40(sp)
200085c2:	c298                	sw	a4,0(a3)
200085c4:	c2dc                	sw	a5,4(a3)
200085c6:	c688                	sw	a0,8(a3)
200085c8:	bb75                	j	20008384 <__kernel_rem_pio2f+0x4be>
200085ca:	8522                	mv	a0,s0
200085cc:	2d4020ef          	jal	2000a8a0 <__fixsfsi>
200085d0:	002c8433          	add	s0,s9,sp
200085d4:	4612                	lw	a2,4(sp)
200085d6:	8cde                	mv	s9,s7
200085d8:	c028                	sw	a0,64(s0)
200085da:	b1d9                	j	200082a0 <__kernel_rem_pio2f+0x3da>
200085dc:	5722                	lw	a4,40(sp)
200085de:	69f51793          	binvi	a5,a0,0x1f
200085e2:	85a6                	mv	a1,s1
200085e4:	8556                	mv	a0,s5
200085e6:	c31c                	sw	a5,0(a4)
200085e8:	c89fc0ef          	jal	20005270 <__subsf3>
200085ec:	f00c9de3          	bnez	s9,20008506 <__kernel_rem_pio2f+0x640>
200085f0:	69f51513          	binvi	a0,a0,0x1f
200085f4:	bf05                	j	20008524 <__kernel_rem_pio2f+0x65e>
200085f6:	69f51513          	binvi	a0,a0,0x1f
200085fa:	b359                	j	20008380 <__kernel_rem_pio2f+0x4ba>
200085fc:	56a2                	lw	a3,40(sp)
200085fe:	69f71713          	binvi	a4,a4,0x1f
20008602:	69f79793          	binvi	a5,a5,0x1f
20008606:	69f51513          	binvi	a0,a0,0x1f
2000860a:	c298                	sw	a4,0(a3)
2000860c:	c2dc                	sw	a5,4(a3)
2000860e:	c688                	sw	a0,8(a3)
20008610:	bb95                	j	20008384 <__kernel_rem_pio2f+0x4be>
20008612:	03f7f793          	andi	a5,a5,63
20008616:	c19c                	sw	a5,0(a1)
20008618:	ab9910e3          	bne	s2,s9,200080b8 <__kernel_rem_pio2f+0x1f2>
2000861c:	bbc1                	j	200083ec <__kernel_rem_pio2f+0x526>
2000861e:	07f7f793          	andi	a5,a5,127
20008622:	c19c                	sw	a5,0(a1)
20008624:	b3c9                	j	200083e6 <__kernel_rem_pio2f+0x520>
20008626:	5742                	lw	a4,48(sp)
20008628:	478d                	li	a5,3
2000862a:	d4f71de3          	bne	a4,a5,20008384 <__kernel_rem_pio2f+0x4be>
2000862e:	00000513          	li	a0,0
20008632:	b759                	j	200085b8 <__kernel_rem_pio2f+0x6f2>
20008634:	550e                	lw	a0,224(sp)
20008636:	00090b63          	beqz	s2,2000864c <__kernel_rem_pio2f+0x786>
2000863a:	2000c7b7          	lui	a5,0x2000c
2000863e:	ef87a783          	lw	a5,-264(a5) # 2000bef8 <__clz_tab+0x1b4>
20008642:	5722                	lw	a4,40(sp)
20008644:	69f51513          	binvi	a0,a0,0x1f
20008648:	c31c                	sw	a5,0(a4)
2000864a:	bde9                	j	20008524 <__kernel_rem_pio2f+0x65e>
2000864c:	57a2                	lw	a5,40(sp)
2000864e:	00000713          	li	a4,0
20008652:	c398                	sw	a4,0(a5)
20008654:	bdc1                	j	20008524 <__kernel_rem_pio2f+0x65e>

20008656 <floorf>:
20008656:	49f51613          	bclri	a2,a0,0x1f
2000865a:	7179                	addi	sp,sp,-48
2000865c:	01765793          	srli	a5,a2,0x17
20008660:	d606                	sw	ra,44(sp)
20008662:	f8178793          	addi	a5,a5,-127
20008666:	46d9                	li	a3,22
20008668:	04f6ca63          	blt	a3,a5,200086bc <floorf+0x66>
2000866c:	0607c563          	bltz	a5,200086d6 <floorf+0x80>
20008670:	008008b7          	lui	a7,0x800
20008674:	fff88613          	addi	a2,a7,-1 # 7fffff <HeapSize+0x7ff7ff>
20008678:	40f65633          	sra	a2,a2,a5
2000867c:	00a675b3          	and	a1,a2,a0
20008680:	86aa                	mv	a3,a0
20008682:	c98d                	beqz	a1,200086b4 <floorf+0x5e>
20008684:	2000c5b7          	lui	a1,0x2000c
20008688:	f005a583          	lw	a1,-256(a1) # 2000bf00 <__clz_tab+0x1bc>
2000868c:	c832                	sw	a2,16(sp)
2000868e:	ce3e                	sw	a5,28(sp)
20008690:	c62a                	sw	a0,12(sp)
20008692:	cc2a                	sw	a0,24(sp)
20008694:	ca2a                	sw	a0,20(sp)
20008696:	bdffc0ef          	jal	20005274 <__addsf3>
2000869a:	00000593          	li	a1,0
2000869e:	0d6020ef          	jal	2000a774 <__gesf2>
200086a2:	46b2                	lw	a3,12(sp)
200086a4:	00a05863          	blez	a0,200086b4 <floorf+0x5e>
200086a8:	4852                	lw	a6,20(sp)
200086aa:	4642                	lw	a2,16(sp)
200086ac:	06084063          	bltz	a6,2000870c <floorf+0xb6>
200086b0:	40c876b3          	andn	a3,a6,a2
200086b4:	50b2                	lw	ra,44(sp)
200086b6:	8536                	mv	a0,a3
200086b8:	6145                	addi	sp,sp,48
200086ba:	8082                	ret
200086bc:	7f8007b7          	lui	a5,0x7f800
200086c0:	86aa                	mv	a3,a0
200086c2:	fef669e3          	bltu	a2,a5,200086b4 <floorf+0x5e>
200086c6:	85aa                	mv	a1,a0
200086c8:	badfc0ef          	jal	20005274 <__addsf3>
200086cc:	50b2                	lw	ra,44(sp)
200086ce:	86aa                	mv	a3,a0
200086d0:	8536                	mv	a0,a3
200086d2:	6145                	addi	sp,sp,48
200086d4:	8082                	ret
200086d6:	2000c7b7          	lui	a5,0x2000c
200086da:	f007a583          	lw	a1,-256(a5) # 2000bf00 <__clz_tab+0x1bc>
200086de:	c832                	sw	a2,16(sp)
200086e0:	c62a                	sw	a0,12(sp)
200086e2:	b93fc0ef          	jal	20005274 <__addsf3>
200086e6:	00000593          	li	a1,0
200086ea:	08a020ef          	jal	2000a774 <__gesf2>
200086ee:	4732                	lw	a4,12(sp)
200086f0:	86ba                	mv	a3,a4
200086f2:	fca051e3          	blez	a0,200086b4 <floorf+0x5e>
200086f6:	00000693          	li	a3,0
200086fa:	fa075de3          	bgez	a4,200086b4 <floorf+0x5e>
200086fe:	4642                	lw	a2,16(sp)
20008700:	e205                	bnez	a2,20008720 <floorf+0xca>
20008702:	2000c7b7          	lui	a5,0x2000c
20008706:	ef87a683          	lw	a3,-264(a5) # 2000bef8 <__clz_tab+0x1b4>
2000870a:	b76d                	j	200086b4 <floorf+0x5e>
2000870c:	47f2                	lw	a5,28(sp)
2000870e:	008008b7          	lui	a7,0x800
20008712:	40f8d8b3          	sra	a7,a7,a5
20008716:	00d88833          	add	a6,a7,a3
2000871a:	40c876b3          	andn	a3,a6,a2
2000871e:	bf59                	j	200086b4 <floorf+0x5e>
20008720:	2000c7b7          	lui	a5,0x2000c
20008724:	efc7a683          	lw	a3,-260(a5) # 2000befc <__clz_tab+0x1b8>
20008728:	b771                	j	200086b4 <floorf+0x5e>

2000872a <scalbnf>:
2000872a:	49f51713          	bclri	a4,a0,0x1f
2000872e:	87aa                	mv	a5,a0
20008730:	cb25                	beqz	a4,200087a0 <scalbnf+0x76>
20008732:	1101                	addi	sp,sp,-32
20008734:	ce06                	sw	ra,28(sp)
20008736:	7f800637          	lui	a2,0x7f800
2000873a:	86ae                	mv	a3,a1
2000873c:	04c77c63          	bgeu	a4,a2,20008794 <scalbnf+0x6a>
20008740:	01755613          	srli	a2,a0,0x17
20008744:	0ff67613          	zext.b	a2,a2
20008748:	ee29                	bnez	a2,200087a2 <scalbnf+0x78>
2000874a:	2000c7b7          	lui	a5,0x2000c
2000874e:	c62e                	sw	a1,12(sp)
20008750:	f047a583          	lw	a1,-252(a5) # 2000bf04 <__clz_tab+0x1c0>
20008754:	c71fc0ef          	jal	200053c4 <__mulsf3>
20008758:	46b2                	lw	a3,12(sp)
2000875a:	7751                	lui	a4,0xffff4
2000875c:	cb070713          	addi	a4,a4,-848 # ffff3cb0 <__StackTop+0xdff71cb0>
20008760:	87aa                	mv	a5,a0
20008762:	08e6c963          	blt	a3,a4,200087f4 <scalbnf+0xca>
20008766:	41755713          	srai	a4,a0,0x17
2000876a:	6631                	lui	a2,0xc
2000876c:	0ff77713          	zext.b	a4,a4
20008770:	35060613          	addi	a2,a2,848 # c350 <HeapSize+0xbb50>
20008774:	171d                	addi	a4,a4,-25
20008776:	02d65c63          	bge	a2,a3,200087ae <scalbnf+0x84>
2000877a:	2000c737          	lui	a4,0x2000c
2000877e:	f0072503          	lw	a0,-256(a4) # 2000bf00 <__clz_tab+0x1bc>
20008782:	0607c063          	bltz	a5,200087e2 <scalbnf+0xb8>
20008786:	f0072583          	lw	a1,-256(a4)
2000878a:	c3bfc0ef          	jal	200053c4 <__mulsf3>
2000878e:	40f2                	lw	ra,28(sp)
20008790:	6105                	addi	sp,sp,32
20008792:	8082                	ret
20008794:	85aa                	mv	a1,a0
20008796:	adffc0ef          	jal	20005274 <__addsf3>
2000879a:	40f2                	lw	ra,28(sp)
2000879c:	6105                	addi	sp,sp,32
2000879e:	8082                	ret
200087a0:	8082                	ret
200087a2:	6631                	lui	a2,0xc
200087a4:	35060613          	addi	a2,a2,848 # c350 <HeapSize+0xbb50>
200087a8:	835d                	srli	a4,a4,0x17
200087aa:	fcd648e3          	blt	a2,a3,2000877a <scalbnf+0x50>
200087ae:	00d705b3          	add	a1,a4,a3
200087b2:	0fe00713          	li	a4,254
200087b6:	fcb742e3          	blt	a4,a1,2000877a <scalbnf+0x50>
200087ba:	04b04463          	bgtz	a1,20008802 <scalbnf+0xd8>
200087be:	5729                	li	a4,-22
200087c0:	04e5c863          	blt	a1,a4,20008810 <scalbnf+0xe6>
200087c4:	2000c6b7          	lui	a3,0x2000c
200087c8:	80800737          	lui	a4,0x80800
200087cc:	01958793          	addi	a5,a1,25
200087d0:	177d                	addi	a4,a4,-1 # 807fffff <__StackTop+0x6077dfff>
200087d2:	f146a583          	lw	a1,-236(a3) # 2000bf14 <__clz_tab+0x1d0>
200087d6:	07de                	slli	a5,a5,0x17
200087d8:	8d79                	and	a0,a0,a4
200087da:	8d5d                	or	a0,a0,a5
200087dc:	be9fc0ef          	jal	200053c4 <__mulsf3>
200087e0:	bf6d                	j	2000879a <scalbnf+0x70>
200087e2:	2000c7b7          	lui	a5,0x2000c
200087e6:	f0c7a503          	lw	a0,-244(a5) # 2000bf0c <__clz_tab+0x1c8>
200087ea:	f0072583          	lw	a1,-256(a4)
200087ee:	bd7fc0ef          	jal	200053c4 <__mulsf3>
200087f2:	bf71                	j	2000878e <scalbnf+0x64>
200087f4:	2000c7b7          	lui	a5,0x2000c
200087f8:	f087a583          	lw	a1,-248(a5) # 2000bf08 <__clz_tab+0x1c4>
200087fc:	bc9fc0ef          	jal	200053c4 <__mulsf3>
20008800:	bf69                	j	2000879a <scalbnf+0x70>
20008802:	808007b7          	lui	a5,0x80800
20008806:	17fd                	addi	a5,a5,-1 # 807fffff <__StackTop+0x6077dfff>
20008808:	05de                	slli	a1,a1,0x17
2000880a:	8d7d                	and	a0,a0,a5
2000880c:	8d4d                	or	a0,a0,a1
2000880e:	b771                	j	2000879a <scalbnf+0x70>
20008810:	2000c737          	lui	a4,0x2000c
20008814:	f0872503          	lw	a0,-248(a4) # 2000bf08 <__clz_tab+0x1c4>
20008818:	0007d663          	bgez	a5,20008824 <scalbnf+0xfa>
2000881c:	2000c7b7          	lui	a5,0x2000c
20008820:	f107a503          	lw	a0,-240(a5) # 2000bf10 <__clz_tab+0x1cc>
20008824:	f0872583          	lw	a1,-248(a4)
20008828:	b9dfc0ef          	jal	200053c4 <__mulsf3>
2000882c:	b7bd                	j	2000879a <scalbnf+0x70>

2000882e <__udivdi3>:
2000882e:	8732                	mv	a4,a2
20008830:	8836                	mv	a6,a3
20008832:	88aa                	mv	a7,a0
20008834:	832e                	mv	t1,a1
20008836:	1a069863          	bnez	a3,200089e6 <__udivdi3+0x1b8>
2000883a:	2000c7b7          	lui	a5,0x2000c
2000883e:	d4478793          	addi	a5,a5,-700 # 2000bd44 <__clz_tab>
20008842:	0ac5f663          	bgeu	a1,a2,200088ee <__udivdi3+0xc0>
20008846:	66c1                	lui	a3,0x10
20008848:	08d67963          	bgeu	a2,a3,200088da <__udivdi3+0xac>
2000884c:	10063693          	sltiu	a3,a2,256
20008850:	0016b693          	seqz	a3,a3
20008854:	068e                	slli	a3,a3,0x3
20008856:	00d65e33          	srl	t3,a2,a3
2000885a:	97f2                	add	a5,a5,t3
2000885c:	0007c783          	lbu	a5,0(a5)
20008860:	97b6                	add	a5,a5,a3
20008862:	02000693          	li	a3,32
20008866:	00d78d63          	beq	a5,a3,20008880 <__udivdi3+0x52>
2000886a:	8e9d                	sub	a3,a3,a5
2000886c:	00d59333          	sll	t1,a1,a3
20008870:	00f557b3          	srl	a5,a0,a5
20008874:	00d61733          	sll	a4,a2,a3
20008878:	0067e333          	or	t1,a5,t1
2000887c:	00d518b3          	sll	a7,a0,a3
20008880:	01075513          	srli	a0,a4,0x10
20008884:	02a357b3          	divu	a5,t1,a0
20008888:	080745b3          	zext.h	a1,a4
2000888c:	0108d693          	srli	a3,a7,0x10
20008890:	02a37333          	remu	t1,t1,a0
20008894:	02f58633          	mul	a2,a1,a5
20008898:	0342                	slli	t1,t1,0x10
2000889a:	0066e6b3          	or	a3,a3,t1
2000889e:	00c6f863          	bgeu	a3,a2,200088ae <__udivdi3+0x80>
200088a2:	96ba                	add	a3,a3,a4
200088a4:	00c6f463          	bgeu	a3,a2,200088ac <__udivdi3+0x7e>
200088a8:	04e6f063          	bgeu	a3,a4,200088e8 <__udivdi3+0xba>
200088ac:	17fd                	addi	a5,a5,-1
200088ae:	8e91                	sub	a3,a3,a2
200088b0:	02a6d633          	divu	a2,a3,a0
200088b4:	02a6f6b3          	remu	a3,a3,a0
200088b8:	02c585b3          	mul	a1,a1,a2
200088bc:	08d8c6b3          	pack	a3,a7,a3
200088c0:	00b6f863          	bgeu	a3,a1,200088d0 <__udivdi3+0xa2>
200088c4:	96ba                	add	a3,a3,a4
200088c6:	00b6f463          	bgeu	a3,a1,200088ce <__udivdi3+0xa0>
200088ca:	10e6fc63          	bgeu	a3,a4,200089e2 <__udivdi3+0x1b4>
200088ce:	167d                	addi	a2,a2,-1
200088d0:	07c2                	slli	a5,a5,0x10
200088d2:	8fd1                	or	a5,a5,a2
200088d4:	853e                	mv	a0,a5
200088d6:	85c2                	mv	a1,a6
200088d8:	8082                	ret
200088da:	01000e37          	lui	t3,0x1000
200088de:	46e1                	li	a3,24
200088e0:	f7c67be3          	bgeu	a2,t3,20008856 <__udivdi3+0x28>
200088e4:	46c1                	li	a3,16
200088e6:	bf85                	j	20008856 <__udivdi3+0x28>
200088e8:	17f9                	addi	a5,a5,-2
200088ea:	96ba                	add	a3,a3,a4
200088ec:	b7c9                	j	200088ae <__udivdi3+0x80>
200088ee:	4681                	li	a3,0
200088f0:	ca09                	beqz	a2,20008902 <__udivdi3+0xd4>
200088f2:	66c1                	lui	a3,0x10
200088f4:	04d67d63          	bgeu	a2,a3,2000894e <__udivdi3+0x120>
200088f8:	10063693          	sltiu	a3,a2,256
200088fc:	0016b693          	seqz	a3,a3
20008900:	068e                	slli	a3,a3,0x3
20008902:	00d65833          	srl	a6,a2,a3
20008906:	97c2                	add	a5,a5,a6
20008908:	0007c783          	lbu	a5,0(a5)
2000890c:	02000813          	li	a6,32
20008910:	97b6                	add	a5,a5,a3
20008912:	05079563          	bne	a5,a6,2000895c <__udivdi3+0x12e>
20008916:	40c58633          	sub	a2,a1,a2
2000891a:	4805                	li	a6,1
2000891c:	01075513          	srli	a0,a4,0x10
20008920:	02a657b3          	divu	a5,a2,a0
20008924:	080745b3          	zext.h	a1,a4
20008928:	0108d693          	srli	a3,a7,0x10
2000892c:	02a67633          	remu	a2,a2,a0
20008930:	02f58333          	mul	t1,a1,a5
20008934:	0642                	slli	a2,a2,0x10
20008936:	8ed1                	or	a3,a3,a2
20008938:	0066f863          	bgeu	a3,t1,20008948 <__udivdi3+0x11a>
2000893c:	96ba                	add	a3,a3,a4
2000893e:	0066f463          	bgeu	a3,t1,20008946 <__udivdi3+0x118>
20008942:	08e6fd63          	bgeu	a3,a4,200089dc <__udivdi3+0x1ae>
20008946:	17fd                	addi	a5,a5,-1
20008948:	406686b3          	sub	a3,a3,t1
2000894c:	b795                	j	200088b0 <__udivdi3+0x82>
2000894e:	01000837          	lui	a6,0x1000
20008952:	46e1                	li	a3,24
20008954:	fb0677e3          	bgeu	a2,a6,20008902 <__udivdi3+0xd4>
20008958:	46c1                	li	a3,16
2000895a:	b765                	j	20008902 <__udivdi3+0xd4>
2000895c:	40f80833          	sub	a6,a6,a5
20008960:	01061733          	sll	a4,a2,a6
20008964:	00f5d6b3          	srl	a3,a1,a5
20008968:	010518b3          	sll	a7,a0,a6
2000896c:	00f557b3          	srl	a5,a0,a5
20008970:	01075513          	srli	a0,a4,0x10
20008974:	010595b3          	sll	a1,a1,a6
20008978:	02a6d833          	divu	a6,a3,a0
2000897c:	8fcd                	or	a5,a5,a1
2000897e:	080745b3          	zext.h	a1,a4
20008982:	0107d613          	srli	a2,a5,0x10
20008986:	02a6f6b3          	remu	a3,a3,a0
2000898a:	03058333          	mul	t1,a1,a6
2000898e:	06c2                	slli	a3,a3,0x10
20008990:	8e55                	or	a2,a2,a3
20008992:	00667863          	bgeu	a2,t1,200089a2 <__udivdi3+0x174>
20008996:	963a                	add	a2,a2,a4
20008998:	00667463          	bgeu	a2,t1,200089a0 <__udivdi3+0x172>
2000899c:	02e67a63          	bgeu	a2,a4,200089d0 <__udivdi3+0x1a2>
200089a0:	187d                	addi	a6,a6,-1 # ffffff <HeapSize+0xfff7ff>
200089a2:	40660633          	sub	a2,a2,t1
200089a6:	02a656b3          	divu	a3,a2,a0
200089aa:	02a67633          	remu	a2,a2,a0
200089ae:	02d585b3          	mul	a1,a1,a3
200089b2:	08c7c633          	pack	a2,a5,a2
200089b6:	00b67863          	bgeu	a2,a1,200089c6 <__udivdi3+0x198>
200089ba:	963a                	add	a2,a2,a4
200089bc:	00b67463          	bgeu	a2,a1,200089c4 <__udivdi3+0x196>
200089c0:	00e67b63          	bgeu	a2,a4,200089d6 <__udivdi3+0x1a8>
200089c4:	16fd                	addi	a3,a3,-1 # ffff <HeapSize+0xf7ff>
200089c6:	0842                	slli	a6,a6,0x10
200089c8:	8e0d                	sub	a2,a2,a1
200089ca:	00d86833          	or	a6,a6,a3
200089ce:	b7b9                	j	2000891c <__udivdi3+0xee>
200089d0:	1879                	addi	a6,a6,-2
200089d2:	963a                	add	a2,a2,a4
200089d4:	b7f9                	j	200089a2 <__udivdi3+0x174>
200089d6:	16f9                	addi	a3,a3,-2
200089d8:	963a                	add	a2,a2,a4
200089da:	b7f5                	j	200089c6 <__udivdi3+0x198>
200089dc:	17f9                	addi	a5,a5,-2
200089de:	96ba                	add	a3,a3,a4
200089e0:	b7a5                	j	20008948 <__udivdi3+0x11a>
200089e2:	1679                	addi	a2,a2,-2
200089e4:	b5f5                	j	200088d0 <__udivdi3+0xa2>
200089e6:	12d5e463          	bltu	a1,a3,20008b0e <__udivdi3+0x2e0>
200089ea:	67c1                	lui	a5,0x10
200089ec:	02f6fe63          	bgeu	a3,a5,20008a28 <__udivdi3+0x1fa>
200089f0:	1006b713          	sltiu	a4,a3,256
200089f4:	00173713          	seqz	a4,a4
200089f8:	070e                	slli	a4,a4,0x3
200089fa:	2000c7b7          	lui	a5,0x2000c
200089fe:	00e6d833          	srl	a6,a3,a4
20008a02:	d4478793          	addi	a5,a5,-700 # 2000bd44 <__clz_tab>
20008a06:	97c2                	add	a5,a5,a6
20008a08:	0007c783          	lbu	a5,0(a5)
20008a0c:	02000893          	li	a7,32
20008a10:	97ba                	add	a5,a5,a4
20008a12:	03179263          	bne	a5,a7,20008a36 <__udivdi3+0x208>
20008a16:	00c537b3          	sltu	a5,a0,a2
20008a1a:	0017b793          	seqz	a5,a5
20008a1e:	00b6b6b3          	sltu	a3,a3,a1
20008a22:	8fd5                	or	a5,a5,a3
20008a24:	4801                	li	a6,0
20008a26:	b57d                	j	200088d4 <__udivdi3+0xa6>
20008a28:	010007b7          	lui	a5,0x1000
20008a2c:	4761                	li	a4,24
20008a2e:	fcf6f6e3          	bgeu	a3,a5,200089fa <__udivdi3+0x1cc>
20008a32:	4741                	li	a4,16
20008a34:	b7d9                	j	200089fa <__udivdi3+0x1cc>
20008a36:	40f888b3          	sub	a7,a7,a5
20008a3a:	00f65833          	srl	a6,a2,a5
20008a3e:	011696b3          	sll	a3,a3,a7
20008a42:	00d86833          	or	a6,a6,a3
20008a46:	00f5d733          	srl	a4,a1,a5
20008a4a:	01085e13          	srli	t3,a6,0x10
20008a4e:	00f557b3          	srl	a5,a0,a5
20008a52:	011595b3          	sll	a1,a1,a7
20008a56:	8ddd                	or	a1,a1,a5
20008a58:	03c757b3          	divu	a5,a4,t3
20008a5c:	08084333          	zext.h	t1,a6
20008a60:	01161633          	sll	a2,a2,a7
20008a64:	03c77733          	remu	a4,a4,t3
20008a68:	02f30eb3          	mul	t4,t1,a5
20008a6c:	01071693          	slli	a3,a4,0x10
20008a70:	0105d713          	srli	a4,a1,0x10
20008a74:	8f55                	or	a4,a4,a3
20008a76:	01d77863          	bgeu	a4,t4,20008a86 <__udivdi3+0x258>
20008a7a:	9742                	add	a4,a4,a6
20008a7c:	01d77463          	bgeu	a4,t4,20008a84 <__udivdi3+0x256>
20008a80:	09077163          	bgeu	a4,a6,20008b02 <__udivdi3+0x2d4>
20008a84:	17fd                	addi	a5,a5,-1 # ffffff <HeapSize+0xfff7ff>
20008a86:	41d70733          	sub	a4,a4,t4
20008a8a:	03c756b3          	divu	a3,a4,t3
20008a8e:	03c77733          	remu	a4,a4,t3
20008a92:	02d30333          	mul	t1,t1,a3
20008a96:	08e5c733          	pack	a4,a1,a4
20008a9a:	00677863          	bgeu	a4,t1,20008aaa <__udivdi3+0x27c>
20008a9e:	9742                	add	a4,a4,a6
20008aa0:	00677463          	bgeu	a4,t1,20008aa8 <__udivdi3+0x27a>
20008aa4:	07077263          	bgeu	a4,a6,20008b08 <__udivdi3+0x2da>
20008aa8:	16fd                	addi	a3,a3,-1
20008aaa:	07c2                	slli	a5,a5,0x10
20008aac:	8fd5                	or	a5,a5,a3
20008aae:	08064833          	zext.h	a6,a2
20008ab2:	0806c6b3          	zext.h	a3,a3
20008ab6:	8241                	srli	a2,a2,0x10
20008ab8:	0107d593          	srli	a1,a5,0x10
20008abc:	40670733          	sub	a4,a4,t1
20008ac0:	03068333          	mul	t1,a3,a6
20008ac4:	03058833          	mul	a6,a1,a6
20008ac8:	02c686b3          	mul	a3,a3,a2
20008acc:	02c585b3          	mul	a1,a1,a2
20008ad0:	96c2                	add	a3,a3,a6
20008ad2:	01035613          	srli	a2,t1,0x10
20008ad6:	96b2                	add	a3,a3,a2
20008ad8:	0106f463          	bgeu	a3,a6,20008ae0 <__udivdi3+0x2b2>
20008adc:	6641                	lui	a2,0x10
20008ade:	95b2                	add	a1,a1,a2
20008ae0:	0106d613          	srli	a2,a3,0x10
20008ae4:	962e                	add	a2,a2,a1
20008ae6:	00c76c63          	bltu	a4,a2,20008afe <__udivdi3+0x2d0>
20008aea:	06c2                	slli	a3,a3,0x10
20008aec:	08034333          	zext.h	t1,t1
20008af0:	01151533          	sll	a0,a0,a7
20008af4:	969a                	add	a3,a3,t1
20008af6:	f2d577e3          	bgeu	a0,a3,20008a24 <__udivdi3+0x1f6>
20008afa:	f2c715e3          	bne	a4,a2,20008a24 <__udivdi3+0x1f6>
20008afe:	17fd                	addi	a5,a5,-1
20008b00:	b715                	j	20008a24 <__udivdi3+0x1f6>
20008b02:	17f9                	addi	a5,a5,-2
20008b04:	9742                	add	a4,a4,a6
20008b06:	b741                	j	20008a86 <__udivdi3+0x258>
20008b08:	16f9                	addi	a3,a3,-2
20008b0a:	9742                	add	a4,a4,a6
20008b0c:	bf79                	j	20008aaa <__udivdi3+0x27c>
20008b0e:	4801                	li	a6,0
20008b10:	4781                	li	a5,0
20008b12:	b3c9                	j	200088d4 <__udivdi3+0xa6>

20008b14 <__umoddi3>:
20008b14:	88b2                	mv	a7,a2
20008b16:	87aa                	mv	a5,a0
20008b18:	882e                	mv	a6,a1
20008b1a:	1c069563          	bnez	a3,20008ce4 <__umoddi3+0x1d0>
20008b1e:	2000c737          	lui	a4,0x2000c
20008b22:	d4470713          	addi	a4,a4,-700 # 2000bd44 <__clz_tab>
20008b26:	0ac5fe63          	bgeu	a1,a2,20008be2 <__umoddi3+0xce>
20008b2a:	66c1                	lui	a3,0x10
20008b2c:	0ad67463          	bgeu	a2,a3,20008bd4 <__umoddi3+0xc0>
20008b30:	10063693          	sltiu	a3,a2,256
20008b34:	0016b693          	seqz	a3,a3
20008b38:	068e                	slli	a3,a3,0x3
20008b3a:	00d65333          	srl	t1,a2,a3
20008b3e:	971a                	add	a4,a4,t1
20008b40:	00074703          	lbu	a4,0(a4)
20008b44:	9736                	add	a4,a4,a3
20008b46:	02000693          	li	a3,32
20008b4a:	40e68333          	sub	t1,a3,a4
20008b4e:	00d70c63          	beq	a4,a3,20008b66 <__umoddi3+0x52>
20008b52:	00659833          	sll	a6,a1,t1
20008b56:	00e55733          	srl	a4,a0,a4
20008b5a:	006618b3          	sll	a7,a2,t1
20008b5e:	01076833          	or	a6,a4,a6
20008b62:	006517b3          	sll	a5,a0,t1
20008b66:	0108d513          	srli	a0,a7,0x10
20008b6a:	02a856b3          	divu	a3,a6,a0
20008b6e:	0808ce33          	zext.h	t3,a7
20008b72:	0107d713          	srli	a4,a5,0x10
20008b76:	02a87833          	remu	a6,a6,a0
20008b7a:	03c686b3          	mul	a3,a3,t3
20008b7e:	0842                	slli	a6,a6,0x10
20008b80:	01076733          	or	a4,a4,a6
20008b84:	00d77d63          	bgeu	a4,a3,20008b9e <__umoddi3+0x8a>
20008b88:	9746                	add	a4,a4,a7
20008b8a:	011735b3          	sltu	a1,a4,a7
20008b8e:	00d73633          	sltu	a2,a4,a3
20008b92:	0015b593          	seqz	a1,a1
20008b96:	8e6d                	and	a2,a2,a1
20008b98:	03160633          	mul	a2,a2,a7
20008b9c:	9732                	add	a4,a4,a2
20008b9e:	8f15                	sub	a4,a4,a3
20008ba0:	02a756b3          	divu	a3,a4,a0
20008ba4:	02a77733          	remu	a4,a4,a0
20008ba8:	03c686b3          	mul	a3,a3,t3
20008bac:	08e7c533          	pack	a0,a5,a4
20008bb0:	00d57d63          	bgeu	a0,a3,20008bca <__umoddi3+0xb6>
20008bb4:	9546                	add	a0,a0,a7
20008bb6:	01153733          	sltu	a4,a0,a7
20008bba:	00d537b3          	sltu	a5,a0,a3
20008bbe:	00173713          	seqz	a4,a4
20008bc2:	8ff9                	and	a5,a5,a4
20008bc4:	031787b3          	mul	a5,a5,a7
20008bc8:	953e                	add	a0,a0,a5
20008bca:	8d15                	sub	a0,a0,a3
20008bcc:	00655533          	srl	a0,a0,t1
20008bd0:	4581                	li	a1,0
20008bd2:	8082                	ret
20008bd4:	01000337          	lui	t1,0x1000
20008bd8:	46e1                	li	a3,24
20008bda:	f66670e3          	bgeu	a2,t1,20008b3a <__umoddi3+0x26>
20008bde:	46c1                	li	a3,16
20008be0:	bfa9                	j	20008b3a <__umoddi3+0x26>
20008be2:	4681                	li	a3,0
20008be4:	ca09                	beqz	a2,20008bf6 <__umoddi3+0xe2>
20008be6:	66c1                	lui	a3,0x10
20008be8:	06d67863          	bgeu	a2,a3,20008c58 <__umoddi3+0x144>
20008bec:	10063693          	sltiu	a3,a2,256
20008bf0:	0016b693          	seqz	a3,a3
20008bf4:	068e                	slli	a3,a3,0x3
20008bf6:	00d65833          	srl	a6,a2,a3
20008bfa:	9742                	add	a4,a4,a6
20008bfc:	00074703          	lbu	a4,0(a4)
20008c00:	9736                	add	a4,a4,a3
20008c02:	02000693          	li	a3,32
20008c06:	40e68333          	sub	t1,a3,a4
20008c0a:	04d71e63          	bne	a4,a3,20008c66 <__umoddi3+0x152>
20008c0e:	40c58733          	sub	a4,a1,a2
20008c12:	0108d593          	srli	a1,a7,0x10
20008c16:	02b75633          	divu	a2,a4,a1
20008c1a:	0808c833          	zext.h	a6,a7
20008c1e:	0107d693          	srli	a3,a5,0x10
20008c22:	02b77733          	remu	a4,a4,a1
20008c26:	03060633          	mul	a2,a2,a6
20008c2a:	0742                	slli	a4,a4,0x10
20008c2c:	8f55                	or	a4,a4,a3
20008c2e:	00c77d63          	bgeu	a4,a2,20008c48 <__umoddi3+0x134>
20008c32:	9746                	add	a4,a4,a7
20008c34:	01173533          	sltu	a0,a4,a7
20008c38:	00c736b3          	sltu	a3,a4,a2
20008c3c:	00153513          	seqz	a0,a0
20008c40:	8ee9                	and	a3,a3,a0
20008c42:	031686b3          	mul	a3,a3,a7
20008c46:	9736                	add	a4,a4,a3
20008c48:	8f11                	sub	a4,a4,a2
20008c4a:	02b756b3          	divu	a3,a4,a1
20008c4e:	02b77733          	remu	a4,a4,a1
20008c52:	030686b3          	mul	a3,a3,a6
20008c56:	bf99                	j	20008bac <__umoddi3+0x98>
20008c58:	01000837          	lui	a6,0x1000
20008c5c:	46e1                	li	a3,24
20008c5e:	f9067ce3          	bgeu	a2,a6,20008bf6 <__umoddi3+0xe2>
20008c62:	46c1                	li	a3,16
20008c64:	bf49                	j	20008bf6 <__umoddi3+0xe2>
20008c66:	006618b3          	sll	a7,a2,t1
20008c6a:	00e5d6b3          	srl	a3,a1,a4
20008c6e:	006517b3          	sll	a5,a0,t1
20008c72:	00e55733          	srl	a4,a0,a4
20008c76:	0108d513          	srli	a0,a7,0x10
20008c7a:	02a6d633          	divu	a2,a3,a0
20008c7e:	0808ce33          	zext.h	t3,a7
20008c82:	006595b3          	sll	a1,a1,t1
20008c86:	8dd9                	or	a1,a1,a4
20008c88:	0105d713          	srli	a4,a1,0x10
20008c8c:	02a6f6b3          	remu	a3,a3,a0
20008c90:	03c60633          	mul	a2,a2,t3
20008c94:	06c2                	slli	a3,a3,0x10
20008c96:	8f55                	or	a4,a4,a3
20008c98:	00c77e63          	bgeu	a4,a2,20008cb4 <__umoddi3+0x1a0>
20008c9c:	9746                	add	a4,a4,a7
20008c9e:	01173833          	sltu	a6,a4,a7
20008ca2:	00c736b3          	sltu	a3,a4,a2
20008ca6:	00183813          	seqz	a6,a6
20008caa:	0106f6b3          	and	a3,a3,a6
20008cae:	031686b3          	mul	a3,a3,a7
20008cb2:	9736                	add	a4,a4,a3
20008cb4:	8f11                	sub	a4,a4,a2
20008cb6:	02a756b3          	divu	a3,a4,a0
20008cba:	02a77733          	remu	a4,a4,a0
20008cbe:	03c686b3          	mul	a3,a3,t3
20008cc2:	08e5c733          	pack	a4,a1,a4
20008cc6:	00d77d63          	bgeu	a4,a3,20008ce0 <__umoddi3+0x1cc>
20008cca:	9746                	add	a4,a4,a7
20008ccc:	011735b3          	sltu	a1,a4,a7
20008cd0:	00d73633          	sltu	a2,a4,a3
20008cd4:	0015b593          	seqz	a1,a1
20008cd8:	8e6d                	and	a2,a2,a1
20008cda:	03160633          	mul	a2,a2,a7
20008cde:	9732                	add	a4,a4,a2
20008ce0:	8f15                	sub	a4,a4,a3
20008ce2:	bf05                	j	20008c12 <__umoddi3+0xfe>
20008ce4:	14d5ea63          	bltu	a1,a3,20008e38 <__umoddi3+0x324>
20008ce8:	6741                	lui	a4,0x10
20008cea:	04e6f563          	bgeu	a3,a4,20008d34 <__umoddi3+0x220>
20008cee:	1006b713          	sltiu	a4,a3,256
20008cf2:	00173713          	seqz	a4,a4
20008cf6:	070e                	slli	a4,a4,0x3
20008cf8:	2000c8b7          	lui	a7,0x2000c
20008cfc:	00e6d333          	srl	t1,a3,a4
20008d00:	d4488893          	addi	a7,a7,-700 # 2000bd44 <__clz_tab>
20008d04:	989a                	add	a7,a7,t1
20008d06:	0008c883          	lbu	a7,0(a7)
20008d0a:	02000313          	li	t1,32
20008d0e:	98ba                	add	a7,a7,a4
20008d10:	02689963          	bne	a7,t1,20008d42 <__umoddi3+0x22e>
20008d14:	00c57463          	bgeu	a0,a2,20008d1c <__umoddi3+0x208>
20008d18:	00b6fb63          	bgeu	a3,a1,20008d2e <__umoddi3+0x21a>
20008d1c:	40c50833          	sub	a6,a0,a2
20008d20:	87c2                	mv	a5,a6
20008d22:	40d586b3          	sub	a3,a1,a3
20008d26:	01053833          	sltu	a6,a0,a6
20008d2a:	41068833          	sub	a6,a3,a6
20008d2e:	853e                	mv	a0,a5
20008d30:	85c2                	mv	a1,a6
20008d32:	8082                	ret
20008d34:	010008b7          	lui	a7,0x1000
20008d38:	4761                	li	a4,24
20008d3a:	fb16ffe3          	bgeu	a3,a7,20008cf8 <__umoddi3+0x1e4>
20008d3e:	4741                	li	a4,16
20008d40:	bf65                	j	20008cf8 <__umoddi3+0x1e4>
20008d42:	41130333          	sub	t1,t1,a7
20008d46:	006696b3          	sll	a3,a3,t1
20008d4a:	01165e33          	srl	t3,a2,a7
20008d4e:	00de6e33          	or	t3,t3,a3
20008d52:	0115d7b3          	srl	a5,a1,a7
20008d56:	010e5e93          	srli	t4,t3,0x10
20008d5a:	03d7d6b3          	divu	a3,a5,t4
20008d5e:	006595b3          	sll	a1,a1,t1
20008d62:	01155833          	srl	a6,a0,a7
20008d66:	00b86833          	or	a6,a6,a1
20008d6a:	080e45b3          	zext.h	a1,t3
20008d6e:	00661733          	sll	a4,a2,t1
20008d72:	00651533          	sll	a0,a0,t1
20008d76:	03d7f7b3          	remu	a5,a5,t4
20008d7a:	02d58f33          	mul	t5,a1,a3
20008d7e:	01079613          	slli	a2,a5,0x10
20008d82:	01085793          	srli	a5,a6,0x10
20008d86:	8fd1                	or	a5,a5,a2
20008d88:	01e7f863          	bgeu	a5,t5,20008d98 <__umoddi3+0x284>
20008d8c:	97f2                	add	a5,a5,t3
20008d8e:	01e7f463          	bgeu	a5,t5,20008d96 <__umoddi3+0x282>
20008d92:	0bc7f463          	bgeu	a5,t3,20008e3a <__umoddi3+0x326>
20008d96:	16fd                	addi	a3,a3,-1 # ffff <HeapSize+0xf7ff>
20008d98:	41e787b3          	sub	a5,a5,t5
20008d9c:	03d7d633          	divu	a2,a5,t4
20008da0:	03d7f7b3          	remu	a5,a5,t4
20008da4:	02c585b3          	mul	a1,a1,a2
20008da8:	08f847b3          	pack	a5,a6,a5
20008dac:	00b7f863          	bgeu	a5,a1,20008dbc <__umoddi3+0x2a8>
20008db0:	97f2                	add	a5,a5,t3
20008db2:	00b7f463          	bgeu	a5,a1,20008dba <__umoddi3+0x2a6>
20008db6:	09c7f563          	bgeu	a5,t3,20008e40 <__umoddi3+0x32c>
20008dba:	167d                	addi	a2,a2,-1 # ffff <HeapSize+0xf7ff>
20008dbc:	06c2                	slli	a3,a3,0x10
20008dbe:	8ed1                	or	a3,a3,a2
20008dc0:	82c1                	srli	a3,a3,0x10
20008dc2:	08064633          	zext.h	a2,a2
20008dc6:	08074833          	zext.h	a6,a4
20008dca:	40b785b3          	sub	a1,a5,a1
20008dce:	01075793          	srli	a5,a4,0x10
20008dd2:	03060eb3          	mul	t4,a2,a6
20008dd6:	03068833          	mul	a6,a3,a6
20008dda:	02f60633          	mul	a2,a2,a5
20008dde:	02f686b3          	mul	a3,a3,a5
20008de2:	9642                	add	a2,a2,a6
20008de4:	010ed793          	srli	a5,t4,0x10
20008de8:	97b2                	add	a5,a5,a2
20008dea:	0107f463          	bgeu	a5,a6,20008df2 <__umoddi3+0x2de>
20008dee:	6641                	lui	a2,0x10
20008df0:	96b2                	add	a3,a3,a2
20008df2:	0107d613          	srli	a2,a5,0x10
20008df6:	080eceb3          	zext.h	t4,t4
20008dfa:	07c2                	slli	a5,a5,0x10
20008dfc:	96b2                	add	a3,a3,a2
20008dfe:	97f6                	add	a5,a5,t4
20008e00:	00d5e663          	bltu	a1,a3,20008e0c <__umoddi3+0x2f8>
20008e04:	00f57c63          	bgeu	a0,a5,20008e1c <__umoddi3+0x308>
20008e08:	00d59a63          	bne	a1,a3,20008e1c <__umoddi3+0x308>
20008e0c:	40e78733          	sub	a4,a5,a4
20008e10:	00e7b633          	sltu	a2,a5,a4
20008e14:	87ba                	mv	a5,a4
20008e16:	01c60733          	add	a4,a2,t3
20008e1a:	8e99                	sub	a3,a3,a4
20008e1c:	40f507b3          	sub	a5,a0,a5
20008e20:	00f53533          	sltu	a0,a0,a5
20008e24:	8d95                	sub	a1,a1,a3
20008e26:	8d89                	sub	a1,a1,a0
20008e28:	011598b3          	sll	a7,a1,a7
20008e2c:	0067d7b3          	srl	a5,a5,t1
20008e30:	00f8e533          	or	a0,a7,a5
20008e34:	0065d5b3          	srl	a1,a1,t1
20008e38:	8082                	ret
20008e3a:	16f9                	addi	a3,a3,-2
20008e3c:	97f2                	add	a5,a5,t3
20008e3e:	bfa9                	j	20008d98 <__umoddi3+0x284>
20008e40:	1679                	addi	a2,a2,-2 # fffe <HeapSize+0xf7fe>
20008e42:	97f2                	add	a5,a5,t3
20008e44:	bfa5                	j	20008dbc <__umoddi3+0x2a8>

20008e46 <__adddf3>:
20008e46:	00100837          	lui	a6,0x100
20008e4a:	187d                	addi	a6,a6,-1 # fffff <HeapSize+0xff7ff>
20008e4c:	00b877b3          	and	a5,a6,a1
20008e50:	0145d713          	srli	a4,a1,0x14
20008e54:	00d87833          	and	a6,a6,a3
20008e58:	0146de13          	srli	t3,a3,0x14
20008e5c:	01d55893          	srli	a7,a0,0x1d
20008e60:	080e                	slli	a6,a6,0x3
20008e62:	01d65313          	srli	t1,a2,0x1d
20008e66:	7ff77713          	andi	a4,a4,2047
20008e6a:	078e                	slli	a5,a5,0x3
20008e6c:	7ffe7e13          	andi	t3,t3,2047
20008e70:	81fd                	srli	a1,a1,0x1f
20008e72:	82fd                	srli	a3,a3,0x1f
20008e74:	00f8e7b3          	or	a5,a7,a5
20008e78:	01036333          	or	t1,t1,a6
20008e7c:	050e                	slli	a0,a0,0x3
20008e7e:	060e                	slli	a2,a2,0x3
20008e80:	41c70833          	sub	a6,a4,t3
20008e84:	7ff00893          	li	a7,2047
20008e88:	24d59263          	bne	a1,a3,200090cc <__adddf3+0x286>
20008e8c:	0d005863          	blez	a6,20008f5c <__adddf3+0x116>
20008e90:	020e1463          	bnez	t3,20008eb8 <__adddf3+0x72>
20008e94:	00c366b3          	or	a3,t1,a2
20008e98:	ce91                	beqz	a3,20008eb4 <__adddf3+0x6e>
20008e9a:	fff70813          	addi	a6,a4,-1 # ffff <HeapSize+0xf7ff>
20008e9e:	00081963          	bnez	a6,20008eb0 <__adddf3+0x6a>
20008ea2:	962a                	add	a2,a2,a0
20008ea4:	979a                	add	a5,a5,t1
20008ea6:	00a63533          	sltu	a0,a2,a0
20008eaa:	97aa                	add	a5,a5,a0
20008eac:	4705                	li	a4,1
20008eae:	a889                	j	20008f00 <__adddf3+0xba>
20008eb0:	01171863          	bne	a4,a7,20008ec0 <__adddf3+0x7a>
20008eb4:	862a                	mv	a2,a0
20008eb6:	aab5                	j	20009032 <__adddf3+0x1ec>
20008eb8:	ff170ee3          	beq	a4,a7,20008eb4 <__adddf3+0x6e>
20008ebc:	29731313          	bseti	t1,t1,0x17
20008ec0:	03800693          	li	a3,56
20008ec4:	0906c763          	blt	a3,a6,20008f52 <__adddf3+0x10c>
20008ec8:	46fd                	li	a3,31
20008eca:	02000e13          	li	t3,32
20008ece:	0506cd63          	blt	a3,a6,20008f28 <__adddf3+0xe2>
20008ed2:	410e0e33          	sub	t3,t3,a6
20008ed6:	01c316b3          	sll	a3,t1,t3
20008eda:	010658b3          	srl	a7,a2,a6
20008ede:	01c61e33          	sll	t3,a2,t3
20008ee2:	0116e6b3          	or	a3,a3,a7
20008ee6:	01c03e33          	snez	t3,t3
20008eea:	01c6e6b3          	or	a3,a3,t3
20008eee:	01035833          	srl	a6,t1,a6
20008ef2:	00a68633          	add	a2,a3,a0
20008ef6:	983e                	add	a6,a6,a5
20008ef8:	00d636b3          	sltu	a3,a2,a3
20008efc:	00d807b3          	add	a5,a6,a3
20008f00:	00879693          	slli	a3,a5,0x8
20008f04:	1806d863          	bgez	a3,20009094 <__adddf3+0x24e>
20008f08:	0705                	addi	a4,a4,1
20008f0a:	7ff00693          	li	a3,2047
20008f0e:	1ad70c63          	beq	a4,a3,200090c6 <__adddf3+0x280>
20008f12:	00165693          	srli	a3,a2,0x1
20008f16:	8a05                	andi	a2,a2,1
20008f18:	49779513          	bclri	a0,a5,0x17
20008f1c:	8e55                	or	a2,a2,a3
20008f1e:	07fe                	slli	a5,a5,0x1f
20008f20:	8e5d                	or	a2,a2,a5
20008f22:	00155793          	srli	a5,a0,0x1
20008f26:	a2bd                	j	20009094 <__adddf3+0x24e>
20008f28:	fe080693          	addi	a3,a6,-32
20008f2c:	00d356b3          	srl	a3,t1,a3
20008f30:	4881                	li	a7,0
20008f32:	01c80863          	beq	a6,t3,20008f42 <__adddf3+0xfc>
20008f36:	04000893          	li	a7,64
20008f3a:	410888b3          	sub	a7,a7,a6
20008f3e:	011318b3          	sll	a7,t1,a7
20008f42:	00c8e8b3          	or	a7,a7,a2
20008f46:	011038b3          	snez	a7,a7
20008f4a:	0116e6b3          	or	a3,a3,a7
20008f4e:	4801                	li	a6,0
20008f50:	b74d                	j	20008ef2 <__adddf3+0xac>
20008f52:	00c366b3          	or	a3,t1,a2
20008f56:	00d036b3          	snez	a3,a3
20008f5a:	bfd5                	j	20008f4e <__adddf3+0x108>
20008f5c:	0a080063          	beqz	a6,20008ffc <__adddf3+0x1b6>
20008f60:	40ee0833          	sub	a6,t3,a4
20008f64:	ef01                	bnez	a4,20008f7c <__adddf3+0x136>
20008f66:	00a7e733          	or	a4,a5,a0
20008f6a:	c711                	beqz	a4,20008f76 <__adddf3+0x130>
20008f6c:	fff80693          	addi	a3,a6,-1
20008f70:	da8d                	beqz	a3,20008ea2 <__adddf3+0x5c>
20008f72:	01181a63          	bne	a6,a7,20008f86 <__adddf3+0x140>
20008f76:	879a                	mv	a5,t1
20008f78:	8742                	mv	a4,a6
20008f7a:	a865                	j	20009032 <__adddf3+0x1ec>
20008f7c:	431e0e63          	beq	t3,a7,200093b8 <__adddf3+0x572>
20008f80:	29779793          	bseti	a5,a5,0x17
20008f84:	86c2                	mv	a3,a6
20008f86:	03800713          	li	a4,56
20008f8a:	06d74463          	blt	a4,a3,20008ff2 <__adddf3+0x1ac>
20008f8e:	477d                	li	a4,31
20008f90:	02000893          	li	a7,32
20008f94:	02d74a63          	blt	a4,a3,20008fc8 <__adddf3+0x182>
20008f98:	40d888b3          	sub	a7,a7,a3
20008f9c:	01179733          	sll	a4,a5,a7
20008fa0:	00d55833          	srl	a6,a0,a3
20008fa4:	011518b3          	sll	a7,a0,a7
20008fa8:	01076733          	or	a4,a4,a6
20008fac:	011038b3          	snez	a7,a7
20008fb0:	01176733          	or	a4,a4,a7
20008fb4:	00d7d6b3          	srl	a3,a5,a3
20008fb8:	963a                	add	a2,a2,a4
20008fba:	00e63733          	sltu	a4,a2,a4
20008fbe:	969a                	add	a3,a3,t1
20008fc0:	00e687b3          	add	a5,a3,a4
20008fc4:	8772                	mv	a4,t3
20008fc6:	bf2d                	j	20008f00 <__adddf3+0xba>
20008fc8:	fe068713          	addi	a4,a3,-32
20008fcc:	00e7d733          	srl	a4,a5,a4
20008fd0:	4801                	li	a6,0
20008fd2:	01168863          	beq	a3,a7,20008fe2 <__adddf3+0x19c>
20008fd6:	04000813          	li	a6,64
20008fda:	40d80833          	sub	a6,a6,a3
20008fde:	01079833          	sll	a6,a5,a6
20008fe2:	00a86833          	or	a6,a6,a0
20008fe6:	01003833          	snez	a6,a6
20008fea:	01076733          	or	a4,a4,a6
20008fee:	4681                	li	a3,0
20008ff0:	b7e1                	j	20008fb8 <__adddf3+0x172>
20008ff2:	00a7e733          	or	a4,a5,a0
20008ff6:	00e03733          	snez	a4,a4
20008ffa:	bfd5                	j	20008fee <__adddf3+0x1a8>
20008ffc:	00170693          	addi	a3,a4,1
20009000:	7fe6f813          	andi	a6,a3,2046
20009004:	06081b63          	bnez	a6,2000907a <__adddf3+0x234>
20009008:	00a7e6b3          	or	a3,a5,a0
2000900c:	ef39                	bnez	a4,2000906a <__adddf3+0x224>
2000900e:	38068b63          	beqz	a3,200093a4 <__adddf3+0x55e>
20009012:	00c36733          	or	a4,t1,a2
20009016:	38070963          	beqz	a4,200093a8 <__adddf3+0x562>
2000901a:	962a                	add	a2,a2,a0
2000901c:	979a                	add	a5,a5,t1
2000901e:	00a63533          	sltu	a0,a2,a0
20009022:	97aa                	add	a5,a5,a0
20009024:	00879713          	slli	a4,a5,0x8
20009028:	26075a63          	bgez	a4,2000929c <__adddf3+0x456>
2000902c:	49779793          	bclri	a5,a5,0x17
20009030:	4705                	li	a4,1
20009032:	820d                	srli	a2,a2,0x3
20009034:	01d79693          	slli	a3,a5,0x1d
20009038:	8ed1                	or	a3,a3,a2
2000903a:	7ff00613          	li	a2,2047
2000903e:	838d                	srli	a5,a5,0x3
20009040:	00c71963          	bne	a4,a2,20009052 <__adddf3+0x20c>
20009044:	8edd                	or	a3,a3,a5
20009046:	4781                	li	a5,0
20009048:	c689                	beqz	a3,20009052 <__adddf3+0x20c>
2000904a:	000807b7          	lui	a5,0x80
2000904e:	4681                	li	a3,0
20009050:	4581                	li	a1,0
20009052:	7ff77713          	andi	a4,a4,2047
20009056:	07b2                	slli	a5,a5,0xc
20009058:	83b1                	srli	a5,a5,0xc
2000905a:	0752                	slli	a4,a4,0x14
2000905c:	8f5d                	or	a4,a4,a5
2000905e:	05fe                	slli	a1,a1,0x1f
20009060:	00b767b3          	or	a5,a4,a1
20009064:	8536                	mv	a0,a3
20009066:	85be                	mv	a1,a5
20009068:	8082                	ret
2000906a:	34068163          	beqz	a3,200093ac <__adddf3+0x566>
2000906e:	00c36333          	or	t1,t1,a2
20009072:	24031763          	bnez	t1,200092c0 <__adddf3+0x47a>
20009076:	862a                	mv	a2,a0
20009078:	ae1d                	j	200093ae <__adddf3+0x568>
2000907a:	33168c63          	beq	a3,a7,200093b2 <__adddf3+0x56c>
2000907e:	962a                	add	a2,a2,a0
20009080:	00a63533          	sltu	a0,a2,a0
20009084:	979a                	add	a5,a5,t1
20009086:	97aa                	add	a5,a5,a0
20009088:	01f79713          	slli	a4,a5,0x1f
2000908c:	8205                	srli	a2,a2,0x1
2000908e:	8e59                	or	a2,a2,a4
20009090:	8385                	srli	a5,a5,0x1
20009092:	8736                	mv	a4,a3
20009094:	00767693          	andi	a3,a2,7
20009098:	ce81                	beqz	a3,200090b0 <__adddf3+0x26a>
2000909a:	00f67693          	andi	a3,a2,15
2000909e:	4511                	li	a0,4
200090a0:	00a68863          	beq	a3,a0,200090b0 <__adddf3+0x26a>
200090a4:	00a606b3          	add	a3,a2,a0
200090a8:	00c6b533          	sltu	a0,a3,a2
200090ac:	97aa                	add	a5,a5,a0
200090ae:	8636                	mv	a2,a3
200090b0:	00879693          	slli	a3,a5,0x8
200090b4:	f606dfe3          	bgez	a3,20009032 <__adddf3+0x1ec>
200090b8:	0705                	addi	a4,a4,1
200090ba:	7ff00693          	li	a3,2047
200090be:	49779793          	bclri	a5,a5,0x17
200090c2:	f6d718e3          	bne	a4,a3,20009032 <__adddf3+0x1ec>
200090c6:	4781                	li	a5,0
200090c8:	4601                	li	a2,0
200090ca:	b7a5                	j	20009032 <__adddf3+0x1ec>
200090cc:	0d005263          	blez	a6,20009190 <__adddf3+0x34a>
200090d0:	080e1163          	bnez	t3,20009152 <__adddf3+0x30c>
200090d4:	00c366b3          	or	a3,t1,a2
200090d8:	dc068ee3          	beqz	a3,20008eb4 <__adddf3+0x6e>
200090dc:	fff70813          	addi	a6,a4,-1
200090e0:	00081b63          	bnez	a6,200090f6 <__adddf3+0x2b0>
200090e4:	40c50633          	sub	a2,a0,a2
200090e8:	406787b3          	sub	a5,a5,t1
200090ec:	00c53533          	sltu	a0,a0,a2
200090f0:	8f89                	sub	a5,a5,a0
200090f2:	4705                	li	a4,1
200090f4:	a0a1                	j	2000913c <__adddf3+0x2f6>
200090f6:	db170fe3          	beq	a4,a7,20008eb4 <__adddf3+0x6e>
200090fa:	03800693          	li	a3,56
200090fe:	0906c463          	blt	a3,a6,20009186 <__adddf3+0x340>
20009102:	46fd                	li	a3,31
20009104:	02000e13          	li	t3,32
20009108:	0506ca63          	blt	a3,a6,2000915c <__adddf3+0x316>
2000910c:	410e0e33          	sub	t3,t3,a6
20009110:	01c316b3          	sll	a3,t1,t3
20009114:	010658b3          	srl	a7,a2,a6
20009118:	01c61e33          	sll	t3,a2,t3
2000911c:	0116e6b3          	or	a3,a3,a7
20009120:	01c03e33          	snez	t3,t3
20009124:	01c6e6b3          	or	a3,a3,t3
20009128:	01035833          	srl	a6,t1,a6
2000912c:	40d50633          	sub	a2,a0,a3
20009130:	41078833          	sub	a6,a5,a6
20009134:	00c53533          	sltu	a0,a0,a2
20009138:	40a807b3          	sub	a5,a6,a0
2000913c:	00879693          	slli	a3,a5,0x8
20009140:	f406dae3          	bgez	a3,20009094 <__adddf3+0x24e>
20009144:	008008b7          	lui	a7,0x800
20009148:	18fd                	addi	a7,a7,-1 # 7fffff <HeapSize+0x7ff7ff>
2000914a:	0117f8b3          	and	a7,a5,a7
2000914e:	8832                	mv	a6,a2
20009150:	a275                	j	200092fc <__adddf3+0x4b6>
20009152:	d71701e3          	beq	a4,a7,20008eb4 <__adddf3+0x6e>
20009156:	29731313          	bseti	t1,t1,0x17
2000915a:	b745                	j	200090fa <__adddf3+0x2b4>
2000915c:	fe080693          	addi	a3,a6,-32
20009160:	00d356b3          	srl	a3,t1,a3
20009164:	4881                	li	a7,0
20009166:	01c80863          	beq	a6,t3,20009176 <__adddf3+0x330>
2000916a:	04000893          	li	a7,64
2000916e:	410888b3          	sub	a7,a7,a6
20009172:	011318b3          	sll	a7,t1,a7
20009176:	00c8e8b3          	or	a7,a7,a2
2000917a:	011038b3          	snez	a7,a7
2000917e:	0116e6b3          	or	a3,a3,a7
20009182:	4801                	li	a6,0
20009184:	b765                	j	2000912c <__adddf3+0x2e6>
20009186:	00c366b3          	or	a3,t1,a2
2000918a:	00d036b3          	snez	a3,a3
2000918e:	bfd5                	j	20009182 <__adddf3+0x33c>
20009190:	0a080d63          	beqz	a6,2000924a <__adddf3+0x404>
20009194:	40ee0833          	sub	a6,t3,a4
20009198:	e70d                	bnez	a4,200091c2 <__adddf3+0x37c>
2000919a:	00a7e733          	or	a4,a5,a0
2000919e:	c305                	beqz	a4,200091be <__adddf3+0x378>
200091a0:	fff80713          	addi	a4,a6,-1
200091a4:	eb19                	bnez	a4,200091ba <__adddf3+0x374>
200091a6:	40a60533          	sub	a0,a2,a0
200091aa:	00a63733          	sltu	a4,a2,a0
200091ae:	40f307b3          	sub	a5,t1,a5
200091b2:	862a                	mv	a2,a0
200091b4:	8f99                	sub	a5,a5,a4
200091b6:	85b6                	mv	a1,a3
200091b8:	bf2d                	j	200090f2 <__adddf3+0x2ac>
200091ba:	01181963          	bne	a6,a7,200091cc <__adddf3+0x386>
200091be:	85b6                	mv	a1,a3
200091c0:	bb5d                	j	20008f76 <__adddf3+0x130>
200091c2:	1f1e0a63          	beq	t3,a7,200093b6 <__adddf3+0x570>
200091c6:	29779793          	bseti	a5,a5,0x17
200091ca:	8742                	mv	a4,a6
200091cc:	03800593          	li	a1,56
200091d0:	06e5c863          	blt	a1,a4,20009240 <__adddf3+0x3fa>
200091d4:	45fd                	li	a1,31
200091d6:	02000893          	li	a7,32
200091da:	02e5ce63          	blt	a1,a4,20009216 <__adddf3+0x3d0>
200091de:	40e888b3          	sub	a7,a7,a4
200091e2:	011795b3          	sll	a1,a5,a7
200091e6:	00e55833          	srl	a6,a0,a4
200091ea:	011518b3          	sll	a7,a0,a7
200091ee:	0105e5b3          	or	a1,a1,a6
200091f2:	011038b3          	snez	a7,a7
200091f6:	0115e5b3          	or	a1,a1,a7
200091fa:	00e7d733          	srl	a4,a5,a4
200091fe:	40b605b3          	sub	a1,a2,a1
20009202:	00b637b3          	sltu	a5,a2,a1
20009206:	40e30733          	sub	a4,t1,a4
2000920a:	862e                	mv	a2,a1
2000920c:	40f707b3          	sub	a5,a4,a5
20009210:	85b6                	mv	a1,a3
20009212:	8772                	mv	a4,t3
20009214:	b725                	j	2000913c <__adddf3+0x2f6>
20009216:	fe070593          	addi	a1,a4,-32
2000921a:	00b7d5b3          	srl	a1,a5,a1
2000921e:	4801                	li	a6,0
20009220:	01170863          	beq	a4,a7,20009230 <__adddf3+0x3ea>
20009224:	04000813          	li	a6,64
20009228:	40e80833          	sub	a6,a6,a4
2000922c:	01079833          	sll	a6,a5,a6
20009230:	00a86833          	or	a6,a6,a0
20009234:	01003833          	snez	a6,a6
20009238:	0105e5b3          	or	a1,a1,a6
2000923c:	4701                	li	a4,0
2000923e:	b7c1                	j	200091fe <__adddf3+0x3b8>
20009240:	00a7e5b3          	or	a1,a5,a0
20009244:	00b035b3          	snez	a1,a1
20009248:	bfd5                	j	2000923c <__adddf3+0x3f6>
2000924a:	00170813          	addi	a6,a4,1
2000924e:	7fe87813          	andi	a6,a6,2046
20009252:	06081f63          	bnez	a6,200092d0 <__adddf3+0x48a>
20009256:	00a7ee33          	or	t3,a5,a0
2000925a:	00c36833          	or	a6,t1,a2
2000925e:	ef21                	bnez	a4,200092b6 <__adddf3+0x470>
20009260:	000e1763          	bnez	t3,2000926e <__adddf3+0x428>
20009264:	879a                	mv	a5,t1
20009266:	02081a63          	bnez	a6,2000929a <__adddf3+0x454>
2000926a:	4581                	li	a1,0
2000926c:	bda9                	j	200090c6 <__adddf3+0x280>
2000926e:	12080d63          	beqz	a6,200093a8 <__adddf3+0x562>
20009272:	40c508b3          	sub	a7,a0,a2
20009276:	01153e33          	sltu	t3,a0,a7
2000927a:	40678833          	sub	a6,a5,t1
2000927e:	41c80833          	sub	a6,a6,t3
20009282:	00881e13          	slli	t3,a6,0x8
20009286:	020e5163          	bgez	t3,200092a8 <__adddf3+0x462>
2000928a:	40a60533          	sub	a0,a2,a0
2000928e:	00a63733          	sltu	a4,a2,a0
20009292:	40f307b3          	sub	a5,t1,a5
20009296:	862a                	mv	a2,a0
20009298:	8f99                	sub	a5,a5,a4
2000929a:	85b6                	mv	a1,a3
2000929c:	00f66733          	or	a4,a2,a5
200092a0:	e20703e3          	beqz	a4,200090c6 <__adddf3+0x280>
200092a4:	4701                	li	a4,0
200092a6:	b3fd                	j	20009094 <__adddf3+0x24e>
200092a8:	0108e633          	or	a2,a7,a6
200092ac:	10060963          	beqz	a2,200093be <__adddf3+0x578>
200092b0:	87c2                	mv	a5,a6
200092b2:	8646                	mv	a2,a7
200092b4:	b7e5                	j	2000929c <__adddf3+0x456>
200092b6:	000e1a63          	bnez	t3,200092ca <__adddf3+0x484>
200092ba:	85b6                	mv	a1,a3
200092bc:	0e081863          	bnez	a6,200093ac <__adddf3+0x566>
200092c0:	4581                	li	a1,0
200092c2:	004007b7          	lui	a5,0x400
200092c6:	4601                	li	a2,0
200092c8:	a0dd                	j	200093ae <__adddf3+0x568>
200092ca:	da0806e3          	beqz	a6,20009076 <__adddf3+0x230>
200092ce:	bfcd                	j	200092c0 <__adddf3+0x47a>
200092d0:	40c50e33          	sub	t3,a0,a2
200092d4:	01c53eb3          	sltu	t4,a0,t3
200092d8:	406788b3          	sub	a7,a5,t1
200092dc:	41d888b3          	sub	a7,a7,t4
200092e0:	00889e93          	slli	t4,a7,0x8
200092e4:	8872                	mv	a6,t3
200092e6:	060ed563          	bgez	t4,20009350 <__adddf3+0x50a>
200092ea:	40a60833          	sub	a6,a2,a0
200092ee:	40f308b3          	sub	a7,t1,a5
200092f2:	01063633          	sltu	a2,a2,a6
200092f6:	40c888b3          	sub	a7,a7,a2
200092fa:	85b6                	mv	a1,a3
200092fc:	06088163          	beqz	a7,2000935e <__adddf3+0x518>
20009300:	60089693          	clz	a3,a7
20009304:	16e1                	addi	a3,a3,-8
20009306:	02000793          	li	a5,32
2000930a:	8f95                	sub	a5,a5,a3
2000930c:	00d898b3          	sll	a7,a7,a3
20009310:	00f857b3          	srl	a5,a6,a5
20009314:	0117e7b3          	or	a5,a5,a7
20009318:	00d81633          	sll	a2,a6,a3
2000931c:	08e6c063          	blt	a3,a4,2000939c <__adddf3+0x556>
20009320:	8e99                	sub	a3,a3,a4
20009322:	00168813          	addi	a6,a3,1
20009326:	477d                	li	a4,31
20009328:	02000513          	li	a0,32
2000932c:	05074563          	blt	a4,a6,20009376 <__adddf3+0x530>
20009330:	41050533          	sub	a0,a0,a6
20009334:	00a79733          	sll	a4,a5,a0
20009338:	010656b3          	srl	a3,a2,a6
2000933c:	00a61533          	sll	a0,a2,a0
20009340:	8f55                	or	a4,a4,a3
20009342:	00a03533          	snez	a0,a0
20009346:	00a76633          	or	a2,a4,a0
2000934a:	0107d7b3          	srl	a5,a5,a6
2000934e:	b7b9                	j	2000929c <__adddf3+0x456>
20009350:	011e6633          	or	a2,t3,a7
20009354:	f645                	bnez	a2,200092fc <__adddf3+0x4b6>
20009356:	4581                	li	a1,0
20009358:	4781                	li	a5,0
2000935a:	4701                	li	a4,0
2000935c:	b9d9                	j	20009032 <__adddf3+0x1ec>
2000935e:	60081793          	clz	a5,a6
20009362:	01878693          	addi	a3,a5,24 # 400018 <HeapSize+0x3ff818>
20009366:	467d                	li	a2,31
20009368:	f8d65fe3          	bge	a2,a3,20009306 <__adddf3+0x4c0>
2000936c:	17e1                	addi	a5,a5,-8
2000936e:	00f817b3          	sll	a5,a6,a5
20009372:	4601                	li	a2,0
20009374:	b765                	j	2000931c <__adddf3+0x4d6>
20009376:	1685                	addi	a3,a3,-31
20009378:	00d7d6b3          	srl	a3,a5,a3
2000937c:	4701                	li	a4,0
2000937e:	00a80863          	beq	a6,a0,2000938e <__adddf3+0x548>
20009382:	04000713          	li	a4,64
20009386:	41070733          	sub	a4,a4,a6
2000938a:	00e79733          	sll	a4,a5,a4
2000938e:	8f51                	or	a4,a4,a2
20009390:	00e03733          	snez	a4,a4
20009394:	00e6e633          	or	a2,a3,a4
20009398:	4781                	li	a5,0
2000939a:	b709                	j	2000929c <__adddf3+0x456>
2000939c:	8f15                	sub	a4,a4,a3
2000939e:	49779793          	bclri	a5,a5,0x17
200093a2:	b9cd                	j	20009094 <__adddf3+0x24e>
200093a4:	879a                	mv	a5,t1
200093a6:	bddd                	j	2000929c <__adddf3+0x456>
200093a8:	862a                	mv	a2,a0
200093aa:	bdcd                	j	2000929c <__adddf3+0x456>
200093ac:	879a                	mv	a5,t1
200093ae:	8746                	mv	a4,a7
200093b0:	b149                	j	20009032 <__adddf3+0x1ec>
200093b2:	8736                	mv	a4,a3
200093b4:	bb09                	j	200090c6 <__adddf3+0x280>
200093b6:	85b6                	mv	a1,a3
200093b8:	879a                	mv	a5,t1
200093ba:	8772                	mv	a4,t3
200093bc:	b99d                	j	20009032 <__adddf3+0x1ec>
200093be:	4581                	li	a1,0
200093c0:	4781                	li	a5,0
200093c2:	b985                	j	20009032 <__adddf3+0x1ec>

200093c4 <__divdf3>:
200093c4:	1141                	addi	sp,sp,-16
200093c6:	0145d893          	srli	a7,a1,0x14
200093ca:	00c59793          	slli	a5,a1,0xc
200093ce:	c622                	sw	s0,12(sp)
200093d0:	c426                	sw	s1,8(sp)
200093d2:	7ff8f893          	andi	a7,a7,2047
200093d6:	83b1                	srli	a5,a5,0xc
200093d8:	81fd                	srli	a1,a1,0x1f
200093da:	06088e63          	beqz	a7,20009456 <__divdf3+0x92>
200093de:	7ff00713          	li	a4,2047
200093e2:	0ce88363          	beq	a7,a4,200094a8 <__divdf3+0xe4>
200093e6:	01d55813          	srli	a6,a0,0x1d
200093ea:	078e                	slli	a5,a5,0x3
200093ec:	00f86833          	or	a6,a6,a5
200093f0:	29781813          	bseti	a6,a6,0x17
200093f4:	00351f13          	slli	t5,a0,0x3
200093f8:	c0188893          	addi	a7,a7,-1023
200093fc:	4e01                	li	t3,0
200093fe:	0146d713          	srli	a4,a3,0x14
20009402:	00c69793          	slli	a5,a3,0xc
20009406:	7ff77713          	andi	a4,a4,2047
2000940a:	83b1                	srli	a5,a5,0xc
2000940c:	82fd                	srli	a3,a3,0x1f
2000940e:	cf45                	beqz	a4,200094c6 <__divdf3+0x102>
20009410:	7ff00513          	li	a0,2047
20009414:	10a70163          	beq	a4,a0,20009516 <__divdf3+0x152>
20009418:	01d65513          	srli	a0,a2,0x1d
2000941c:	078e                	slli	a5,a5,0x3
2000941e:	8fc9                	or	a5,a5,a0
20009420:	29779793          	bseti	a5,a5,0x17
20009424:	00361513          	slli	a0,a2,0x3
20009428:	c0170713          	addi	a4,a4,-1023
2000942c:	4301                	li	t1,0
2000942e:	40e888b3          	sub	a7,a7,a4
20009432:	002e1713          	slli	a4,t3,0x2
20009436:	00676733          	or	a4,a4,t1
2000943a:	177d                	addi	a4,a4,-1
2000943c:	4eb9                	li	t4,14
2000943e:	00d5c633          	xor	a2,a1,a3
20009442:	0eeee763          	bltu	t4,a4,20009530 <__divdf3+0x16c>
20009446:	2000ceb7          	lui	t4,0x2000c
2000944a:	ccce8e93          	addi	t4,t4,-820 # 2000bccc <init_jk+0xc>
2000944e:	21d74733          	sh2add	a4,a4,t4
20009452:	4318                	lw	a4,0(a4)
20009454:	8702                	jr	a4
20009456:	00a7e833          	or	a6,a5,a0
2000945a:	04080e63          	beqz	a6,200094b6 <__divdf3+0xf2>
2000945e:	cb85                	beqz	a5,2000948e <__divdf3+0xca>
20009460:	60079713          	clz	a4,a5
20009464:	ff570893          	addi	a7,a4,-11
20009468:	4875                	li	a6,29
2000946a:	ff870313          	addi	t1,a4,-8
2000946e:	41180833          	sub	a6,a6,a7
20009472:	006797b3          	sll	a5,a5,t1
20009476:	01055833          	srl	a6,a0,a6
2000947a:	00f86833          	or	a6,a6,a5
2000947e:	006517b3          	sll	a5,a0,t1
20009482:	c0d00893          	li	a7,-1011
20009486:	40e888b3          	sub	a7,a7,a4
2000948a:	8f3e                	mv	t5,a5
2000948c:	bf85                	j	200093fc <__divdf3+0x38>
2000948e:	60051813          	clz	a6,a0
20009492:	01580893          	addi	a7,a6,21
20009496:	4371                	li	t1,28
20009498:	02080713          	addi	a4,a6,32
2000949c:	fd1356e3          	bge	t1,a7,20009468 <__divdf3+0xa4>
200094a0:	1861                	addi	a6,a6,-8
200094a2:	01051833          	sll	a6,a0,a6
200094a6:	bff1                	j	20009482 <__divdf3+0xbe>
200094a8:	00a7e833          	or	a6,a5,a0
200094ac:	00081963          	bnez	a6,200094be <__divdf3+0xfa>
200094b0:	4f01                	li	t5,0
200094b2:	4e09                	li	t3,2
200094b4:	b7a9                	j	200093fe <__divdf3+0x3a>
200094b6:	4f01                	li	t5,0
200094b8:	4881                	li	a7,0
200094ba:	4e05                	li	t3,1
200094bc:	b789                	j	200093fe <__divdf3+0x3a>
200094be:	8f2a                	mv	t5,a0
200094c0:	883e                	mv	a6,a5
200094c2:	4e0d                	li	t3,3
200094c4:	bf2d                	j	200093fe <__divdf3+0x3a>
200094c6:	00c7e533          	or	a0,a5,a2
200094ca:	cd21                	beqz	a0,20009522 <__divdf3+0x15e>
200094cc:	cb85                	beqz	a5,200094fc <__divdf3+0x138>
200094ce:	60079513          	clz	a0,a5
200094d2:	ff550e93          	addi	t4,a0,-11
200094d6:	4375                	li	t1,29
200094d8:	ff850713          	addi	a4,a0,-8
200094dc:	41d30333          	sub	t1,t1,t4
200094e0:	00e797b3          	sll	a5,a5,a4
200094e4:	00665333          	srl	t1,a2,t1
200094e8:	00f36333          	or	t1,t1,a5
200094ec:	00e617b3          	sll	a5,a2,a4
200094f0:	c0d00713          	li	a4,-1011
200094f4:	8f09                	sub	a4,a4,a0
200094f6:	853e                	mv	a0,a5
200094f8:	879a                	mv	a5,t1
200094fa:	bf0d                	j	2000942c <__divdf3+0x68>
200094fc:	60061713          	clz	a4,a2
20009500:	01570e93          	addi	t4,a4,21
20009504:	4371                	li	t1,28
20009506:	02070513          	addi	a0,a4,32
2000950a:	fdd356e3          	bge	t1,t4,200094d6 <__divdf3+0x112>
2000950e:	1761                	addi	a4,a4,-8
20009510:	00e61333          	sll	t1,a2,a4
20009514:	bff1                	j	200094f0 <__divdf3+0x12c>
20009516:	00c7e533          	or	a0,a5,a2
2000951a:	e901                	bnez	a0,2000952a <__divdf3+0x166>
2000951c:	4781                	li	a5,0
2000951e:	4309                	li	t1,2
20009520:	b739                	j	2000942e <__divdf3+0x6a>
20009522:	4781                	li	a5,0
20009524:	4701                	li	a4,0
20009526:	4305                	li	t1,1
20009528:	b719                	j	2000942e <__divdf3+0x6a>
2000952a:	8532                	mv	a0,a2
2000952c:	430d                	li	t1,3
2000952e:	b701                	j	2000942e <__divdf3+0x6a>
20009530:	0107e663          	bltu	a5,a6,2000953c <__divdf3+0x178>
20009534:	24f81863          	bne	a6,a5,20009784 <__divdf3+0x3c0>
20009538:	24af6663          	bltu	t5,a0,20009784 <__divdf3+0x3c0>
2000953c:	01f81593          	slli	a1,a6,0x1f
20009540:	001f5713          	srli	a4,t5,0x1
20009544:	01ff1693          	slli	a3,t5,0x1f
20009548:	00185813          	srli	a6,a6,0x1
2000954c:	00e5ef33          	or	t5,a1,a4
20009550:	00879e13          	slli	t3,a5,0x8
20009554:	01855593          	srli	a1,a0,0x18
20009558:	01c5e5b3          	or	a1,a1,t3
2000955c:	010e5e13          	srli	t3,t3,0x10
20009560:	00851313          	slli	t1,a0,0x8
20009564:	03c85533          	divu	a0,a6,t3
20009568:	0805ceb3          	zext.h	t4,a1
2000956c:	010f5793          	srli	a5,t5,0x10
20009570:	03c87833          	remu	a6,a6,t3
20009574:	02ae8733          	mul	a4,t4,a0
20009578:	0842                	slli	a6,a6,0x10
2000957a:	0107e7b3          	or	a5,a5,a6
2000957e:	00e7f863          	bgeu	a5,a4,2000958e <__divdf3+0x1ca>
20009582:	97ae                	add	a5,a5,a1
20009584:	00b7e463          	bltu	a5,a1,2000958c <__divdf3+0x1c8>
20009588:	20e7e163          	bltu	a5,a4,2000978a <__divdf3+0x3c6>
2000958c:	157d                	addi	a0,a0,-1
2000958e:	8f99                	sub	a5,a5,a4
20009590:	03c7d833          	divu	a6,a5,t3
20009594:	03c7f733          	remu	a4,a5,t3
20009598:	030e8fb3          	mul	t6,t4,a6
2000959c:	08ef4733          	pack	a4,t5,a4
200095a0:	01f77863          	bgeu	a4,t6,200095b0 <__divdf3+0x1ec>
200095a4:	972e                	add	a4,a4,a1
200095a6:	01f77463          	bgeu	a4,t6,200095ae <__divdf3+0x1ea>
200095aa:	1eb77363          	bgeu	a4,a1,20009790 <__divdf3+0x3cc>
200095ae:	187d                	addi	a6,a6,-1
200095b0:	0542                	slli	a0,a0,0x10
200095b2:	010562b3          	or	t0,a0,a6
200095b6:	0102d793          	srli	a5,t0,0x10
200095ba:	01035813          	srli	a6,t1,0x10
200095be:	0802c533          	zext.h	a0,t0
200095c2:	08034f33          	zext.h	t5,t1
200095c6:	03e503b3          	mul	t2,a0,t5
200095ca:	41f70733          	sub	a4,a4,t6
200095ce:	03e78433          	mul	s0,a5,t5
200095d2:	02a80533          	mul	a0,a6,a0
200095d6:	00850fb3          	add	t6,a0,s0
200095da:	0103d513          	srli	a0,t2,0x10
200095de:	957e                	add	a0,a0,t6
200095e0:	030787b3          	mul	a5,a5,a6
200095e4:	00857463          	bgeu	a0,s0,200095ec <__divdf3+0x228>
200095e8:	6fc1                	lui	t6,0x10
200095ea:	97fe                	add	a5,a5,t6
200095ec:	01055f93          	srli	t6,a0,0x10
200095f0:	0803c3b3          	zext.h	t2,t2
200095f4:	0542                	slli	a0,a0,0x10
200095f6:	9fbe                	add	t6,t6,a5
200095f8:	951e                	add	a0,a0,t2
200095fa:	01f76663          	bltu	a4,t6,20009606 <__divdf3+0x242>
200095fe:	19f71c63          	bne	a4,t6,20009796 <__divdf3+0x3d2>
20009602:	18a6fa63          	bgeu	a3,a0,20009796 <__divdf3+0x3d2>
20009606:	006683b3          	add	t2,a3,t1
2000960a:	00d3b433          	sltu	s0,t2,a3
2000960e:	00b404b3          	add	s1,s0,a1
20009612:	9726                	add	a4,a4,s1
20009614:	fff28793          	addi	a5,t0,-1
20009618:	869e                	mv	a3,t2
2000961a:	00e5e563          	bltu	a1,a4,20009624 <__divdf3+0x260>
2000961e:	e00d                	bnez	s0,20009640 <__divdf3+0x27c>
20009620:	02e59063          	bne	a1,a4,20009640 <__divdf3+0x27c>
20009624:	01f76663          	bltu	a4,t6,20009630 <__divdf3+0x26c>
20009628:	00ef9c63          	bne	t6,a4,20009640 <__divdf3+0x27c>
2000962c:	00a3fa63          	bgeu	t2,a0,20009640 <__divdf3+0x27c>
20009630:	007306b3          	add	a3,t1,t2
20009634:	ffe28793          	addi	a5,t0,-2
20009638:	0066b2b3          	sltu	t0,a3,t1
2000963c:	92ae                	add	t0,t0,a1
2000963e:	9716                	add	a4,a4,t0
20009640:	40a682b3          	sub	t0,a3,a0
20009644:	41f70733          	sub	a4,a4,t6
20009648:	0056b6b3          	sltu	a3,a3,t0
2000964c:	8f15                	sub	a4,a4,a3
2000964e:	557d                	li	a0,-1
20009650:	0ce58c63          	beq	a1,a4,20009728 <__divdf3+0x364>
20009654:	03c75533          	divu	a0,a4,t3
20009658:	03c77733          	remu	a4,a4,t3
2000965c:	02ae8fb3          	mul	t6,t4,a0
20009660:	01071693          	slli	a3,a4,0x10
20009664:	0102d713          	srli	a4,t0,0x10
20009668:	8f55                	or	a4,a4,a3
2000966a:	01f77863          	bgeu	a4,t6,2000967a <__divdf3+0x2b6>
2000966e:	972e                	add	a4,a4,a1
20009670:	00b76463          	bltu	a4,a1,20009678 <__divdf3+0x2b4>
20009674:	13f76363          	bltu	a4,t6,2000979a <__divdf3+0x3d6>
20009678:	157d                	addi	a0,a0,-1
2000967a:	41f70733          	sub	a4,a4,t6
2000967e:	03c75fb3          	divu	t6,a4,t3
20009682:	03c77733          	remu	a4,a4,t3
20009686:	03fe8eb3          	mul	t4,t4,t6
2000968a:	08e2c733          	pack	a4,t0,a4
2000968e:	01d77863          	bgeu	a4,t4,2000969e <__divdf3+0x2da>
20009692:	972e                	add	a4,a4,a1
20009694:	01d77463          	bgeu	a4,t4,2000969c <__divdf3+0x2d8>
20009698:	10b77463          	bgeu	a4,a1,200097a0 <__divdf3+0x3dc>
2000969c:	1ffd                	addi	t6,t6,-1 # ffff <HeapSize+0xf7ff>
2000969e:	01051693          	slli	a3,a0,0x10
200096a2:	01f6e6b3          	or	a3,a3,t6
200096a6:	0806c533          	zext.h	a0,a3
200096aa:	41d70733          	sub	a4,a4,t4
200096ae:	0106de93          	srli	t4,a3,0x10
200096b2:	02af0fb3          	mul	t6,t5,a0
200096b6:	03ee8f33          	mul	t5,t4,t5
200096ba:	03d80eb3          	mul	t4,a6,t4
200096be:	02a80833          	mul	a6,a6,a0
200096c2:	01e80533          	add	a0,a6,t5
200096c6:	010fd813          	srli	a6,t6,0x10
200096ca:	982a                	add	a6,a6,a0
200096cc:	01e87463          	bgeu	a6,t5,200096d4 <__divdf3+0x310>
200096d0:	6541                	lui	a0,0x10
200096d2:	9eaa                	add	t4,t4,a0
200096d4:	01085e13          	srli	t3,a6,0x10
200096d8:	080fcfb3          	zext.h	t6,t6
200096dc:	0842                	slli	a6,a6,0x10
200096de:	9e76                	add	t3,t3,t4
200096e0:	987e                	add	a6,a6,t6
200096e2:	01c76663          	bltu	a4,t3,200096ee <__divdf3+0x32a>
200096e6:	03c71f63          	bne	a4,t3,20009724 <__divdf3+0x360>
200096ea:	0a080e63          	beqz	a6,200097a6 <__divdf3+0x3e2>
200096ee:	00e58eb3          	add	t4,a1,a4
200096f2:	fff68513          	addi	a0,a3,-1
200096f6:	8776                	mv	a4,t4
200096f8:	02bee163          	bltu	t4,a1,2000971a <__divdf3+0x356>
200096fc:	01cee663          	bltu	t4,t3,20009708 <__divdf3+0x344>
20009700:	03ce9163          	bne	t4,t3,20009722 <__divdf3+0x35e>
20009704:	01037b63          	bgeu	t1,a6,2000971a <__divdf3+0x356>
20009708:	ffe68513          	addi	a0,a3,-2
2000970c:	00131693          	slli	a3,t1,0x1
20009710:	0066b733          	sltu	a4,a3,t1
20009714:	972e                	add	a4,a4,a1
20009716:	9776                	add	a4,a4,t4
20009718:	8336                	mv	t1,a3
2000971a:	01031463          	bne	t1,a6,20009722 <__divdf3+0x35e>
2000971e:	01c70563          	beq	a4,t3,20009728 <__divdf3+0x364>
20009722:	86aa                	mv	a3,a0
20009724:	0016e513          	ori	a0,a3,1
20009728:	3ff88713          	addi	a4,a7,1023
2000972c:	0ae05263          	blez	a4,200097d0 <__divdf3+0x40c>
20009730:	00757693          	andi	a3,a0,7
20009734:	ce81                	beqz	a3,2000974c <__divdf3+0x388>
20009736:	00f57693          	andi	a3,a0,15
2000973a:	4591                	li	a1,4
2000973c:	00b68863          	beq	a3,a1,2000974c <__divdf3+0x388>
20009740:	00b506b3          	add	a3,a0,a1
20009744:	00a6b5b3          	sltu	a1,a3,a0
20009748:	97ae                	add	a5,a5,a1
2000974a:	8536                	mv	a0,a3
2000974c:	00779693          	slli	a3,a5,0x7
20009750:	0006d663          	bgez	a3,2000975c <__divdf3+0x398>
20009754:	49879793          	bclri	a5,a5,0x18
20009758:	40088713          	addi	a4,a7,1024
2000975c:	7fe00693          	li	a3,2046
20009760:	10e6c663          	blt	a3,a4,2000986c <__divdf3+0x4a8>
20009764:	01d79693          	slli	a3,a5,0x1d
20009768:	810d                	srli	a0,a0,0x3
2000976a:	8d55                	or	a0,a0,a3
2000976c:	838d                	srli	a5,a5,0x3
2000976e:	4432                	lw	s0,12(sp)
20009770:	07b2                	slli	a5,a5,0xc
20009772:	0752                	slli	a4,a4,0x14
20009774:	83b1                	srli	a5,a5,0xc
20009776:	8f5d                	or	a4,a4,a5
20009778:	067e                	slli	a2,a2,0x1f
2000977a:	44a2                	lw	s1,8(sp)
2000977c:	00c765b3          	or	a1,a4,a2
20009780:	0141                	addi	sp,sp,16
20009782:	8082                	ret
20009784:	18fd                	addi	a7,a7,-1
20009786:	4681                	li	a3,0
20009788:	b3e1                	j	20009550 <__divdf3+0x18c>
2000978a:	1579                	addi	a0,a0,-2 # fffe <HeapSize+0xf7fe>
2000978c:	97ae                	add	a5,a5,a1
2000978e:	b501                	j	2000958e <__divdf3+0x1ca>
20009790:	1879                	addi	a6,a6,-2
20009792:	972e                	add	a4,a4,a1
20009794:	bd31                	j	200095b0 <__divdf3+0x1ec>
20009796:	8796                	mv	a5,t0
20009798:	b565                	j	20009640 <__divdf3+0x27c>
2000979a:	1579                	addi	a0,a0,-2
2000979c:	972e                	add	a4,a4,a1
2000979e:	bdf1                	j	2000967a <__divdf3+0x2b6>
200097a0:	1ff9                	addi	t6,t6,-2
200097a2:	972e                	add	a4,a4,a1
200097a4:	bded                	j	2000969e <__divdf3+0x2da>
200097a6:	4301                	li	t1,0
200097a8:	8536                	mv	a0,a3
200097aa:	bf85                	j	2000971a <__divdf3+0x356>
200097ac:	8636                	mv	a2,a3
200097ae:	8e1a                	mv	t3,t1
200097b0:	4709                	li	a4,2
200097b2:	0aee0d63          	beq	t3,a4,2000986c <__divdf3+0x4a8>
200097b6:	470d                	li	a4,3
200097b8:	0aee0363          	beq	t3,a4,2000985e <__divdf3+0x49a>
200097bc:	4705                	li	a4,1
200097be:	f6ee15e3          	bne	t3,a4,20009728 <__divdf3+0x364>
200097c2:	4781                	li	a5,0
200097c4:	4501                	li	a0,0
200097c6:	a0ad                	j	20009830 <__divdf3+0x46c>
200097c8:	862e                	mv	a2,a1
200097ca:	87c2                	mv	a5,a6
200097cc:	857a                	mv	a0,t5
200097ce:	b7cd                	j	200097b0 <__divdf3+0x3ec>
200097d0:	c335                	beqz	a4,20009834 <__divdf3+0x470>
200097d2:	fc900693          	li	a3,-55
200097d6:	fed746e3          	blt	a4,a3,200097c2 <__divdf3+0x3fe>
200097da:	5689                	li	a3,-30
200097dc:	04d74e63          	blt	a4,a3,20009838 <__divdf3+0x474>
200097e0:	4685                	li	a3,1
200097e2:	8e99                	sub	a3,a3,a4
200097e4:	41e88893          	addi	a7,a7,1054
200097e8:	00d55733          	srl	a4,a0,a3
200097ec:	01151533          	sll	a0,a0,a7
200097f0:	00a03533          	snez	a0,a0
200097f4:	011798b3          	sll	a7,a5,a7
200097f8:	01156533          	or	a0,a0,a7
200097fc:	8f49                	or	a4,a4,a0
200097fe:	00d7d7b3          	srl	a5,a5,a3
20009802:	00777693          	andi	a3,a4,7
20009806:	ce81                	beqz	a3,2000981e <__divdf3+0x45a>
20009808:	00f77693          	andi	a3,a4,15
2000980c:	4591                	li	a1,4
2000980e:	00b68863          	beq	a3,a1,2000981e <__divdf3+0x45a>
20009812:	00b706b3          	add	a3,a4,a1
20009816:	00e6b5b3          	sltu	a1,a3,a4
2000981a:	97ae                	add	a5,a5,a1
2000981c:	8736                	mv	a4,a3
2000981e:	00879693          	slli	a3,a5,0x8
20009822:	0406ca63          	bltz	a3,20009876 <__divdf3+0x4b2>
20009826:	01d79513          	slli	a0,a5,0x1d
2000982a:	830d                	srli	a4,a4,0x3
2000982c:	8d59                	or	a0,a0,a4
2000982e:	838d                	srli	a5,a5,0x3
20009830:	4701                	li	a4,0
20009832:	bf35                	j	2000976e <__divdf3+0x3aa>
20009834:	4685                	li	a3,1
20009836:	b77d                	j	200097e4 <__divdf3+0x420>
20009838:	5805                	li	a6,-31
2000983a:	40e806b3          	sub	a3,a6,a4
2000983e:	00d7d6b3          	srl	a3,a5,a3
20009842:	4581                	li	a1,0
20009844:	01070663          	beq	a4,a6,20009850 <__divdf3+0x48c>
20009848:	43e88893          	addi	a7,a7,1086
2000984c:	011795b3          	sll	a1,a5,a7
20009850:	8dc9                	or	a1,a1,a0
20009852:	00b035b3          	snez	a1,a1
20009856:	00b6e733          	or	a4,a3,a1
2000985a:	4781                	li	a5,0
2000985c:	b75d                	j	20009802 <__divdf3+0x43e>
2000985e:	000807b7          	lui	a5,0x80
20009862:	4501                	li	a0,0
20009864:	7ff00713          	li	a4,2047
20009868:	4601                	li	a2,0
2000986a:	b711                	j	2000976e <__divdf3+0x3aa>
2000986c:	4781                	li	a5,0
2000986e:	4501                	li	a0,0
20009870:	7ff00713          	li	a4,2047
20009874:	bded                	j	2000976e <__divdf3+0x3aa>
20009876:	4781                	li	a5,0
20009878:	4501                	li	a0,0
2000987a:	4705                	li	a4,1
2000987c:	bdcd                	j	2000976e <__divdf3+0x3aa>

2000987e <__gedf2>:
2000987e:	0145d893          	srli	a7,a1,0x14
20009882:	00100737          	lui	a4,0x100
20009886:	177d                	addi	a4,a4,-1 # fffff <HeapSize+0xff7ff>
20009888:	0146d813          	srli	a6,a3,0x14
2000988c:	7ff8f893          	andi	a7,a7,2047
20009890:	7ff00793          	li	a5,2047
20009894:	00b77333          	and	t1,a4,a1
20009898:	7ff87813          	andi	a6,a6,2047
2000989c:	8f75                	and	a4,a4,a3
2000989e:	81fd                	srli	a1,a1,0x1f
200098a0:	82fd                	srli	a3,a3,0x1f
200098a2:	00f88d63          	beq	a7,a5,200098bc <__gedf2+0x3e>
200098a6:	7ff00e13          	li	t3,2047
200098aa:	87c2                	mv	a5,a6
200098ac:	01c81f63          	bne	a6,t3,200098ca <__gedf2+0x4c>
200098b0:	00c76e33          	or	t3,a4,a2
200098b4:	000e0b63          	beqz	t3,200098ca <__gedf2+0x4c>
200098b8:	57f9                	li	a5,-2
200098ba:	a031                	j	200098c6 <__gedf2+0x48>
200098bc:	00a36e33          	or	t3,t1,a0
200098c0:	57f9                	li	a5,-2
200098c2:	fe0e02e3          	beqz	t3,200098a6 <__gedf2+0x28>
200098c6:	853e                	mv	a0,a5
200098c8:	8082                	ret
200098ca:	4e01                	li	t3,0
200098cc:	00089663          	bnez	a7,200098d8 <__gedf2+0x5a>
200098d0:	00a36e33          	or	t3,t1,a0
200098d4:	001e3e13          	seqz	t3,t3
200098d8:	04081363          	bnez	a6,2000991e <__gedf2+0xa0>
200098dc:	00c76eb3          	or	t4,a4,a2
200098e0:	000e0863          	beqz	t3,200098f0 <__gedf2+0x72>
200098e4:	fe0e81e3          	beqz	t4,200098c6 <__gedf2+0x48>
200098e8:	00169793          	slli	a5,a3,0x1
200098ec:	17fd                	addi	a5,a5,-1 # 7ffff <HeapSize+0x7f7ff>
200098ee:	bfe1                	j	200098c6 <__gedf2+0x48>
200098f0:	020e9963          	bnez	t4,20009922 <__gedf2+0xa4>
200098f4:	40b005b3          	neg	a1,a1
200098f8:	0015e793          	ori	a5,a1,1
200098fc:	b7e9                	j	200098c6 <__gedf2+0x48>
200098fe:	ff08c5e3          	blt	a7,a6,200098e8 <__gedf2+0x6a>
20009902:	fe6769e3          	bltu	a4,t1,200098f4 <__gedf2+0x76>
20009906:	00a67463          	bgeu	a2,a0,2000990e <__gedf2+0x90>
2000990a:	fee305e3          	beq	t1,a4,200098f4 <__gedf2+0x76>
2000990e:	00c56563          	bltu	a0,a2,20009918 <__gedf2+0x9a>
20009912:	4781                	li	a5,0
20009914:	fae379e3          	bgeu	t1,a4,200098c6 <__gedf2+0x48>
20009918:	00159793          	slli	a5,a1,0x1
2000991c:	bfc1                	j	200098ec <__gedf2+0x6e>
2000991e:	fc0e15e3          	bnez	t3,200098e8 <__gedf2+0x6a>
20009922:	fcb699e3          	bne	a3,a1,200098f4 <__gedf2+0x76>
20009926:	fd185ce3          	bge	a6,a7,200098fe <__gedf2+0x80>
2000992a:	40d006b3          	neg	a3,a3
2000992e:	0016e793          	ori	a5,a3,1
20009932:	bf51                	j	200098c6 <__gedf2+0x48>

20009934 <__ledf2>:
20009934:	0145d893          	srli	a7,a1,0x14
20009938:	00100737          	lui	a4,0x100
2000993c:	177d                	addi	a4,a4,-1 # fffff <HeapSize+0xff7ff>
2000993e:	0146d813          	srli	a6,a3,0x14
20009942:	7ff8f893          	andi	a7,a7,2047
20009946:	7ff00793          	li	a5,2047
2000994a:	00b77333          	and	t1,a4,a1
2000994e:	7ff87813          	andi	a6,a6,2047
20009952:	8f75                	and	a4,a4,a3
20009954:	81fd                	srli	a1,a1,0x1f
20009956:	82fd                	srli	a3,a3,0x1f
20009958:	00f88d63          	beq	a7,a5,20009972 <__ledf2+0x3e>
2000995c:	7ff00e13          	li	t3,2047
20009960:	87c2                	mv	a5,a6
20009962:	01c81f63          	bne	a6,t3,20009980 <__ledf2+0x4c>
20009966:	00c76e33          	or	t3,a4,a2
2000996a:	000e0b63          	beqz	t3,20009980 <__ledf2+0x4c>
2000996e:	4789                	li	a5,2
20009970:	a031                	j	2000997c <__ledf2+0x48>
20009972:	00a36e33          	or	t3,t1,a0
20009976:	4789                	li	a5,2
20009978:	fe0e02e3          	beqz	t3,2000995c <__ledf2+0x28>
2000997c:	853e                	mv	a0,a5
2000997e:	8082                	ret
20009980:	4e01                	li	t3,0
20009982:	00089663          	bnez	a7,2000998e <__ledf2+0x5a>
20009986:	00a36e33          	or	t3,t1,a0
2000998a:	001e3e13          	seqz	t3,t3
2000998e:	04081363          	bnez	a6,200099d4 <__ledf2+0xa0>
20009992:	00c76eb3          	or	t4,a4,a2
20009996:	000e0863          	beqz	t3,200099a6 <__ledf2+0x72>
2000999a:	fe0e81e3          	beqz	t4,2000997c <__ledf2+0x48>
2000999e:	00169793          	slli	a5,a3,0x1
200099a2:	17fd                	addi	a5,a5,-1
200099a4:	bfe1                	j	2000997c <__ledf2+0x48>
200099a6:	020e9963          	bnez	t4,200099d8 <__ledf2+0xa4>
200099aa:	40b005b3          	neg	a1,a1
200099ae:	0015e793          	ori	a5,a1,1
200099b2:	b7e9                	j	2000997c <__ledf2+0x48>
200099b4:	ff08c5e3          	blt	a7,a6,2000999e <__ledf2+0x6a>
200099b8:	fe6769e3          	bltu	a4,t1,200099aa <__ledf2+0x76>
200099bc:	00a67463          	bgeu	a2,a0,200099c4 <__ledf2+0x90>
200099c0:	fee305e3          	beq	t1,a4,200099aa <__ledf2+0x76>
200099c4:	00c56563          	bltu	a0,a2,200099ce <__ledf2+0x9a>
200099c8:	4781                	li	a5,0
200099ca:	fae379e3          	bgeu	t1,a4,2000997c <__ledf2+0x48>
200099ce:	00159793          	slli	a5,a1,0x1
200099d2:	bfc1                	j	200099a2 <__ledf2+0x6e>
200099d4:	fc0e15e3          	bnez	t3,2000999e <__ledf2+0x6a>
200099d8:	fcb699e3          	bne	a3,a1,200099aa <__ledf2+0x76>
200099dc:	fd185ce3          	bge	a6,a7,200099b4 <__ledf2+0x80>
200099e0:	40d006b3          	neg	a3,a3
200099e4:	0016e793          	ori	a5,a3,1
200099e8:	bf51                	j	2000997c <__ledf2+0x48>

200099ea <__muldf3>:
200099ea:	1141                	addi	sp,sp,-16
200099ec:	0145d793          	srli	a5,a1,0x14
200099f0:	00c59813          	slli	a6,a1,0xc
200099f4:	c622                	sw	s0,12(sp)
200099f6:	c426                	sw	s1,8(sp)
200099f8:	c24a                	sw	s2,4(sp)
200099fa:	7ff7f793          	andi	a5,a5,2047
200099fe:	00c85813          	srli	a6,a6,0xc
20009a02:	81fd                	srli	a1,a1,0x1f
20009a04:	cbc9                	beqz	a5,20009a96 <__muldf3+0xac>
20009a06:	7ff00713          	li	a4,2047
20009a0a:	0ee78163          	beq	a5,a4,20009aec <__muldf3+0x102>
20009a0e:	01d55713          	srli	a4,a0,0x1d
20009a12:	080e                	slli	a6,a6,0x3
20009a14:	01076833          	or	a6,a4,a6
20009a18:	29781813          	bseti	a6,a6,0x17
20009a1c:	00351e93          	slli	t4,a0,0x3
20009a20:	c0178313          	addi	t1,a5,-1023
20009a24:	4f01                	li	t5,0
20009a26:	0146d513          	srli	a0,a3,0x14
20009a2a:	00c69793          	slli	a5,a3,0xc
20009a2e:	7ff57513          	andi	a0,a0,2047
20009a32:	83b1                	srli	a5,a5,0xc
20009a34:	82fd                	srli	a3,a3,0x1f
20009a36:	c979                	beqz	a0,20009b0c <__muldf3+0x122>
20009a38:	7ff00713          	li	a4,2047
20009a3c:	12e50163          	beq	a0,a4,20009b5e <__muldf3+0x174>
20009a40:	01d65713          	srli	a4,a2,0x1d
20009a44:	078e                	slli	a5,a5,0x3
20009a46:	8fd9                	or	a5,a5,a4
20009a48:	29779793          	bseti	a5,a5,0x17
20009a4c:	00361713          	slli	a4,a2,0x3
20009a50:	c0150513          	addi	a0,a0,-1023
20009a54:	4e01                	li	t3,0
20009a56:	00a30633          	add	a2,t1,a0
20009a5a:	002f1513          	slli	a0,t5,0x2
20009a5e:	01c56533          	or	a0,a0,t3
20009a62:	48a9                	li	a7,10
20009a64:	00160313          	addi	t1,a2,1
20009a68:	12a8c763          	blt	a7,a0,20009b96 <__muldf3+0x1ac>
20009a6c:	4889                	li	a7,2
20009a6e:	8db5                	xor	a1,a1,a3
20009a70:	10a8c463          	blt	a7,a0,20009b78 <__muldf3+0x18e>
20009a74:	157d                	addi	a0,a0,-1
20009a76:	4685                	li	a3,1
20009a78:	12a6e863          	bltu	a3,a0,20009ba8 <__muldf3+0x1be>
20009a7c:	8f72                	mv	t5,t3
20009a7e:	4689                	li	a3,2
20009a80:	36df0c63          	beq	t5,a3,20009df8 <__muldf3+0x40e>
20009a84:	468d                	li	a3,3
20009a86:	36df0563          	beq	t5,a3,20009df0 <__muldf3+0x406>
20009a8a:	4685                	li	a3,1
20009a8c:	26df1063          	bne	t5,a3,20009cec <__muldf3+0x302>
20009a90:	4781                	li	a5,0
20009a92:	4881                	li	a7,0
20009a94:	a615                	j	20009db8 <__muldf3+0x3ce>
20009a96:	00a86eb3          	or	t4,a6,a0
20009a9a:	060e8163          	beqz	t4,20009afc <__muldf3+0x112>
20009a9e:	02080a63          	beqz	a6,20009ad2 <__muldf3+0xe8>
20009aa2:	60081713          	clz	a4,a6
20009aa6:	ff570893          	addi	a7,a4,-11
20009aaa:	47f5                	li	a5,29
20009aac:	ff870313          	addi	t1,a4,-8
20009ab0:	411787b3          	sub	a5,a5,a7
20009ab4:	00681833          	sll	a6,a6,t1
20009ab8:	00f557b3          	srl	a5,a0,a5
20009abc:	0107e7b3          	or	a5,a5,a6
20009ac0:	00651833          	sll	a6,a0,t1
20009ac4:	c0d00313          	li	t1,-1011
20009ac8:	8ec2                	mv	t4,a6
20009aca:	40e30333          	sub	t1,t1,a4
20009ace:	883e                	mv	a6,a5
20009ad0:	bf91                	j	20009a24 <__muldf3+0x3a>
20009ad2:	60051793          	clz	a5,a0
20009ad6:	01578893          	addi	a7,a5,21
20009ada:	4371                	li	t1,28
20009adc:	02078713          	addi	a4,a5,32
20009ae0:	fd1355e3          	bge	t1,a7,20009aaa <__muldf3+0xc0>
20009ae4:	17e1                	addi	a5,a5,-8
20009ae6:	00f517b3          	sll	a5,a0,a5
20009aea:	bfe9                	j	20009ac4 <__muldf3+0xda>
20009aec:	00a86eb3          	or	t4,a6,a0
20009af0:	000e9a63          	bnez	t4,20009b04 <__muldf3+0x11a>
20009af4:	4801                	li	a6,0
20009af6:	833e                	mv	t1,a5
20009af8:	4f09                	li	t5,2
20009afa:	b735                	j	20009a26 <__muldf3+0x3c>
20009afc:	4801                	li	a6,0
20009afe:	4301                	li	t1,0
20009b00:	4f05                	li	t5,1
20009b02:	b715                	j	20009a26 <__muldf3+0x3c>
20009b04:	8eaa                	mv	t4,a0
20009b06:	833e                	mv	t1,a5
20009b08:	4f0d                	li	t5,3
20009b0a:	bf31                	j	20009a26 <__muldf3+0x3c>
20009b0c:	00c7e733          	or	a4,a5,a2
20009b10:	cf29                	beqz	a4,20009b6a <__muldf3+0x180>
20009b12:	cb8d                	beqz	a5,20009b44 <__muldf3+0x15a>
20009b14:	60079e13          	clz	t3,a5
20009b18:	ff5e0513          	addi	a0,t3,-11 # fffff5 <HeapSize+0xfff7f5>
20009b1c:	48f5                	li	a7,29
20009b1e:	ff8e0713          	addi	a4,t3,-8
20009b22:	40a888b3          	sub	a7,a7,a0
20009b26:	00e797b3          	sll	a5,a5,a4
20009b2a:	011658b3          	srl	a7,a2,a7
20009b2e:	00f8e8b3          	or	a7,a7,a5
20009b32:	00e617b3          	sll	a5,a2,a4
20009b36:	c0d00513          	li	a0,-1011
20009b3a:	873e                	mv	a4,a5
20009b3c:	41c50533          	sub	a0,a0,t3
20009b40:	87c6                	mv	a5,a7
20009b42:	bf09                	j	20009a54 <__muldf3+0x6a>
20009b44:	60061713          	clz	a4,a2
20009b48:	01570513          	addi	a0,a4,21
20009b4c:	48f1                	li	a7,28
20009b4e:	02070e13          	addi	t3,a4,32
20009b52:	fca8d5e3          	bge	a7,a0,20009b1c <__muldf3+0x132>
20009b56:	1761                	addi	a4,a4,-8
20009b58:	00e618b3          	sll	a7,a2,a4
20009b5c:	bfe9                	j	20009b36 <__muldf3+0x14c>
20009b5e:	00c7e733          	or	a4,a5,a2
20009b62:	eb01                	bnez	a4,20009b72 <__muldf3+0x188>
20009b64:	4781                	li	a5,0
20009b66:	4e09                	li	t3,2
20009b68:	b5fd                	j	20009a56 <__muldf3+0x6c>
20009b6a:	4781                	li	a5,0
20009b6c:	4501                	li	a0,0
20009b6e:	4e05                	li	t3,1
20009b70:	b5dd                	j	20009a56 <__muldf3+0x6c>
20009b72:	8732                	mv	a4,a2
20009b74:	4e0d                	li	t3,3
20009b76:	b5c5                	j	20009a56 <__muldf3+0x6c>
20009b78:	28a01533          	bset	a0,zero,a0
20009b7c:	53057893          	andi	a7,a0,1328
20009b80:	02089163          	bnez	a7,20009ba2 <__muldf3+0x1b8>
20009b84:	24057f13          	andi	t5,a0,576
20009b88:	240f1e63          	bnez	t5,20009de4 <__muldf3+0x3fa>
20009b8c:	08857513          	andi	a0,a0,136
20009b90:	cd01                	beqz	a0,20009ba8 <__muldf3+0x1be>
20009b92:	85b6                	mv	a1,a3
20009b94:	b5e5                	j	20009a7c <__muldf3+0x92>
20009b96:	463d                	li	a2,15
20009b98:	24c50c63          	beq	a0,a2,20009df0 <__muldf3+0x406>
20009b9c:	462d                	li	a2,11
20009b9e:	fec50ae3          	beq	a0,a2,20009b92 <__muldf3+0x1a8>
20009ba2:	87c2                	mv	a5,a6
20009ba4:	8776                	mv	a4,t4
20009ba6:	bde1                	j	20009a7e <__muldf3+0x94>
20009ba8:	010ede13          	srli	t3,t4,0x10
20009bac:	01075693          	srli	a3,a4,0x10
20009bb0:	080eceb3          	zext.h	t4,t4
20009bb4:	080743b3          	zext.h	t2,a4
20009bb8:	027e8733          	mul	a4,t4,t2
20009bbc:	027e0fb3          	mul	t6,t3,t2
20009bc0:	01075893          	srli	a7,a4,0x10
20009bc4:	03d68f33          	mul	t5,a3,t4
20009bc8:	9f7e                	add	t5,t5,t6
20009bca:	98fa                	add	a7,a7,t5
20009bcc:	02de0533          	mul	a0,t3,a3
20009bd0:	01f8f463          	bgeu	a7,t6,20009bd8 <__muldf3+0x1ee>
20009bd4:	6f41                	lui	t5,0x10
20009bd6:	957a                	add	a0,a0,t5
20009bd8:	08074733          	zext.h	a4,a4
20009bdc:	0108d413          	srli	s0,a7,0x10
20009be0:	08c2                	slli	a7,a7,0x10
20009be2:	0807cfb3          	zext.h	t6,a5
20009be6:	98ba                	add	a7,a7,a4
20009be8:	0107d713          	srli	a4,a5,0x10
20009bec:	03fe82b3          	mul	t0,t4,t6
20009bf0:	03fe07b3          	mul	a5,t3,t6
20009bf4:	0102df13          	srli	t5,t0,0x10
20009bf8:	03d70eb3          	mul	t4,a4,t4
20009bfc:	9ebe                	add	t4,t4,a5
20009bfe:	9f76                	add	t5,t5,t4
20009c00:	02ee0e33          	mul	t3,t3,a4
20009c04:	00ff7463          	bgeu	t5,a5,20009c0c <__muldf3+0x222>
20009c08:	67c1                	lui	a5,0x10
20009c0a:	9e3e                	add	t3,t3,a5
20009c0c:	080844b3          	zext.h	s1,a6
20009c10:	010f5e93          	srli	t4,t5,0x10
20009c14:	010f1793          	slli	a5,t5,0x10
20009c18:	01085f13          	srli	t5,a6,0x10
20009c1c:	0802c2b3          	zext.h	t0,t0
20009c20:	9796                	add	a5,a5,t0
20009c22:	02748933          	mul	s2,s1,t2
20009c26:	9ef2                	add	t4,t4,t3
20009c28:	943e                	add	s0,s0,a5
20009c2a:	027f03b3          	mul	t2,t5,t2
20009c2e:	01095293          	srli	t0,s2,0x10
20009c32:	03e68833          	mul	a6,a3,t5
20009c36:	029686b3          	mul	a3,a3,s1
20009c3a:	969e                	add	a3,a3,t2
20009c3c:	9696                	add	a3,a3,t0
20009c3e:	0076f463          	bgeu	a3,t2,20009c46 <__muldf3+0x25c>
20009c42:	6e41                	lui	t3,0x10
20009c44:	9872                	add	a6,a6,t3
20009c46:	03f482b3          	mul	t0,s1,t6
20009c4a:	0106de13          	srli	t3,a3,0x10
20009c4e:	9e42                	add	t3,t3,a6
20009c50:	01069813          	slli	a6,a3,0x10
20009c54:	08094933          	zext.h	s2,s2
20009c58:	984a                	add	a6,a6,s2
20009c5a:	03ff0fb3          	mul	t6,t5,t6
20009c5e:	0102d693          	srli	a3,t0,0x10
20009c62:	03e70f33          	mul	t5,a4,t5
20009c66:	02970733          	mul	a4,a4,s1
20009c6a:	977e                	add	a4,a4,t6
20009c6c:	96ba                	add	a3,a3,a4
20009c6e:	01f6f463          	bgeu	a3,t6,20009c76 <__muldf3+0x28c>
20009c72:	6741                	lui	a4,0x10
20009c74:	9f3a                	add	t5,t5,a4
20009c76:	01069713          	slli	a4,a3,0x10
20009c7a:	0802c2b3          	zext.h	t0,t0
20009c7e:	9522                	add	a0,a0,s0
20009c80:	9716                	add	a4,a4,t0
20009c82:	9eba                	add	t4,t4,a4
20009c84:	00f537b3          	sltu	a5,a0,a5
20009c88:	97f6                	add	a5,a5,t4
20009c8a:	982a                	add	a6,a6,a0
20009c8c:	9e3e                	add	t3,t3,a5
20009c8e:	00eeb733          	sltu	a4,t4,a4
20009c92:	00a83533          	sltu	a0,a6,a0
20009c96:	01d7beb3          	sltu	t4,a5,t4
20009c9a:	9572                	add	a0,a0,t3
20009c9c:	82c1                	srli	a3,a3,0x10
20009c9e:	01d76733          	or	a4,a4,t4
20009ca2:	9736                	add	a4,a4,a3
20009ca4:	00fe36b3          	sltu	a3,t3,a5
20009ca8:	01c53e33          	sltu	t3,a0,t3
20009cac:	01c6e6b3          	or	a3,a3,t3
20009cb0:	96ba                	add	a3,a3,a4
20009cb2:	00981713          	slli	a4,a6,0x9
20009cb6:	01176733          	or	a4,a4,a7
20009cba:	96fa                	add	a3,a3,t5
20009cbc:	00e03733          	snez	a4,a4
20009cc0:	01785813          	srli	a6,a6,0x17
20009cc4:	06a6                	slli	a3,a3,0x9
20009cc6:	01755793          	srli	a5,a0,0x17
20009cca:	01076733          	or	a4,a4,a6
20009cce:	0526                	slli	a0,a0,0x9
20009cd0:	8f49                	or	a4,a4,a0
20009cd2:	00769513          	slli	a0,a3,0x7
20009cd6:	8fd5                	or	a5,a5,a3
20009cd8:	06055c63          	bgez	a0,20009d50 <__muldf3+0x366>
20009cdc:	00175693          	srli	a3,a4,0x1
20009ce0:	8b05                	andi	a4,a4,1
20009ce2:	8ed9                	or	a3,a3,a4
20009ce4:	01f79713          	slli	a4,a5,0x1f
20009ce8:	8f55                	or	a4,a4,a3
20009cea:	8385                	srli	a5,a5,0x1
20009cec:	3ff30693          	addi	a3,t1,1023 # 10003ff <HeapSize+0xfffbff>
20009cf0:	06d05263          	blez	a3,20009d54 <__muldf3+0x36a>
20009cf4:	00777613          	andi	a2,a4,7
20009cf8:	ce01                	beqz	a2,20009d10 <__muldf3+0x326>
20009cfa:	00f77613          	andi	a2,a4,15
20009cfe:	4511                	li	a0,4
20009d00:	00a60863          	beq	a2,a0,20009d10 <__muldf3+0x326>
20009d04:	00a70633          	add	a2,a4,a0
20009d08:	00e63533          	sltu	a0,a2,a4
20009d0c:	97aa                	add	a5,a5,a0
20009d0e:	8732                	mv	a4,a2
20009d10:	00779613          	slli	a2,a5,0x7
20009d14:	00065663          	bgez	a2,20009d20 <__muldf3+0x336>
20009d18:	49879793          	bclri	a5,a5,0x18
20009d1c:	40030693          	addi	a3,t1,1024
20009d20:	7fe00613          	li	a2,2046
20009d24:	0cd64a63          	blt	a2,a3,20009df8 <__muldf3+0x40e>
20009d28:	01d79893          	slli	a7,a5,0x1d
20009d2c:	830d                	srli	a4,a4,0x3
20009d2e:	00e8e8b3          	or	a7,a7,a4
20009d32:	838d                	srli	a5,a5,0x3
20009d34:	07b2                	slli	a5,a5,0xc
20009d36:	4432                	lw	s0,12(sp)
20009d38:	83b1                	srli	a5,a5,0xc
20009d3a:	06d2                	slli	a3,a3,0x14
20009d3c:	05fe                	slli	a1,a1,0x1f
20009d3e:	8edd                	or	a3,a3,a5
20009d40:	00b6e7b3          	or	a5,a3,a1
20009d44:	44a2                	lw	s1,8(sp)
20009d46:	4912                	lw	s2,4(sp)
20009d48:	8546                	mv	a0,a7
20009d4a:	85be                	mv	a1,a5
20009d4c:	0141                	addi	sp,sp,16
20009d4e:	8082                	ret
20009d50:	8332                	mv	t1,a2
20009d52:	bf69                	j	20009cec <__muldf3+0x302>
20009d54:	c6a5                	beqz	a3,20009dbc <__muldf3+0x3d2>
20009d56:	fc900613          	li	a2,-55
20009d5a:	d2c6cbe3          	blt	a3,a2,20009a90 <__muldf3+0xa6>
20009d5e:	5609                	li	a2,-30
20009d60:	06c6c063          	blt	a3,a2,20009dc0 <__muldf3+0x3d6>
20009d64:	4605                	li	a2,1
20009d66:	40d606b3          	sub	a3,a2,a3
20009d6a:	41e30313          	addi	t1,t1,1054
20009d6e:	00d75633          	srl	a2,a4,a3
20009d72:	00671733          	sll	a4,a4,t1
20009d76:	00e03733          	snez	a4,a4
20009d7a:	00679333          	sll	t1,a5,t1
20009d7e:	00676733          	or	a4,a4,t1
20009d82:	8f51                	or	a4,a4,a2
20009d84:	00d7d7b3          	srl	a5,a5,a3
20009d88:	00777693          	andi	a3,a4,7
20009d8c:	ce81                	beqz	a3,20009da4 <__muldf3+0x3ba>
20009d8e:	00f77693          	andi	a3,a4,15
20009d92:	4611                	li	a2,4
20009d94:	00c68863          	beq	a3,a2,20009da4 <__muldf3+0x3ba>
20009d98:	00c706b3          	add	a3,a4,a2
20009d9c:	00e6b633          	sltu	a2,a3,a4
20009da0:	97b2                	add	a5,a5,a2
20009da2:	8736                	mv	a4,a3
20009da4:	00879693          	slli	a3,a5,0x8
20009da8:	0406cd63          	bltz	a3,20009e02 <__muldf3+0x418>
20009dac:	01d79893          	slli	a7,a5,0x1d
20009db0:	830d                	srli	a4,a4,0x3
20009db2:	00e8e8b3          	or	a7,a7,a4
20009db6:	838d                	srli	a5,a5,0x3
20009db8:	4681                	li	a3,0
20009dba:	bfad                	j	20009d34 <__muldf3+0x34a>
20009dbc:	4685                	li	a3,1
20009dbe:	b775                	j	20009d6a <__muldf3+0x380>
20009dc0:	5805                	li	a6,-31
20009dc2:	40d80633          	sub	a2,a6,a3
20009dc6:	00c7d633          	srl	a2,a5,a2
20009dca:	4501                	li	a0,0
20009dcc:	01068663          	beq	a3,a6,20009dd8 <__muldf3+0x3ee>
20009dd0:	43e30313          	addi	t1,t1,1086
20009dd4:	00679533          	sll	a0,a5,t1
20009dd8:	8f49                	or	a4,a4,a0
20009dda:	00e03733          	snez	a4,a4
20009dde:	8f51                	or	a4,a4,a2
20009de0:	4781                	li	a5,0
20009de2:	b75d                	j	20009d88 <__muldf3+0x39e>
20009de4:	000807b7          	lui	a5,0x80
20009de8:	7ff00693          	li	a3,2047
20009dec:	4581                	li	a1,0
20009dee:	b799                	j	20009d34 <__muldf3+0x34a>
20009df0:	000807b7          	lui	a5,0x80
20009df4:	4881                	li	a7,0
20009df6:	bfcd                	j	20009de8 <__muldf3+0x3fe>
20009df8:	4781                	li	a5,0
20009dfa:	4881                	li	a7,0
20009dfc:	7ff00693          	li	a3,2047
20009e00:	bf15                	j	20009d34 <__muldf3+0x34a>
20009e02:	4781                	li	a5,0
20009e04:	4881                	li	a7,0
20009e06:	4685                	li	a3,1
20009e08:	b735                	j	20009d34 <__muldf3+0x34a>

20009e0a <__subdf3>:
20009e0a:	00100837          	lui	a6,0x100
20009e0e:	187d                	addi	a6,a6,-1 # fffff <HeapSize+0xff7ff>
20009e10:	00b877b3          	and	a5,a6,a1
20009e14:	00d87833          	and	a6,a6,a3
20009e18:	0146de13          	srli	t3,a3,0x14
20009e1c:	080e                	slli	a6,a6,0x3
20009e1e:	01d65313          	srli	t1,a2,0x1d
20009e22:	0145d713          	srli	a4,a1,0x14
20009e26:	01d55893          	srli	a7,a0,0x1d
20009e2a:	078e                	slli	a5,a5,0x3
20009e2c:	01036333          	or	t1,t1,a6
20009e30:	7ffe7e13          	andi	t3,t3,2047
20009e34:	7ff00813          	li	a6,2047
20009e38:	7ff77713          	andi	a4,a4,2047
20009e3c:	81fd                	srli	a1,a1,0x1f
20009e3e:	00f8e7b3          	or	a5,a7,a5
20009e42:	050e                	slli	a0,a0,0x3
20009e44:	82fd                	srli	a3,a3,0x1f
20009e46:	060e                	slli	a2,a2,0x3
20009e48:	010e1663          	bne	t3,a6,20009e54 <__subdf3+0x4a>
20009e4c:	00c36833          	or	a6,t1,a2
20009e50:	00081463          	bnez	a6,20009e58 <__subdf3+0x4e>
20009e54:	0016c693          	xori	a3,a3,1
20009e58:	41c70833          	sub	a6,a4,t3
20009e5c:	7ff00893          	li	a7,2047
20009e60:	24b69263          	bne	a3,a1,2000a0a4 <__subdf3+0x29a>
20009e64:	0d005863          	blez	a6,20009f34 <__subdf3+0x12a>
20009e68:	020e1463          	bnez	t3,20009e90 <__subdf3+0x86>
20009e6c:	00c366b3          	or	a3,t1,a2
20009e70:	ce91                	beqz	a3,20009e8c <__subdf3+0x82>
20009e72:	fff70813          	addi	a6,a4,-1 # ffff <HeapSize+0xf7ff>
20009e76:	00081963          	bnez	a6,20009e88 <__subdf3+0x7e>
20009e7a:	962a                	add	a2,a2,a0
20009e7c:	979a                	add	a5,a5,t1
20009e7e:	00a63533          	sltu	a0,a2,a0
20009e82:	97aa                	add	a5,a5,a0
20009e84:	4705                	li	a4,1
20009e86:	a889                	j	20009ed8 <__subdf3+0xce>
20009e88:	01171863          	bne	a4,a7,20009e98 <__subdf3+0x8e>
20009e8c:	862a                	mv	a2,a0
20009e8e:	aab5                	j	2000a00a <__subdf3+0x200>
20009e90:	ff170ee3          	beq	a4,a7,20009e8c <__subdf3+0x82>
20009e94:	29731313          	bseti	t1,t1,0x17
20009e98:	03800693          	li	a3,56
20009e9c:	0906c763          	blt	a3,a6,20009f2a <__subdf3+0x120>
20009ea0:	46fd                	li	a3,31
20009ea2:	02000e13          	li	t3,32
20009ea6:	0506cd63          	blt	a3,a6,20009f00 <__subdf3+0xf6>
20009eaa:	410e0e33          	sub	t3,t3,a6
20009eae:	01c316b3          	sll	a3,t1,t3
20009eb2:	010658b3          	srl	a7,a2,a6
20009eb6:	01c61e33          	sll	t3,a2,t3
20009eba:	0116e6b3          	or	a3,a3,a7
20009ebe:	01c03e33          	snez	t3,t3
20009ec2:	01c6e6b3          	or	a3,a3,t3
20009ec6:	01035833          	srl	a6,t1,a6
20009eca:	00a68633          	add	a2,a3,a0
20009ece:	983e                	add	a6,a6,a5
20009ed0:	00d636b3          	sltu	a3,a2,a3
20009ed4:	00d807b3          	add	a5,a6,a3
20009ed8:	00879693          	slli	a3,a5,0x8
20009edc:	1806d863          	bgez	a3,2000a06c <__subdf3+0x262>
20009ee0:	0705                	addi	a4,a4,1
20009ee2:	7ff00693          	li	a3,2047
20009ee6:	1ad70c63          	beq	a4,a3,2000a09e <__subdf3+0x294>
20009eea:	00165693          	srli	a3,a2,0x1
20009eee:	8a05                	andi	a2,a2,1
20009ef0:	49779513          	bclri	a0,a5,0x17
20009ef4:	8e55                	or	a2,a2,a3
20009ef6:	07fe                	slli	a5,a5,0x1f
20009ef8:	8e5d                	or	a2,a2,a5
20009efa:	00155793          	srli	a5,a0,0x1
20009efe:	a2bd                	j	2000a06c <__subdf3+0x262>
20009f00:	fe080693          	addi	a3,a6,-32
20009f04:	00d356b3          	srl	a3,t1,a3
20009f08:	4881                	li	a7,0
20009f0a:	01c80863          	beq	a6,t3,20009f1a <__subdf3+0x110>
20009f0e:	04000893          	li	a7,64
20009f12:	410888b3          	sub	a7,a7,a6
20009f16:	011318b3          	sll	a7,t1,a7
20009f1a:	00c8e8b3          	or	a7,a7,a2
20009f1e:	011038b3          	snez	a7,a7
20009f22:	0116e6b3          	or	a3,a3,a7
20009f26:	4801                	li	a6,0
20009f28:	b74d                	j	20009eca <__subdf3+0xc0>
20009f2a:	00c366b3          	or	a3,t1,a2
20009f2e:	00d036b3          	snez	a3,a3
20009f32:	bfd5                	j	20009f26 <__subdf3+0x11c>
20009f34:	0a080063          	beqz	a6,20009fd4 <__subdf3+0x1ca>
20009f38:	40ee0833          	sub	a6,t3,a4
20009f3c:	ef01                	bnez	a4,20009f54 <__subdf3+0x14a>
20009f3e:	00a7e733          	or	a4,a5,a0
20009f42:	c711                	beqz	a4,20009f4e <__subdf3+0x144>
20009f44:	fff80693          	addi	a3,a6,-1
20009f48:	da8d                	beqz	a3,20009e7a <__subdf3+0x70>
20009f4a:	01181a63          	bne	a6,a7,20009f5e <__subdf3+0x154>
20009f4e:	879a                	mv	a5,t1
20009f50:	8742                	mv	a4,a6
20009f52:	a865                	j	2000a00a <__subdf3+0x200>
20009f54:	431e0e63          	beq	t3,a7,2000a390 <__subdf3+0x586>
20009f58:	29779793          	bseti	a5,a5,0x17
20009f5c:	86c2                	mv	a3,a6
20009f5e:	03800713          	li	a4,56
20009f62:	06d74463          	blt	a4,a3,20009fca <__subdf3+0x1c0>
20009f66:	477d                	li	a4,31
20009f68:	02000893          	li	a7,32
20009f6c:	02d74a63          	blt	a4,a3,20009fa0 <__subdf3+0x196>
20009f70:	40d888b3          	sub	a7,a7,a3
20009f74:	01179733          	sll	a4,a5,a7
20009f78:	00d55833          	srl	a6,a0,a3
20009f7c:	011518b3          	sll	a7,a0,a7
20009f80:	01076733          	or	a4,a4,a6
20009f84:	011038b3          	snez	a7,a7
20009f88:	01176733          	or	a4,a4,a7
20009f8c:	00d7d6b3          	srl	a3,a5,a3
20009f90:	963a                	add	a2,a2,a4
20009f92:	00e63733          	sltu	a4,a2,a4
20009f96:	969a                	add	a3,a3,t1
20009f98:	00e687b3          	add	a5,a3,a4
20009f9c:	8772                	mv	a4,t3
20009f9e:	bf2d                	j	20009ed8 <__subdf3+0xce>
20009fa0:	fe068713          	addi	a4,a3,-32
20009fa4:	00e7d733          	srl	a4,a5,a4
20009fa8:	4801                	li	a6,0
20009faa:	01168863          	beq	a3,a7,20009fba <__subdf3+0x1b0>
20009fae:	04000813          	li	a6,64
20009fb2:	40d80833          	sub	a6,a6,a3
20009fb6:	01079833          	sll	a6,a5,a6
20009fba:	00a86833          	or	a6,a6,a0
20009fbe:	01003833          	snez	a6,a6
20009fc2:	01076733          	or	a4,a4,a6
20009fc6:	4681                	li	a3,0
20009fc8:	b7e1                	j	20009f90 <__subdf3+0x186>
20009fca:	00a7e733          	or	a4,a5,a0
20009fce:	00e03733          	snez	a4,a4
20009fd2:	bfd5                	j	20009fc6 <__subdf3+0x1bc>
20009fd4:	00170693          	addi	a3,a4,1
20009fd8:	7fe6f813          	andi	a6,a3,2046
20009fdc:	06081b63          	bnez	a6,2000a052 <__subdf3+0x248>
20009fe0:	00a7e6b3          	or	a3,a5,a0
20009fe4:	ef39                	bnez	a4,2000a042 <__subdf3+0x238>
20009fe6:	38068b63          	beqz	a3,2000a37c <__subdf3+0x572>
20009fea:	00c36733          	or	a4,t1,a2
20009fee:	38070963          	beqz	a4,2000a380 <__subdf3+0x576>
20009ff2:	962a                	add	a2,a2,a0
20009ff4:	979a                	add	a5,a5,t1
20009ff6:	00a63533          	sltu	a0,a2,a0
20009ffa:	97aa                	add	a5,a5,a0
20009ffc:	00879713          	slli	a4,a5,0x8
2000a000:	26075a63          	bgez	a4,2000a274 <__subdf3+0x46a>
2000a004:	49779793          	bclri	a5,a5,0x17
2000a008:	4705                	li	a4,1
2000a00a:	820d                	srli	a2,a2,0x3
2000a00c:	01d79693          	slli	a3,a5,0x1d
2000a010:	8ed1                	or	a3,a3,a2
2000a012:	7ff00613          	li	a2,2047
2000a016:	838d                	srli	a5,a5,0x3
2000a018:	00c71963          	bne	a4,a2,2000a02a <__subdf3+0x220>
2000a01c:	8edd                	or	a3,a3,a5
2000a01e:	4781                	li	a5,0
2000a020:	c689                	beqz	a3,2000a02a <__subdf3+0x220>
2000a022:	000807b7          	lui	a5,0x80
2000a026:	4681                	li	a3,0
2000a028:	4581                	li	a1,0
2000a02a:	7ff77713          	andi	a4,a4,2047
2000a02e:	07b2                	slli	a5,a5,0xc
2000a030:	83b1                	srli	a5,a5,0xc
2000a032:	0752                	slli	a4,a4,0x14
2000a034:	8f5d                	or	a4,a4,a5
2000a036:	05fe                	slli	a1,a1,0x1f
2000a038:	00b767b3          	or	a5,a4,a1
2000a03c:	8536                	mv	a0,a3
2000a03e:	85be                	mv	a1,a5
2000a040:	8082                	ret
2000a042:	34068163          	beqz	a3,2000a384 <__subdf3+0x57a>
2000a046:	00c36333          	or	t1,t1,a2
2000a04a:	24031763          	bnez	t1,2000a298 <__subdf3+0x48e>
2000a04e:	862a                	mv	a2,a0
2000a050:	ae1d                	j	2000a386 <__subdf3+0x57c>
2000a052:	33168c63          	beq	a3,a7,2000a38a <__subdf3+0x580>
2000a056:	962a                	add	a2,a2,a0
2000a058:	00a63533          	sltu	a0,a2,a0
2000a05c:	979a                	add	a5,a5,t1
2000a05e:	97aa                	add	a5,a5,a0
2000a060:	01f79713          	slli	a4,a5,0x1f
2000a064:	8205                	srli	a2,a2,0x1
2000a066:	8e59                	or	a2,a2,a4
2000a068:	8385                	srli	a5,a5,0x1
2000a06a:	8736                	mv	a4,a3
2000a06c:	00767693          	andi	a3,a2,7
2000a070:	ce81                	beqz	a3,2000a088 <__subdf3+0x27e>
2000a072:	00f67693          	andi	a3,a2,15
2000a076:	4511                	li	a0,4
2000a078:	00a68863          	beq	a3,a0,2000a088 <__subdf3+0x27e>
2000a07c:	00a606b3          	add	a3,a2,a0
2000a080:	00c6b533          	sltu	a0,a3,a2
2000a084:	97aa                	add	a5,a5,a0
2000a086:	8636                	mv	a2,a3
2000a088:	00879693          	slli	a3,a5,0x8
2000a08c:	f606dfe3          	bgez	a3,2000a00a <__subdf3+0x200>
2000a090:	0705                	addi	a4,a4,1
2000a092:	7ff00693          	li	a3,2047
2000a096:	49779793          	bclri	a5,a5,0x17
2000a09a:	f6d718e3          	bne	a4,a3,2000a00a <__subdf3+0x200>
2000a09e:	4781                	li	a5,0
2000a0a0:	4601                	li	a2,0
2000a0a2:	b7a5                	j	2000a00a <__subdf3+0x200>
2000a0a4:	0d005263          	blez	a6,2000a168 <__subdf3+0x35e>
2000a0a8:	080e1163          	bnez	t3,2000a12a <__subdf3+0x320>
2000a0ac:	00c366b3          	or	a3,t1,a2
2000a0b0:	dc068ee3          	beqz	a3,20009e8c <__subdf3+0x82>
2000a0b4:	fff70813          	addi	a6,a4,-1
2000a0b8:	00081b63          	bnez	a6,2000a0ce <__subdf3+0x2c4>
2000a0bc:	40c50633          	sub	a2,a0,a2
2000a0c0:	406787b3          	sub	a5,a5,t1
2000a0c4:	00c53533          	sltu	a0,a0,a2
2000a0c8:	8f89                	sub	a5,a5,a0
2000a0ca:	4705                	li	a4,1
2000a0cc:	a0a1                	j	2000a114 <__subdf3+0x30a>
2000a0ce:	db170fe3          	beq	a4,a7,20009e8c <__subdf3+0x82>
2000a0d2:	03800693          	li	a3,56
2000a0d6:	0906c463          	blt	a3,a6,2000a15e <__subdf3+0x354>
2000a0da:	46fd                	li	a3,31
2000a0dc:	02000e13          	li	t3,32
2000a0e0:	0506ca63          	blt	a3,a6,2000a134 <__subdf3+0x32a>
2000a0e4:	410e0e33          	sub	t3,t3,a6
2000a0e8:	01c316b3          	sll	a3,t1,t3
2000a0ec:	010658b3          	srl	a7,a2,a6
2000a0f0:	01c61e33          	sll	t3,a2,t3
2000a0f4:	0116e6b3          	or	a3,a3,a7
2000a0f8:	01c03e33          	snez	t3,t3
2000a0fc:	01c6e6b3          	or	a3,a3,t3
2000a100:	01035833          	srl	a6,t1,a6
2000a104:	40d50633          	sub	a2,a0,a3
2000a108:	41078833          	sub	a6,a5,a6
2000a10c:	00c53533          	sltu	a0,a0,a2
2000a110:	40a807b3          	sub	a5,a6,a0
2000a114:	00879693          	slli	a3,a5,0x8
2000a118:	f406dae3          	bgez	a3,2000a06c <__subdf3+0x262>
2000a11c:	008008b7          	lui	a7,0x800
2000a120:	18fd                	addi	a7,a7,-1 # 7fffff <HeapSize+0x7ff7ff>
2000a122:	0117f8b3          	and	a7,a5,a7
2000a126:	8832                	mv	a6,a2
2000a128:	a275                	j	2000a2d4 <__subdf3+0x4ca>
2000a12a:	d71701e3          	beq	a4,a7,20009e8c <__subdf3+0x82>
2000a12e:	29731313          	bseti	t1,t1,0x17
2000a132:	b745                	j	2000a0d2 <__subdf3+0x2c8>
2000a134:	fe080693          	addi	a3,a6,-32
2000a138:	00d356b3          	srl	a3,t1,a3
2000a13c:	4881                	li	a7,0
2000a13e:	01c80863          	beq	a6,t3,2000a14e <__subdf3+0x344>
2000a142:	04000893          	li	a7,64
2000a146:	410888b3          	sub	a7,a7,a6
2000a14a:	011318b3          	sll	a7,t1,a7
2000a14e:	00c8e8b3          	or	a7,a7,a2
2000a152:	011038b3          	snez	a7,a7
2000a156:	0116e6b3          	or	a3,a3,a7
2000a15a:	4801                	li	a6,0
2000a15c:	b765                	j	2000a104 <__subdf3+0x2fa>
2000a15e:	00c366b3          	or	a3,t1,a2
2000a162:	00d036b3          	snez	a3,a3
2000a166:	bfd5                	j	2000a15a <__subdf3+0x350>
2000a168:	0a080d63          	beqz	a6,2000a222 <__subdf3+0x418>
2000a16c:	40ee0833          	sub	a6,t3,a4
2000a170:	e70d                	bnez	a4,2000a19a <__subdf3+0x390>
2000a172:	00a7e733          	or	a4,a5,a0
2000a176:	c305                	beqz	a4,2000a196 <__subdf3+0x38c>
2000a178:	fff80713          	addi	a4,a6,-1
2000a17c:	eb19                	bnez	a4,2000a192 <__subdf3+0x388>
2000a17e:	40a60533          	sub	a0,a2,a0
2000a182:	00a63733          	sltu	a4,a2,a0
2000a186:	40f307b3          	sub	a5,t1,a5
2000a18a:	862a                	mv	a2,a0
2000a18c:	8f99                	sub	a5,a5,a4
2000a18e:	85b6                	mv	a1,a3
2000a190:	bf2d                	j	2000a0ca <__subdf3+0x2c0>
2000a192:	01181963          	bne	a6,a7,2000a1a4 <__subdf3+0x39a>
2000a196:	85b6                	mv	a1,a3
2000a198:	bb5d                	j	20009f4e <__subdf3+0x144>
2000a19a:	1f1e0a63          	beq	t3,a7,2000a38e <__subdf3+0x584>
2000a19e:	29779793          	bseti	a5,a5,0x17
2000a1a2:	8742                	mv	a4,a6
2000a1a4:	03800593          	li	a1,56
2000a1a8:	06e5c863          	blt	a1,a4,2000a218 <__subdf3+0x40e>
2000a1ac:	45fd                	li	a1,31
2000a1ae:	02000893          	li	a7,32
2000a1b2:	02e5ce63          	blt	a1,a4,2000a1ee <__subdf3+0x3e4>
2000a1b6:	40e888b3          	sub	a7,a7,a4
2000a1ba:	011795b3          	sll	a1,a5,a7
2000a1be:	00e55833          	srl	a6,a0,a4
2000a1c2:	011518b3          	sll	a7,a0,a7
2000a1c6:	0105e5b3          	or	a1,a1,a6
2000a1ca:	011038b3          	snez	a7,a7
2000a1ce:	0115e5b3          	or	a1,a1,a7
2000a1d2:	00e7d733          	srl	a4,a5,a4
2000a1d6:	40b605b3          	sub	a1,a2,a1
2000a1da:	00b637b3          	sltu	a5,a2,a1
2000a1de:	40e30733          	sub	a4,t1,a4
2000a1e2:	862e                	mv	a2,a1
2000a1e4:	40f707b3          	sub	a5,a4,a5
2000a1e8:	85b6                	mv	a1,a3
2000a1ea:	8772                	mv	a4,t3
2000a1ec:	b725                	j	2000a114 <__subdf3+0x30a>
2000a1ee:	fe070593          	addi	a1,a4,-32
2000a1f2:	00b7d5b3          	srl	a1,a5,a1
2000a1f6:	4801                	li	a6,0
2000a1f8:	01170863          	beq	a4,a7,2000a208 <__subdf3+0x3fe>
2000a1fc:	04000813          	li	a6,64
2000a200:	40e80833          	sub	a6,a6,a4
2000a204:	01079833          	sll	a6,a5,a6
2000a208:	00a86833          	or	a6,a6,a0
2000a20c:	01003833          	snez	a6,a6
2000a210:	0105e5b3          	or	a1,a1,a6
2000a214:	4701                	li	a4,0
2000a216:	b7c1                	j	2000a1d6 <__subdf3+0x3cc>
2000a218:	00a7e5b3          	or	a1,a5,a0
2000a21c:	00b035b3          	snez	a1,a1
2000a220:	bfd5                	j	2000a214 <__subdf3+0x40a>
2000a222:	00170813          	addi	a6,a4,1
2000a226:	7fe87813          	andi	a6,a6,2046
2000a22a:	06081f63          	bnez	a6,2000a2a8 <__subdf3+0x49e>
2000a22e:	00c36833          	or	a6,t1,a2
2000a232:	00a7ee33          	or	t3,a5,a0
2000a236:	ef21                	bnez	a4,2000a28e <__subdf3+0x484>
2000a238:	000e1763          	bnez	t3,2000a246 <__subdf3+0x43c>
2000a23c:	879a                	mv	a5,t1
2000a23e:	02081a63          	bnez	a6,2000a272 <__subdf3+0x468>
2000a242:	4581                	li	a1,0
2000a244:	bda9                	j	2000a09e <__subdf3+0x294>
2000a246:	12080d63          	beqz	a6,2000a380 <__subdf3+0x576>
2000a24a:	40c508b3          	sub	a7,a0,a2
2000a24e:	01153e33          	sltu	t3,a0,a7
2000a252:	40678833          	sub	a6,a5,t1
2000a256:	41c80833          	sub	a6,a6,t3
2000a25a:	00881e13          	slli	t3,a6,0x8
2000a25e:	020e5163          	bgez	t3,2000a280 <__subdf3+0x476>
2000a262:	40a60533          	sub	a0,a2,a0
2000a266:	00a63733          	sltu	a4,a2,a0
2000a26a:	40f307b3          	sub	a5,t1,a5
2000a26e:	862a                	mv	a2,a0
2000a270:	8f99                	sub	a5,a5,a4
2000a272:	85b6                	mv	a1,a3
2000a274:	00f66733          	or	a4,a2,a5
2000a278:	e20703e3          	beqz	a4,2000a09e <__subdf3+0x294>
2000a27c:	4701                	li	a4,0
2000a27e:	b3fd                	j	2000a06c <__subdf3+0x262>
2000a280:	0108e633          	or	a2,a7,a6
2000a284:	10060963          	beqz	a2,2000a396 <__subdf3+0x58c>
2000a288:	87c2                	mv	a5,a6
2000a28a:	8646                	mv	a2,a7
2000a28c:	b7e5                	j	2000a274 <__subdf3+0x46a>
2000a28e:	000e1a63          	bnez	t3,2000a2a2 <__subdf3+0x498>
2000a292:	85b6                	mv	a1,a3
2000a294:	0e081863          	bnez	a6,2000a384 <__subdf3+0x57a>
2000a298:	4581                	li	a1,0
2000a29a:	004007b7          	lui	a5,0x400
2000a29e:	4601                	li	a2,0
2000a2a0:	a0dd                	j	2000a386 <__subdf3+0x57c>
2000a2a2:	da0806e3          	beqz	a6,2000a04e <__subdf3+0x244>
2000a2a6:	bfcd                	j	2000a298 <__subdf3+0x48e>
2000a2a8:	40c50e33          	sub	t3,a0,a2
2000a2ac:	01c53eb3          	sltu	t4,a0,t3
2000a2b0:	406788b3          	sub	a7,a5,t1
2000a2b4:	41d888b3          	sub	a7,a7,t4
2000a2b8:	00889e93          	slli	t4,a7,0x8
2000a2bc:	8872                	mv	a6,t3
2000a2be:	060ed563          	bgez	t4,2000a328 <__subdf3+0x51e>
2000a2c2:	40a60833          	sub	a6,a2,a0
2000a2c6:	40f308b3          	sub	a7,t1,a5
2000a2ca:	01063633          	sltu	a2,a2,a6
2000a2ce:	40c888b3          	sub	a7,a7,a2
2000a2d2:	85b6                	mv	a1,a3
2000a2d4:	06088163          	beqz	a7,2000a336 <__subdf3+0x52c>
2000a2d8:	60089693          	clz	a3,a7
2000a2dc:	16e1                	addi	a3,a3,-8
2000a2de:	02000793          	li	a5,32
2000a2e2:	8f95                	sub	a5,a5,a3
2000a2e4:	00d898b3          	sll	a7,a7,a3
2000a2e8:	00f857b3          	srl	a5,a6,a5
2000a2ec:	0117e7b3          	or	a5,a5,a7
2000a2f0:	00d81633          	sll	a2,a6,a3
2000a2f4:	08e6c063          	blt	a3,a4,2000a374 <__subdf3+0x56a>
2000a2f8:	8e99                	sub	a3,a3,a4
2000a2fa:	00168813          	addi	a6,a3,1
2000a2fe:	477d                	li	a4,31
2000a300:	02000513          	li	a0,32
2000a304:	05074563          	blt	a4,a6,2000a34e <__subdf3+0x544>
2000a308:	41050533          	sub	a0,a0,a6
2000a30c:	00a79733          	sll	a4,a5,a0
2000a310:	010656b3          	srl	a3,a2,a6
2000a314:	00a61533          	sll	a0,a2,a0
2000a318:	8f55                	or	a4,a4,a3
2000a31a:	00a03533          	snez	a0,a0
2000a31e:	00a76633          	or	a2,a4,a0
2000a322:	0107d7b3          	srl	a5,a5,a6
2000a326:	b7b9                	j	2000a274 <__subdf3+0x46a>
2000a328:	011e6633          	or	a2,t3,a7
2000a32c:	f645                	bnez	a2,2000a2d4 <__subdf3+0x4ca>
2000a32e:	4581                	li	a1,0
2000a330:	4781                	li	a5,0
2000a332:	4701                	li	a4,0
2000a334:	b9d9                	j	2000a00a <__subdf3+0x200>
2000a336:	60081793          	clz	a5,a6
2000a33a:	01878693          	addi	a3,a5,24 # 400018 <HeapSize+0x3ff818>
2000a33e:	467d                	li	a2,31
2000a340:	f8d65fe3          	bge	a2,a3,2000a2de <__subdf3+0x4d4>
2000a344:	17e1                	addi	a5,a5,-8
2000a346:	00f817b3          	sll	a5,a6,a5
2000a34a:	4601                	li	a2,0
2000a34c:	b765                	j	2000a2f4 <__subdf3+0x4ea>
2000a34e:	1685                	addi	a3,a3,-31
2000a350:	00d7d6b3          	srl	a3,a5,a3
2000a354:	4701                	li	a4,0
2000a356:	00a80863          	beq	a6,a0,2000a366 <__subdf3+0x55c>
2000a35a:	04000713          	li	a4,64
2000a35e:	41070733          	sub	a4,a4,a6
2000a362:	00e79733          	sll	a4,a5,a4
2000a366:	8f51                	or	a4,a4,a2
2000a368:	00e03733          	snez	a4,a4
2000a36c:	00e6e633          	or	a2,a3,a4
2000a370:	4781                	li	a5,0
2000a372:	b709                	j	2000a274 <__subdf3+0x46a>
2000a374:	8f15                	sub	a4,a4,a3
2000a376:	49779793          	bclri	a5,a5,0x17
2000a37a:	b9cd                	j	2000a06c <__subdf3+0x262>
2000a37c:	879a                	mv	a5,t1
2000a37e:	bddd                	j	2000a274 <__subdf3+0x46a>
2000a380:	862a                	mv	a2,a0
2000a382:	bdcd                	j	2000a274 <__subdf3+0x46a>
2000a384:	879a                	mv	a5,t1
2000a386:	8746                	mv	a4,a7
2000a388:	b149                	j	2000a00a <__subdf3+0x200>
2000a38a:	8736                	mv	a4,a3
2000a38c:	bb09                	j	2000a09e <__subdf3+0x294>
2000a38e:	85b6                	mv	a1,a3
2000a390:	879a                	mv	a5,t1
2000a392:	8772                	mv	a4,t3
2000a394:	b99d                	j	2000a00a <__subdf3+0x200>
2000a396:	4581                	li	a1,0
2000a398:	4781                	li	a5,0
2000a39a:	b985                	j	2000a00a <__subdf3+0x200>

2000a39c <__unorddf2>:
2000a39c:	001007b7          	lui	a5,0x100
2000a3a0:	17fd                	addi	a5,a5,-1 # fffff <HeapSize+0xff7ff>
2000a3a2:	00b7f733          	and	a4,a5,a1
2000a3a6:	81d1                	srli	a1,a1,0x14
2000a3a8:	8ff5                	and	a5,a5,a3
2000a3aa:	7ff5f593          	andi	a1,a1,2047
2000a3ae:	82d1                	srli	a3,a3,0x14
2000a3b0:	7ff00813          	li	a6,2047
2000a3b4:	7ff6f693          	andi	a3,a3,2047
2000a3b8:	01059563          	bne	a1,a6,2000a3c2 <__unorddf2+0x26>
2000a3bc:	8f49                	or	a4,a4,a0
2000a3be:	4505                	li	a0,1
2000a3c0:	e719                	bnez	a4,2000a3ce <__unorddf2+0x32>
2000a3c2:	4501                	li	a0,0
2000a3c4:	01069563          	bne	a3,a6,2000a3ce <__unorddf2+0x32>
2000a3c8:	8fd1                	or	a5,a5,a2
2000a3ca:	00f03533          	snez	a0,a5
2000a3ce:	8082                	ret

2000a3d0 <__fixdfsi>:
2000a3d0:	0145d713          	srli	a4,a1,0x14
2000a3d4:	00c59793          	slli	a5,a1,0xc
2000a3d8:	7ff77713          	andi	a4,a4,2047
2000a3dc:	3fe00693          	li	a3,1022
2000a3e0:	83b1                	srli	a5,a5,0xc
2000a3e2:	81fd                	srli	a1,a1,0x1f
2000a3e4:	04e6d463          	bge	a3,a4,2000a42c <__fixdfsi+0x5c>
2000a3e8:	41d00693          	li	a3,1053
2000a3ec:	00e6d763          	bge	a3,a4,2000a3fa <__fixdfsi+0x2a>
2000a3f0:	80000537          	lui	a0,0x80000
2000a3f4:	157d                	addi	a0,a0,-1 # 7fffffff <__StackTop+0x5ff7dfff>
2000a3f6:	952e                	add	a0,a0,a1
2000a3f8:	8082                	ret
2000a3fa:	41300693          	li	a3,1043
2000a3fe:	29479793          	bseti	a5,a5,0x14
2000a402:	02e6d163          	bge	a3,a4,2000a424 <__fixdfsi+0x54>
2000a406:	bed70693          	addi	a3,a4,-1043
2000a40a:	00d797b3          	sll	a5,a5,a3
2000a40e:	43300693          	li	a3,1075
2000a412:	40e68733          	sub	a4,a3,a4
2000a416:	00e55533          	srl	a0,a0,a4
2000a41a:	8d5d                	or	a0,a0,a5
2000a41c:	c989                	beqz	a1,2000a42e <__fixdfsi+0x5e>
2000a41e:	40a00533          	neg	a0,a0
2000a422:	8082                	ret
2000a424:	8e99                	sub	a3,a3,a4
2000a426:	00d7d533          	srl	a0,a5,a3
2000a42a:	bfcd                	j	2000a41c <__fixdfsi+0x4c>
2000a42c:	4501                	li	a0,0
2000a42e:	8082                	ret

2000a430 <__fixunsdfsi>:
2000a430:	0145d713          	srli	a4,a1,0x14
2000a434:	00c59793          	slli	a5,a1,0xc
2000a438:	7ff77713          	andi	a4,a4,2047
2000a43c:	3fe00693          	li	a3,1022
2000a440:	862a                	mv	a2,a0
2000a442:	83b1                	srli	a5,a5,0xc
2000a444:	81fd                	srli	a1,a1,0x1f
2000a446:	04e6d263          	bge	a3,a4,2000a48a <__fixunsdfsi+0x5a>
2000a44a:	41f00693          	li	a3,1055
2000a44e:	8e8d                	sub	a3,a3,a1
2000a450:	fff58513          	addi	a0,a1,-1
2000a454:	02d75c63          	bge	a4,a3,2000a48c <__fixunsdfsi+0x5c>
2000a458:	4501                	li	a0,0
2000a45a:	e98d                	bnez	a1,2000a48c <__fixunsdfsi+0x5c>
2000a45c:	41300693          	li	a3,1043
2000a460:	29479793          	bseti	a5,a5,0x14
2000a464:	00e6df63          	bge	a3,a4,2000a482 <__fixunsdfsi+0x52>
2000a468:	bed70693          	addi	a3,a4,-1043
2000a46c:	00d797b3          	sll	a5,a5,a3
2000a470:	43300693          	li	a3,1075
2000a474:	40e68733          	sub	a4,a3,a4
2000a478:	00e65633          	srl	a2,a2,a4
2000a47c:	00c7e533          	or	a0,a5,a2
2000a480:	8082                	ret
2000a482:	8e99                	sub	a3,a3,a4
2000a484:	00d7d533          	srl	a0,a5,a3
2000a488:	8082                	ret
2000a48a:	4501                	li	a0,0
2000a48c:	8082                	ret

2000a48e <__floatsidf>:
2000a48e:	c529                	beqz	a0,2000a4d8 <__floatsidf+0x4a>
2000a490:	40a00733          	neg	a4,a0
2000a494:	0ae56733          	max	a4,a0,a4
2000a498:	01f55613          	srli	a2,a0,0x1f
2000a49c:	60071693          	clz	a3,a4
2000a4a0:	41e00513          	li	a0,1054
2000a4a4:	47a9                	li	a5,10
2000a4a6:	8d15                	sub	a0,a0,a3
2000a4a8:	02d7c363          	blt	a5,a3,2000a4ce <__floatsidf+0x40>
2000a4ac:	47ad                	li	a5,11
2000a4ae:	8f95                	sub	a5,a5,a3
2000a4b0:	06d5                	addi	a3,a3,21
2000a4b2:	00f757b3          	srl	a5,a4,a5
2000a4b6:	00d71733          	sll	a4,a4,a3
2000a4ba:	07b2                	slli	a5,a5,0xc
2000a4bc:	83b1                	srli	a5,a5,0xc
2000a4be:	0552                	slli	a0,a0,0x14
2000a4c0:	8d5d                	or	a0,a0,a5
2000a4c2:	067e                	slli	a2,a2,0x1f
2000a4c4:	00c567b3          	or	a5,a0,a2
2000a4c8:	85be                	mv	a1,a5
2000a4ca:	853a                	mv	a0,a4
2000a4cc:	8082                	ret
2000a4ce:	16d5                	addi	a3,a3,-11
2000a4d0:	00d717b3          	sll	a5,a4,a3
2000a4d4:	4701                	li	a4,0
2000a4d6:	b7d5                	j	2000a4ba <__floatsidf+0x2c>
2000a4d8:	4601                	li	a2,0
2000a4da:	4781                	li	a5,0
2000a4dc:	bfe5                	j	2000a4d4 <__floatsidf+0x46>

2000a4de <__floatunsidf>:
2000a4de:	c91d                	beqz	a0,2000a514 <__floatunsidf+0x36>
2000a4e0:	60051713          	clz	a4,a0
2000a4e4:	41e00693          	li	a3,1054
2000a4e8:	47a9                	li	a5,10
2000a4ea:	8e99                	sub	a3,a3,a4
2000a4ec:	00e7cf63          	blt	a5,a4,2000a50a <__floatunsidf+0x2c>
2000a4f0:	47ad                	li	a5,11
2000a4f2:	8f99                	sub	a5,a5,a4
2000a4f4:	0755                	addi	a4,a4,21
2000a4f6:	00f557b3          	srl	a5,a0,a5
2000a4fa:	00e51533          	sll	a0,a0,a4
2000a4fe:	07b2                	slli	a5,a5,0xc
2000a500:	06d2                	slli	a3,a3,0x14
2000a502:	83b1                	srli	a5,a5,0xc
2000a504:	00f6e5b3          	or	a1,a3,a5
2000a508:	8082                	ret
2000a50a:	1755                	addi	a4,a4,-11
2000a50c:	00e517b3          	sll	a5,a0,a4
2000a510:	4501                	li	a0,0
2000a512:	b7f5                	j	2000a4fe <__floatunsidf+0x20>
2000a514:	4781                	li	a5,0
2000a516:	4681                	li	a3,0
2000a518:	b7dd                	j	2000a4fe <__floatunsidf+0x20>

2000a51a <__divsf3>:
2000a51a:	01755793          	srli	a5,a0,0x17
2000a51e:	00951893          	slli	a7,a0,0x9
2000a522:	0ff7f793          	zext.b	a5,a5
2000a526:	0098d893          	srli	a7,a7,0x9
2000a52a:	01f55e13          	srli	t3,a0,0x1f
2000a52e:	c3ad                	beqz	a5,2000a590 <__divsf3+0x76>
2000a530:	0ff00713          	li	a4,255
2000a534:	06e78b63          	beq	a5,a4,2000a5aa <__divsf3+0x90>
2000a538:	088e                	slli	a7,a7,0x3
2000a53a:	29a89893          	bseti	a7,a7,0x1a
2000a53e:	f8178693          	addi	a3,a5,-127
2000a542:	4301                	li	t1,0
2000a544:	0175d713          	srli	a4,a1,0x17
2000a548:	00959793          	slli	a5,a1,0x9
2000a54c:	0ff77713          	zext.b	a4,a4
2000a550:	83a5                	srli	a5,a5,0x9
2000a552:	81fd                	srli	a1,a1,0x1f
2000a554:	c725                	beqz	a4,2000a5bc <__divsf3+0xa2>
2000a556:	0ff00613          	li	a2,255
2000a55a:	06c70c63          	beq	a4,a2,2000a5d2 <__divsf3+0xb8>
2000a55e:	078e                	slli	a5,a5,0x3
2000a560:	29a79793          	bseti	a5,a5,0x1a
2000a564:	f8170713          	addi	a4,a4,-127
2000a568:	4601                	li	a2,0
2000a56a:	40e68833          	sub	a6,a3,a4
2000a56e:	00231713          	slli	a4,t1,0x2
2000a572:	8f51                	or	a4,a4,a2
2000a574:	177d                	addi	a4,a4,-1
2000a576:	46b9                	li	a3,14
2000a578:	00be4533          	xor	a0,t3,a1
2000a57c:	06e6e263          	bltu	a3,a4,2000a5e0 <__divsf3+0xc6>
2000a580:	2000c6b7          	lui	a3,0x2000c
2000a584:	d0868693          	addi	a3,a3,-760 # 2000bd08 <init_jk+0x48>
2000a588:	20d74733          	sh2add	a4,a4,a3
2000a58c:	4318                	lw	a4,0(a4)
2000a58e:	8702                	jr	a4
2000a590:	02088363          	beqz	a7,2000a5b6 <__divsf3+0x9c>
2000a594:	60089713          	clz	a4,a7
2000a598:	ffb70793          	addi	a5,a4,-5
2000a59c:	00f898b3          	sll	a7,a7,a5
2000a5a0:	f8a00793          	li	a5,-118
2000a5a4:	40e786b3          	sub	a3,a5,a4
2000a5a8:	bf69                	j	2000a542 <__divsf3+0x28>
2000a5aa:	86be                	mv	a3,a5
2000a5ac:	4309                	li	t1,2
2000a5ae:	f8088be3          	beqz	a7,2000a544 <__divsf3+0x2a>
2000a5b2:	430d                	li	t1,3
2000a5b4:	bf41                	j	2000a544 <__divsf3+0x2a>
2000a5b6:	4681                	li	a3,0
2000a5b8:	4305                	li	t1,1
2000a5ba:	b769                	j	2000a544 <__divsf3+0x2a>
2000a5bc:	cf99                	beqz	a5,2000a5da <__divsf3+0xc0>
2000a5be:	60079613          	clz	a2,a5
2000a5c2:	ffb60713          	addi	a4,a2,-5
2000a5c6:	00e797b3          	sll	a5,a5,a4
2000a5ca:	f8a00713          	li	a4,-118
2000a5ce:	8f11                	sub	a4,a4,a2
2000a5d0:	bf61                	j	2000a568 <__divsf3+0x4e>
2000a5d2:	4609                	li	a2,2
2000a5d4:	dbd9                	beqz	a5,2000a56a <__divsf3+0x50>
2000a5d6:	460d                	li	a2,3
2000a5d8:	bf49                	j	2000a56a <__divsf3+0x50>
2000a5da:	4701                	li	a4,0
2000a5dc:	4605                	li	a2,1
2000a5de:	b771                	j	2000a56a <__divsf3+0x50>
2000a5e0:	00579693          	slli	a3,a5,0x5
2000a5e4:	0af8f363          	bgeu	a7,a5,2000a68a <__divsf3+0x170>
2000a5e8:	187d                	addi	a6,a6,-1
2000a5ea:	4701                	li	a4,0
2000a5ec:	0106d313          	srli	t1,a3,0x10
2000a5f0:	0268d633          	divu	a2,a7,t1
2000a5f4:	0806c7b3          	zext.h	a5,a3
2000a5f8:	8341                	srli	a4,a4,0x10
2000a5fa:	0268f8b3          	remu	a7,a7,t1
2000a5fe:	02c785b3          	mul	a1,a5,a2
2000a602:	08c2                	slli	a7,a7,0x10
2000a604:	01176733          	or	a4,a4,a7
2000a608:	00b77863          	bgeu	a4,a1,2000a618 <__divsf3+0xfe>
2000a60c:	9736                	add	a4,a4,a3
2000a60e:	00b77463          	bgeu	a4,a1,2000a616 <__divsf3+0xfc>
2000a612:	08d77163          	bgeu	a4,a3,2000a694 <__divsf3+0x17a>
2000a616:	167d                	addi	a2,a2,-1
2000a618:	8f0d                	sub	a4,a4,a1
2000a61a:	026755b3          	divu	a1,a4,t1
2000a61e:	02677733          	remu	a4,a4,t1
2000a622:	02b787b3          	mul	a5,a5,a1
2000a626:	0742                	slli	a4,a4,0x10
2000a628:	00f77c63          	bgeu	a4,a5,2000a640 <__divsf3+0x126>
2000a62c:	00d708b3          	add	a7,a4,a3
2000a630:	00e8b333          	sltu	t1,a7,a4
2000a634:	8746                	mv	a4,a7
2000a636:	00f8f463          	bgeu	a7,a5,2000a63e <__divsf3+0x124>
2000a63a:	06030063          	beqz	t1,2000a69a <__divsf3+0x180>
2000a63e:	15fd                	addi	a1,a1,-1
2000a640:	8f1d                	sub	a4,a4,a5
2000a642:	0642                	slli	a2,a2,0x10
2000a644:	8e4d                	or	a2,a2,a1
2000a646:	00e03733          	snez	a4,a4
2000a64a:	00e667b3          	or	a5,a2,a4
2000a64e:	07f80693          	addi	a3,a6,127
2000a652:	06d05963          	blez	a3,2000a6c4 <__divsf3+0x1aa>
2000a656:	0077f713          	andi	a4,a5,7
2000a65a:	c719                	beqz	a4,2000a668 <__divsf3+0x14e>
2000a65c:	00f7f713          	andi	a4,a5,15
2000a660:	4611                	li	a2,4
2000a662:	00c70363          	beq	a4,a2,2000a668 <__divsf3+0x14e>
2000a666:	97b2                	add	a5,a5,a2
2000a668:	00479713          	slli	a4,a5,0x4
2000a66c:	00075663          	bgez	a4,2000a678 <__divsf3+0x15e>
2000a670:	49b79793          	bclri	a5,a5,0x1b
2000a674:	08080693          	addi	a3,a6,128
2000a678:	0fe00713          	li	a4,254
2000a67c:	838d                	srli	a5,a5,0x3
2000a67e:	08d75a63          	bge	a4,a3,2000a712 <__divsf3+0x1f8>
2000a682:	4781                	li	a5,0
2000a684:	0ff00693          	li	a3,255
2000a688:	a069                	j	2000a712 <__divsf3+0x1f8>
2000a68a:	01f89713          	slli	a4,a7,0x1f
2000a68e:	0018d893          	srli	a7,a7,0x1
2000a692:	bfa9                	j	2000a5ec <__divsf3+0xd2>
2000a694:	1679                	addi	a2,a2,-2
2000a696:	9736                	add	a4,a4,a3
2000a698:	b741                	j	2000a618 <__divsf3+0xfe>
2000a69a:	15f9                	addi	a1,a1,-2
2000a69c:	00d88733          	add	a4,a7,a3
2000a6a0:	b745                	j	2000a640 <__divsf3+0x126>
2000a6a2:	852e                	mv	a0,a1
2000a6a4:	4709                	li	a4,2
2000a6a6:	fce60ee3          	beq	a2,a4,2000a682 <__divsf3+0x168>
2000a6aa:	470d                	li	a4,3
2000a6ac:	04e60e63          	beq	a2,a4,2000a708 <__divsf3+0x1ee>
2000a6b0:	4705                	li	a4,1
2000a6b2:	f8e61ee3          	bne	a2,a4,2000a64e <__divsf3+0x134>
2000a6b6:	4781                	li	a5,0
2000a6b8:	4681                	li	a3,0
2000a6ba:	a8a1                	j	2000a712 <__divsf3+0x1f8>
2000a6bc:	8572                	mv	a0,t3
2000a6be:	87c6                	mv	a5,a7
2000a6c0:	861a                	mv	a2,t1
2000a6c2:	b7cd                	j	2000a6a4 <__divsf3+0x18a>
2000a6c4:	c2a1                	beqz	a3,2000a704 <__divsf3+0x1ea>
2000a6c6:	5719                	li	a4,-26
2000a6c8:	fee6c7e3          	blt	a3,a4,2000a6b6 <__divsf3+0x19c>
2000a6cc:	4705                	li	a4,1
2000a6ce:	8f15                	sub	a4,a4,a3
2000a6d0:	09e80693          	addi	a3,a6,158
2000a6d4:	00e7d733          	srl	a4,a5,a4
2000a6d8:	00d797b3          	sll	a5,a5,a3
2000a6dc:	00f037b3          	snez	a5,a5
2000a6e0:	8fd9                	or	a5,a5,a4
2000a6e2:	0077f713          	andi	a4,a5,7
2000a6e6:	c719                	beqz	a4,2000a6f4 <__divsf3+0x1da>
2000a6e8:	00f7f713          	andi	a4,a5,15
2000a6ec:	4691                	li	a3,4
2000a6ee:	00d70363          	beq	a4,a3,2000a6f4 <__divsf3+0x1da>
2000a6f2:	97b6                	add	a5,a5,a3
2000a6f4:	00579713          	slli	a4,a5,0x5
2000a6f8:	838d                	srli	a5,a5,0x3
2000a6fa:	fa075fe3          	bgez	a4,2000a6b8 <__divsf3+0x19e>
2000a6fe:	4781                	li	a5,0
2000a700:	4685                	li	a3,1
2000a702:	a801                	j	2000a712 <__divsf3+0x1f8>
2000a704:	4705                	li	a4,1
2000a706:	b7e9                	j	2000a6d0 <__divsf3+0x1b6>
2000a708:	004007b7          	lui	a5,0x400
2000a70c:	0ff00693          	li	a3,255
2000a710:	4501                	li	a0,0
2000a712:	07a6                	slli	a5,a5,0x9
2000a714:	83a5                	srli	a5,a5,0x9
2000a716:	06de                	slli	a3,a3,0x17
2000a718:	8edd                	or	a3,a3,a5
2000a71a:	057e                	slli	a0,a0,0x1f
2000a71c:	8d55                	or	a0,a0,a3
2000a71e:	8082                	ret

2000a720 <__eqsf2>:
2000a720:	00800737          	lui	a4,0x800
2000a724:	177d                	addi	a4,a4,-1 # 7fffff <HeapSize+0x7ff7ff>
2000a726:	00a77633          	and	a2,a4,a0
2000a72a:	01755793          	srli	a5,a0,0x17
2000a72e:	0ff7f793          	zext.b	a5,a5
2000a732:	01f55693          	srli	a3,a0,0x1f
2000a736:	8f6d                	and	a4,a4,a1
2000a738:	01f5d893          	srli	a7,a1,0x1f
2000a73c:	c611                	beqz	a2,2000a748 <__eqsf2+0x28>
2000a73e:	f0178813          	addi	a6,a5,-255 # 3fff01 <HeapSize+0x3ff701>
2000a742:	4505                	li	a0,1
2000a744:	02080763          	beqz	a6,2000a772 <__eqsf2+0x52>
2000a748:	81dd                	srli	a1,a1,0x17
2000a74a:	0ff5f593          	zext.b	a1,a1
2000a74e:	c711                	beqz	a4,2000a75a <__eqsf2+0x3a>
2000a750:	f0158813          	addi	a6,a1,-255
2000a754:	4505                	li	a0,1
2000a756:	00080e63          	beqz	a6,2000a772 <__eqsf2+0x52>
2000a75a:	00e61b63          	bne	a2,a4,2000a770 <__eqsf2+0x50>
2000a75e:	00b79963          	bne	a5,a1,2000a770 <__eqsf2+0x50>
2000a762:	4501                	li	a0,0
2000a764:	01168763          	beq	a3,a7,2000a772 <__eqsf2+0x52>
2000a768:	8fd1                	or	a5,a5,a2
2000a76a:	00f03533          	snez	a0,a5
2000a76e:	8082                	ret
2000a770:	4505                	li	a0,1
2000a772:	8082                	ret

2000a774 <__gesf2>:
2000a774:	00800737          	lui	a4,0x800
2000a778:	177d                	addi	a4,a4,-1 # 7fffff <HeapSize+0x7ff7ff>
2000a77a:	00a77633          	and	a2,a4,a0
2000a77e:	01755693          	srli	a3,a0,0x17
2000a782:	0ff6f693          	zext.b	a3,a3
2000a786:	01f55793          	srli	a5,a0,0x1f
2000a78a:	8f6d                	and	a4,a4,a1
2000a78c:	01f5d893          	srli	a7,a1,0x1f
2000a790:	c611                	beqz	a2,2000a79c <__gesf2+0x28>
2000a792:	f0168813          	addi	a6,a3,-255
2000a796:	5579                	li	a0,-2
2000a798:	04080b63          	beqz	a6,2000a7ee <__gesf2+0x7a>
2000a79c:	81dd                	srli	a1,a1,0x17
2000a79e:	0ff5f593          	zext.b	a1,a1
2000a7a2:	c711                	beqz	a4,2000a7ae <__gesf2+0x3a>
2000a7a4:	f0158813          	addi	a6,a1,-255
2000a7a8:	5579                	li	a0,-2
2000a7aa:	04080263          	beqz	a6,2000a7ee <__gesf2+0x7a>
2000a7ae:	00c6e533          	or	a0,a3,a2
2000a7b2:	00e5e833          	or	a6,a1,a4
2000a7b6:	e519                	bnez	a0,2000a7c4 <__gesf2+0x50>
2000a7b8:	02080b63          	beqz	a6,2000a7ee <__gesf2+0x7a>
2000a7bc:	00189513          	slli	a0,a7,0x1
2000a7c0:	157d                	addi	a0,a0,-1
2000a7c2:	8082                	ret
2000a7c4:	00081763          	bnez	a6,2000a7d2 <__gesf2+0x5e>
2000a7c8:	40f007b3          	neg	a5,a5
2000a7cc:	0017e513          	ori	a0,a5,1
2000a7d0:	8082                	ret
2000a7d2:	ff179be3          	bne	a5,a7,2000a7c8 <__gesf2+0x54>
2000a7d6:	fed5c9e3          	blt	a1,a3,2000a7c8 <__gesf2+0x54>
2000a7da:	00b6d563          	bge	a3,a1,2000a7e4 <__gesf2+0x70>
2000a7de:	00179513          	slli	a0,a5,0x1
2000a7e2:	bff9                	j	2000a7c0 <__gesf2+0x4c>
2000a7e4:	fec762e3          	bltu	a4,a2,2000a7c8 <__gesf2+0x54>
2000a7e8:	4501                	li	a0,0
2000a7ea:	fee66ae3          	bltu	a2,a4,2000a7de <__gesf2+0x6a>
2000a7ee:	8082                	ret

2000a7f0 <__lesf2>:
2000a7f0:	00800737          	lui	a4,0x800
2000a7f4:	177d                	addi	a4,a4,-1 # 7fffff <HeapSize+0x7ff7ff>
2000a7f6:	00a77633          	and	a2,a4,a0
2000a7fa:	01755693          	srli	a3,a0,0x17
2000a7fe:	0ff6f693          	zext.b	a3,a3
2000a802:	01f55793          	srli	a5,a0,0x1f
2000a806:	8f6d                	and	a4,a4,a1
2000a808:	01f5d893          	srli	a7,a1,0x1f
2000a80c:	c611                	beqz	a2,2000a818 <__lesf2+0x28>
2000a80e:	f0168813          	addi	a6,a3,-255
2000a812:	4509                	li	a0,2
2000a814:	04080b63          	beqz	a6,2000a86a <__lesf2+0x7a>
2000a818:	81dd                	srli	a1,a1,0x17
2000a81a:	0ff5f593          	zext.b	a1,a1
2000a81e:	c711                	beqz	a4,2000a82a <__lesf2+0x3a>
2000a820:	f0158813          	addi	a6,a1,-255
2000a824:	4509                	li	a0,2
2000a826:	04080263          	beqz	a6,2000a86a <__lesf2+0x7a>
2000a82a:	00c6e533          	or	a0,a3,a2
2000a82e:	00e5e833          	or	a6,a1,a4
2000a832:	e519                	bnez	a0,2000a840 <__lesf2+0x50>
2000a834:	02080b63          	beqz	a6,2000a86a <__lesf2+0x7a>
2000a838:	00189513          	slli	a0,a7,0x1
2000a83c:	157d                	addi	a0,a0,-1
2000a83e:	8082                	ret
2000a840:	00081763          	bnez	a6,2000a84e <__lesf2+0x5e>
2000a844:	40f007b3          	neg	a5,a5
2000a848:	0017e513          	ori	a0,a5,1
2000a84c:	8082                	ret
2000a84e:	ff179be3          	bne	a5,a7,2000a844 <__lesf2+0x54>
2000a852:	fed5c9e3          	blt	a1,a3,2000a844 <__lesf2+0x54>
2000a856:	00b6d563          	bge	a3,a1,2000a860 <__lesf2+0x70>
2000a85a:	00179513          	slli	a0,a5,0x1
2000a85e:	bff9                	j	2000a83c <__lesf2+0x4c>
2000a860:	fec762e3          	bltu	a4,a2,2000a844 <__lesf2+0x54>
2000a864:	4501                	li	a0,0
2000a866:	fee66ae3          	bltu	a2,a4,2000a85a <__lesf2+0x6a>
2000a86a:	8082                	ret

2000a86c <__unordsf2>:
2000a86c:	008007b7          	lui	a5,0x800
2000a870:	17fd                	addi	a5,a5,-1 # 7fffff <HeapSize+0x7ff7ff>
2000a872:	00a7f733          	and	a4,a5,a0
2000a876:	815d                	srli	a0,a0,0x17
2000a878:	0ff57513          	zext.b	a0,a0
2000a87c:	f0150513          	addi	a0,a0,-255
2000a880:	8fed                	and	a5,a5,a1
2000a882:	e119                	bnez	a0,2000a888 <__unordsf2+0x1c>
2000a884:	4505                	li	a0,1
2000a886:	ef01                	bnez	a4,2000a89e <__unordsf2+0x32>
2000a888:	81dd                	srli	a1,a1,0x17
2000a88a:	0ff5f593          	zext.b	a1,a1
2000a88e:	f0158593          	addi	a1,a1,-255
2000a892:	00f037b3          	snez	a5,a5
2000a896:	0015b593          	seqz	a1,a1
2000a89a:	00b7f533          	and	a0,a5,a1
2000a89e:	8082                	ret

2000a8a0 <__fixsfsi>:
2000a8a0:	01755713          	srli	a4,a0,0x17
2000a8a4:	00951793          	slli	a5,a0,0x9
2000a8a8:	0ff77713          	zext.b	a4,a4
2000a8ac:	07e00613          	li	a2,126
2000a8b0:	83a5                	srli	a5,a5,0x9
2000a8b2:	01f55693          	srli	a3,a0,0x1f
2000a8b6:	02e65f63          	bge	a2,a4,2000a8f4 <__fixsfsi+0x54>
2000a8ba:	09d00613          	li	a2,157
2000a8be:	00e65763          	bge	a2,a4,2000a8cc <__fixsfsi+0x2c>
2000a8c2:	80000537          	lui	a0,0x80000
2000a8c6:	157d                	addi	a0,a0,-1 # 7fffffff <__StackTop+0x5ff7dfff>
2000a8c8:	9536                	add	a0,a0,a3
2000a8ca:	8082                	ret
2000a8cc:	29779513          	bseti	a0,a5,0x17
2000a8d0:	09500793          	li	a5,149
2000a8d4:	00e7da63          	bge	a5,a4,2000a8e8 <__fixsfsi+0x48>
2000a8d8:	f6a70713          	addi	a4,a4,-150
2000a8dc:	00e51533          	sll	a0,a0,a4
2000a8e0:	ca99                	beqz	a3,2000a8f6 <__fixsfsi+0x56>
2000a8e2:	40a00533          	neg	a0,a0
2000a8e6:	8082                	ret
2000a8e8:	09600793          	li	a5,150
2000a8ec:	8f99                	sub	a5,a5,a4
2000a8ee:	00f55533          	srl	a0,a0,a5
2000a8f2:	b7fd                	j	2000a8e0 <__fixsfsi+0x40>
2000a8f4:	4501                	li	a0,0
2000a8f6:	8082                	ret

2000a8f8 <__fixunssfsi>:
2000a8f8:	01755793          	srli	a5,a0,0x17
2000a8fc:	00951693          	slli	a3,a0,0x9
2000a900:	0ff7f793          	zext.b	a5,a5
2000a904:	07e00613          	li	a2,126
2000a908:	82a5                	srli	a3,a3,0x9
2000a90a:	01f55713          	srli	a4,a0,0x1f
2000a90e:	02f65d63          	bge	a2,a5,2000a948 <__fixunssfsi+0x50>
2000a912:	09f00613          	li	a2,159
2000a916:	8e19                	sub	a2,a2,a4
2000a918:	fff70513          	addi	a0,a4,-1
2000a91c:	02c7d763          	bge	a5,a2,2000a94a <__fixunssfsi+0x52>
2000a920:	4501                	li	a0,0
2000a922:	e705                	bnez	a4,2000a94a <__fixunssfsi+0x52>
2000a924:	09500713          	li	a4,149
2000a928:	29769513          	bseti	a0,a3,0x17
2000a92c:	00f75763          	bge	a4,a5,2000a93a <__fixunssfsi+0x42>
2000a930:	f6a78793          	addi	a5,a5,-150
2000a934:	00f51533          	sll	a0,a0,a5
2000a938:	8082                	ret
2000a93a:	09600713          	li	a4,150
2000a93e:	40f707b3          	sub	a5,a4,a5
2000a942:	00f55533          	srl	a0,a0,a5
2000a946:	8082                	ret
2000a948:	4501                	li	a0,0
2000a94a:	8082                	ret

2000a94c <__floatsisf>:
2000a94c:	c559                	beqz	a0,2000a9da <__floatsisf+0x8e>
2000a94e:	40a007b3          	neg	a5,a0
2000a952:	0af567b3          	max	a5,a0,a5
2000a956:	01f55613          	srli	a2,a0,0x1f
2000a95a:	60079713          	clz	a4,a5
2000a95e:	09e00513          	li	a0,158
2000a962:	469d                	li	a3,7
2000a964:	8d19                	sub	a0,a0,a4
2000a966:	00e6df63          	bge	a3,a4,2000a984 <__floatsisf+0x38>
2000a96a:	46a1                	li	a3,8
2000a96c:	06d70a63          	beq	a4,a3,2000a9e0 <__floatsisf+0x94>
2000a970:	1761                	addi	a4,a4,-8
2000a972:	00e797b3          	sll	a5,a5,a4
2000a976:	07a6                	slli	a5,a5,0x9
2000a978:	83a5                	srli	a5,a5,0x9
2000a97a:	055e                	slli	a0,a0,0x17
2000a97c:	8d5d                	or	a0,a0,a5
2000a97e:	067e                	slli	a2,a2,0x1f
2000a980:	8d51                	or	a0,a0,a2
2000a982:	8082                	ret
2000a984:	4691                	li	a3,4
2000a986:	4595                	li	a1,5
2000a988:	04e6c263          	blt	a3,a4,2000a9cc <__floatsisf+0x80>
2000a98c:	01b70693          	addi	a3,a4,27
2000a990:	00d796b3          	sll	a3,a5,a3
2000a994:	8d99                	sub	a1,a1,a4
2000a996:	00d036b3          	snez	a3,a3
2000a99a:	00b7d7b3          	srl	a5,a5,a1
2000a99e:	8fd5                	or	a5,a5,a3
2000a9a0:	0077f593          	andi	a1,a5,7
2000a9a4:	49a79693          	bclri	a3,a5,0x1a
2000a9a8:	cd99                	beqz	a1,2000a9c6 <__floatsisf+0x7a>
2000a9aa:	8bbd                	andi	a5,a5,15
2000a9ac:	4591                	li	a1,4
2000a9ae:	00b78c63          	beq	a5,a1,2000a9c6 <__floatsisf+0x7a>
2000a9b2:	96ae                	add	a3,a3,a1
2000a9b4:	00569793          	slli	a5,a3,0x5
2000a9b8:	0007d763          	bgez	a5,2000a9c6 <__floatsisf+0x7a>
2000a9bc:	09f00513          	li	a0,159
2000a9c0:	49a69693          	bclri	a3,a3,0x1a
2000a9c4:	8d19                	sub	a0,a0,a4
2000a9c6:	0036d793          	srli	a5,a3,0x3
2000a9ca:	b775                	j	2000a976 <__floatsisf+0x2a>
2000a9cc:	fcb70ae3          	beq	a4,a1,2000a9a0 <__floatsisf+0x54>
2000a9d0:	ffb70693          	addi	a3,a4,-5
2000a9d4:	00d797b3          	sll	a5,a5,a3
2000a9d8:	b7e1                	j	2000a9a0 <__floatsisf+0x54>
2000a9da:	4601                	li	a2,0
2000a9dc:	4781                	li	a5,0
2000a9de:	bf61                	j	2000a976 <__floatsisf+0x2a>
2000a9e0:	09600513          	li	a0,150
2000a9e4:	bf49                	j	2000a976 <__floatsisf+0x2a>

2000a9e6 <__floatunsisf>:
2000a9e6:	4701                	li	a4,0
2000a9e8:	cd19                	beqz	a0,2000aa06 <__floatunsisf+0x20>
2000a9ea:	60051793          	clz	a5,a0
2000a9ee:	09e00713          	li	a4,158
2000a9f2:	469d                	li	a3,7
2000a9f4:	8f1d                	sub	a4,a4,a5
2000a9f6:	00f6dd63          	bge	a3,a5,2000aa10 <__floatunsisf+0x2a>
2000a9fa:	46a1                	li	a3,8
2000a9fc:	06d78563          	beq	a5,a3,2000aa66 <__floatunsisf+0x80>
2000aa00:	17e1                	addi	a5,a5,-8
2000aa02:	00f51533          	sll	a0,a0,a5
2000aa06:	0526                	slli	a0,a0,0x9
2000aa08:	075e                	slli	a4,a4,0x17
2000aa0a:	8125                	srli	a0,a0,0x9
2000aa0c:	8d59                	or	a0,a0,a4
2000aa0e:	8082                	ret
2000aa10:	4691                	li	a3,4
2000aa12:	4615                	li	a2,5
2000aa14:	04f6c263          	blt	a3,a5,2000aa58 <__floatunsisf+0x72>
2000aa18:	01b78693          	addi	a3,a5,27
2000aa1c:	00d516b3          	sll	a3,a0,a3
2000aa20:	8e1d                	sub	a2,a2,a5
2000aa22:	00d036b3          	snez	a3,a3
2000aa26:	00c55533          	srl	a0,a0,a2
2000aa2a:	8d55                	or	a0,a0,a3
2000aa2c:	00757613          	andi	a2,a0,7
2000aa30:	49a51693          	bclri	a3,a0,0x1a
2000aa34:	ce19                	beqz	a2,2000aa52 <__floatunsisf+0x6c>
2000aa36:	893d                	andi	a0,a0,15
2000aa38:	4611                	li	a2,4
2000aa3a:	00c50c63          	beq	a0,a2,2000aa52 <__floatunsisf+0x6c>
2000aa3e:	96b2                	add	a3,a3,a2
2000aa40:	00569613          	slli	a2,a3,0x5
2000aa44:	00065763          	bgez	a2,2000aa52 <__floatunsisf+0x6c>
2000aa48:	09f00713          	li	a4,159
2000aa4c:	49a69693          	bclri	a3,a3,0x1a
2000aa50:	8f1d                	sub	a4,a4,a5
2000aa52:	0036d513          	srli	a0,a3,0x3
2000aa56:	bf45                	j	2000aa06 <__floatunsisf+0x20>
2000aa58:	fcc78ae3          	beq	a5,a2,2000aa2c <__floatunsisf+0x46>
2000aa5c:	ffb78693          	addi	a3,a5,-5
2000aa60:	00d51533          	sll	a0,a0,a3
2000aa64:	b7e1                	j	2000aa2c <__floatunsisf+0x46>
2000aa66:	09600713          	li	a4,150
2000aa6a:	bf71                	j	2000aa06 <__floatunsisf+0x20>

2000aa6c <__floatundisf>:
2000aa6c:	1101                	addi	sp,sp,-32
2000aa6e:	ca26                	sw	s1,20(sp)
2000aa70:	ce06                	sw	ra,28(sp)
2000aa72:	cc22                	sw	s0,24(sp)
2000aa74:	c84a                	sw	s2,16(sp)
2000aa76:	c64e                	sw	s3,12(sp)
2000aa78:	c452                	sw	s4,8(sp)
2000aa7a:	00b567b3          	or	a5,a0,a1
2000aa7e:	4481                	li	s1,0
2000aa80:	c3d9                	beqz	a5,2000ab06 <__floatundisf+0x9a>
2000aa82:	0be00493          	li	s1,190
2000aa86:	cdb1                	beqz	a1,2000aae2 <__floatundisf+0x76>
2000aa88:	60059913          	clz	s2,a1
2000aa8c:	412484b3          	sub	s1,s1,s2
2000aa90:	01b90613          	addi	a2,s2,27
2000aa94:	8a2e                	mv	s4,a1
2000aa96:	89aa                	mv	s3,a0
2000aa98:	2a91                	jal	2000abec <__ashldi3>
2000aa9a:	02500613          	li	a2,37
2000aa9e:	00b567b3          	or	a5,a0,a1
2000aaa2:	41260633          	sub	a2,a2,s2
2000aaa6:	854e                	mv	a0,s3
2000aaa8:	85d2                	mv	a1,s4
2000aaaa:	00f03433          	snez	s0,a5
2000aaae:	2a11                	jal	2000abc2 <__lshrdi3>
2000aab0:	00a467b3          	or	a5,s0,a0
2000aab4:	0077f693          	andi	a3,a5,7
2000aab8:	49a79713          	bclri	a4,a5,0x1a
2000aabc:	c285                	beqz	a3,2000aadc <__floatundisf+0x70>
2000aabe:	8bbd                	andi	a5,a5,15
2000aac0:	4691                	li	a3,4
2000aac2:	00d78d63          	beq	a5,a3,2000aadc <__floatundisf+0x70>
2000aac6:	9736                	add	a4,a4,a3
2000aac8:	00571793          	slli	a5,a4,0x5
2000aacc:	0007d863          	bgez	a5,2000aadc <__floatundisf+0x70>
2000aad0:	0bf00493          	li	s1,191
2000aad4:	49a71713          	bclri	a4,a4,0x1a
2000aad8:	412484b3          	sub	s1,s1,s2
2000aadc:	00375793          	srli	a5,a4,0x3
2000aae0:	a01d                	j	2000ab06 <__floatundisf+0x9a>
2000aae2:	60051713          	clz	a4,a0
2000aae6:	02070913          	addi	s2,a4,32
2000aaea:	02700693          	li	a3,39
2000aaee:	87aa                	mv	a5,a0
2000aaf0:	412484b3          	sub	s1,s1,s2
2000aaf4:	0326d663          	bge	a3,s2,2000ab20 <__floatundisf+0xb4>
2000aaf8:	02800693          	li	a3,40
2000aafc:	04d90163          	beq	s2,a3,2000ab3e <__floatundisf+0xd2>
2000ab00:	1761                	addi	a4,a4,-8
2000ab02:	00e517b3          	sll	a5,a0,a4
2000ab06:	40f2                	lw	ra,28(sp)
2000ab08:	4462                	lw	s0,24(sp)
2000ab0a:	07a6                	slli	a5,a5,0x9
2000ab0c:	01749513          	slli	a0,s1,0x17
2000ab10:	83a5                	srli	a5,a5,0x9
2000ab12:	44d2                	lw	s1,20(sp)
2000ab14:	4942                	lw	s2,16(sp)
2000ab16:	49b2                	lw	s3,12(sp)
2000ab18:	4a22                	lw	s4,8(sp)
2000ab1a:	8d5d                	or	a0,a0,a5
2000ab1c:	6105                	addi	sp,sp,32
2000ab1e:	8082                	ret
2000ab20:	02400693          	li	a3,36
2000ab24:	f726d6e3          	bge	a3,s2,2000aa90 <__floatundisf+0x24>
2000ab28:	02500693          	li	a3,37
2000ab2c:	00d91563          	bne	s2,a3,2000ab36 <__floatundisf+0xca>
2000ab30:	09900493          	li	s1,153
2000ab34:	b741                	j	2000aab4 <__floatundisf+0x48>
2000ab36:	176d                	addi	a4,a4,-5
2000ab38:	00e517b3          	sll	a5,a0,a4
2000ab3c:	bfa5                	j	2000aab4 <__floatundisf+0x48>
2000ab3e:	09600493          	li	s1,150
2000ab42:	b7d1                	j	2000ab06 <__floatundisf+0x9a>

2000ab44 <__extendsfdf2>:
2000ab44:	01755693          	srli	a3,a0,0x17
2000ab48:	0ff6f693          	zext.b	a3,a3
2000ab4c:	00168793          	addi	a5,a3,1
2000ab50:	00951713          	slli	a4,a0,0x9
2000ab54:	0fe7f793          	andi	a5,a5,254
2000ab58:	8325                	srli	a4,a4,0x9
2000ab5a:	817d                	srli	a0,a0,0x1f
2000ab5c:	c385                	beqz	a5,2000ab7c <__extendsfdf2+0x38>
2000ab5e:	00375793          	srli	a5,a4,0x3
2000ab62:	38068693          	addi	a3,a3,896
2000ab66:	0776                	slli	a4,a4,0x1d
2000ab68:	07b2                	slli	a5,a5,0xc
2000ab6a:	83b1                	srli	a5,a5,0xc
2000ab6c:	06d2                	slli	a3,a3,0x14
2000ab6e:	8edd                	or	a3,a3,a5
2000ab70:	057e                	slli	a0,a0,0x1f
2000ab72:	00a6e7b3          	or	a5,a3,a0
2000ab76:	85be                	mv	a1,a5
2000ab78:	853a                	mv	a0,a4
2000ab7a:	8082                	ret
2000ab7c:	ea8d                	bnez	a3,2000abae <__extendsfdf2+0x6a>
2000ab7e:	d76d                	beqz	a4,2000ab68 <__extendsfdf2+0x24>
2000ab80:	60071613          	clz	a2,a4
2000ab84:	47a9                	li	a5,10
2000ab86:	00c7ce63          	blt	a5,a2,2000aba2 <__extendsfdf2+0x5e>
2000ab8a:	47ad                	li	a5,11
2000ab8c:	8f91                	sub	a5,a5,a2
2000ab8e:	01560693          	addi	a3,a2,21
2000ab92:	00f757b3          	srl	a5,a4,a5
2000ab96:	00d71733          	sll	a4,a4,a3
2000ab9a:	38900693          	li	a3,905
2000ab9e:	8e91                	sub	a3,a3,a2
2000aba0:	b7e1                	j	2000ab68 <__extendsfdf2+0x24>
2000aba2:	ff560793          	addi	a5,a2,-11
2000aba6:	00f717b3          	sll	a5,a4,a5
2000abaa:	4701                	li	a4,0
2000abac:	b7fd                	j	2000ab9a <__extendsfdf2+0x56>
2000abae:	4781                	li	a5,0
2000abb0:	c711                	beqz	a4,2000abbc <__extendsfdf2+0x78>
2000abb2:	00375793          	srli	a5,a4,0x3
2000abb6:	29379793          	bseti	a5,a5,0x13
2000abba:	0776                	slli	a4,a4,0x1d
2000abbc:	7ff00693          	li	a3,2047
2000abc0:	b765                	j	2000ab68 <__extendsfdf2+0x24>

2000abc2 <__lshrdi3>:
2000abc2:	ca09                	beqz	a2,2000abd4 <__lshrdi3+0x12>
2000abc4:	47fd                	li	a5,31
2000abc6:	00c7d863          	bge	a5,a2,2000abd6 <__lshrdi3+0x14>
2000abca:	1601                	addi	a2,a2,-32
2000abcc:	00c5d533          	srl	a0,a1,a2
2000abd0:	4701                	li	a4,0
2000abd2:	85ba                	mv	a1,a4
2000abd4:	8082                	ret
2000abd6:	02000793          	li	a5,32
2000abda:	8f91                	sub	a5,a5,a2
2000abdc:	00c5d733          	srl	a4,a1,a2
2000abe0:	00c55533          	srl	a0,a0,a2
2000abe4:	00f595b3          	sll	a1,a1,a5
2000abe8:	8d4d                	or	a0,a0,a1
2000abea:	b7e5                	j	2000abd2 <__lshrdi3+0x10>

2000abec <__ashldi3>:
2000abec:	ca09                	beqz	a2,2000abfe <__ashldi3+0x12>
2000abee:	47fd                	li	a5,31
2000abf0:	00c7d863          	bge	a5,a2,2000ac00 <__ashldi3+0x14>
2000abf4:	1601                	addi	a2,a2,-32
2000abf6:	00c515b3          	sll	a1,a0,a2
2000abfa:	4701                	li	a4,0
2000abfc:	853a                	mv	a0,a4
2000abfe:	8082                	ret
2000ac00:	02000793          	li	a5,32
2000ac04:	8f91                	sub	a5,a5,a2
2000ac06:	00c51733          	sll	a4,a0,a2
2000ac0a:	00c595b3          	sll	a1,a1,a2
2000ac0e:	00f55533          	srl	a0,a0,a5
2000ac12:	8dc9                	or	a1,a1,a0
2000ac14:	b7e5                	j	2000abfc <__ashldi3+0x10>

2000ac16 <__errno>:
2000ac16:	2000c7b7          	lui	a5,0x2000c
2000ac1a:	19c7a503          	lw	a0,412(a5) # 2000c19c <_impure_ptr>
2000ac1e:	8082                	ret

2000ac20 <strlen>:
2000ac20:	00357793          	andi	a5,a0,3
2000ac24:	872a                	mv	a4,a0
2000ac26:	ef9d                	bnez	a5,2000ac64 <strlen+0x44>
2000ac28:	7f7f86b7          	lui	a3,0x7f7f8
2000ac2c:	f7f68693          	addi	a3,a3,-129 # 7f7f7f7f <__StackTop+0x5f775f7f>
2000ac30:	55fd                	li	a1,-1
2000ac32:	4310                	lw	a2,0(a4)
2000ac34:	0711                	addi	a4,a4,4
2000ac36:	00d677b3          	and	a5,a2,a3
2000ac3a:	97b6                	add	a5,a5,a3
2000ac3c:	8fd1                	or	a5,a5,a2
2000ac3e:	8fd5                	or	a5,a5,a3
2000ac40:	feb789e3          	beq	a5,a1,2000ac32 <strlen+0x12>
2000ac44:	ffc74683          	lbu	a3,-4(a4)
2000ac48:	40a707b3          	sub	a5,a4,a0
2000ac4c:	ca8d                	beqz	a3,2000ac7e <strlen+0x5e>
2000ac4e:	ffd74683          	lbu	a3,-3(a4)
2000ac52:	c29d                	beqz	a3,2000ac78 <strlen+0x58>
2000ac54:	ffe74503          	lbu	a0,-2(a4)
2000ac58:	00a03533          	snez	a0,a0
2000ac5c:	953e                	add	a0,a0,a5
2000ac5e:	1579                	addi	a0,a0,-2
2000ac60:	8082                	ret
2000ac62:	d2f9                	beqz	a3,2000ac28 <strlen+0x8>
2000ac64:	00074783          	lbu	a5,0(a4)
2000ac68:	0705                	addi	a4,a4,1
2000ac6a:	00377693          	andi	a3,a4,3
2000ac6e:	fbf5                	bnez	a5,2000ac62 <strlen+0x42>
2000ac70:	8f09                	sub	a4,a4,a0
2000ac72:	fff70513          	addi	a0,a4,-1
2000ac76:	8082                	ret
2000ac78:	ffd78513          	addi	a0,a5,-3
2000ac7c:	8082                	ret
2000ac7e:	ffc78513          	addi	a0,a5,-4
2000ac82:	8082                	ret

2000ac84 <strcmp>:
2000ac84:	00b56733          	or	a4,a0,a1
2000ac88:	53fd                	li	t2,-1
2000ac8a:	8b0d                	andi	a4,a4,3
2000ac8c:	e779                	bnez	a4,2000ad5a <strcmp+0xd6>
2000ac8e:	7f7f87b7          	lui	a5,0x7f7f8
2000ac92:	f7f78793          	addi	a5,a5,-129 # 7f7f7f7f <__StackTop+0x5f775f7f>
2000ac96:	4110                	lw	a2,0(a0)
2000ac98:	4194                	lw	a3,0(a1)
2000ac9a:	00f672b3          	and	t0,a2,a5
2000ac9e:	00f66333          	or	t1,a2,a5
2000aca2:	92be                	add	t0,t0,a5
2000aca4:	0062e2b3          	or	t0,t0,t1
2000aca8:	0c729763          	bne	t0,t2,2000ad76 <strcmp+0xf2>
2000acac:	06d61863          	bne	a2,a3,2000ad1c <strcmp+0x98>
2000acb0:	4150                	lw	a2,4(a0)
2000acb2:	41d4                	lw	a3,4(a1)
2000acb4:	00f672b3          	and	t0,a2,a5
2000acb8:	00f66333          	or	t1,a2,a5
2000acbc:	92be                	add	t0,t0,a5
2000acbe:	0062e2b3          	or	t0,t0,t1
2000acc2:	0a729863          	bne	t0,t2,2000ad72 <strcmp+0xee>
2000acc6:	04d61b63          	bne	a2,a3,2000ad1c <strcmp+0x98>
2000acca:	4510                	lw	a2,8(a0)
2000accc:	4594                	lw	a3,8(a1)
2000acce:	00f672b3          	and	t0,a2,a5
2000acd2:	00f66333          	or	t1,a2,a5
2000acd6:	92be                	add	t0,t0,a5
2000acd8:	0062e2b3          	or	t0,t0,t1
2000acdc:	0a729163          	bne	t0,t2,2000ad7e <strcmp+0xfa>
2000ace0:	02d61e63          	bne	a2,a3,2000ad1c <strcmp+0x98>
2000ace4:	4550                	lw	a2,12(a0)
2000ace6:	45d4                	lw	a3,12(a1)
2000ace8:	00f672b3          	and	t0,a2,a5
2000acec:	00f66333          	or	t1,a2,a5
2000acf0:	92be                	add	t0,t0,a5
2000acf2:	0062e2b3          	or	t0,t0,t1
2000acf6:	08729a63          	bne	t0,t2,2000ad8a <strcmp+0x106>
2000acfa:	02d61163          	bne	a2,a3,2000ad1c <strcmp+0x98>
2000acfe:	4910                	lw	a2,16(a0)
2000ad00:	4994                	lw	a3,16(a1)
2000ad02:	00f672b3          	and	t0,a2,a5
2000ad06:	00f66333          	or	t1,a2,a5
2000ad0a:	92be                	add	t0,t0,a5
2000ad0c:	0062e2b3          	or	t0,t0,t1
2000ad10:	08729363          	bne	t0,t2,2000ad96 <strcmp+0x112>
2000ad14:	0551                	addi	a0,a0,20
2000ad16:	05d1                	addi	a1,a1,20
2000ad18:	f6d60fe3          	beq	a2,a3,2000ac96 <strcmp+0x12>
2000ad1c:	01061713          	slli	a4,a2,0x10
2000ad20:	01069793          	slli	a5,a3,0x10
2000ad24:	00f71c63          	bne	a4,a5,2000ad3c <strcmp+0xb8>
2000ad28:	01065713          	srli	a4,a2,0x10
2000ad2c:	0106d793          	srli	a5,a3,0x10
2000ad30:	40f70533          	sub	a0,a4,a5
2000ad34:	0ff57593          	zext.b	a1,a0
2000ad38:	e991                	bnez	a1,2000ad4c <strcmp+0xc8>
2000ad3a:	8082                	ret
2000ad3c:	8341                	srli	a4,a4,0x10
2000ad3e:	83c1                	srli	a5,a5,0x10
2000ad40:	40f70533          	sub	a0,a4,a5
2000ad44:	0ff57593          	zext.b	a1,a0
2000ad48:	e191                	bnez	a1,2000ad4c <strcmp+0xc8>
2000ad4a:	8082                	ret
2000ad4c:	0ff77713          	zext.b	a4,a4
2000ad50:	0ff7f793          	zext.b	a5,a5
2000ad54:	40f70533          	sub	a0,a4,a5
2000ad58:	8082                	ret
2000ad5a:	00054603          	lbu	a2,0(a0)
2000ad5e:	0005c683          	lbu	a3,0(a1)
2000ad62:	0505                	addi	a0,a0,1
2000ad64:	0585                	addi	a1,a1,1
2000ad66:	00d61363          	bne	a2,a3,2000ad6c <strcmp+0xe8>
2000ad6a:	fa65                	bnez	a2,2000ad5a <strcmp+0xd6>
2000ad6c:	40d60533          	sub	a0,a2,a3
2000ad70:	8082                	ret
2000ad72:	0511                	addi	a0,a0,4
2000ad74:	0591                	addi	a1,a1,4
2000ad76:	fed612e3          	bne	a2,a3,2000ad5a <strcmp+0xd6>
2000ad7a:	4501                	li	a0,0
2000ad7c:	8082                	ret
2000ad7e:	0521                	addi	a0,a0,8
2000ad80:	05a1                	addi	a1,a1,8
2000ad82:	fcd61ce3          	bne	a2,a3,2000ad5a <strcmp+0xd6>
2000ad86:	4501                	li	a0,0
2000ad88:	8082                	ret
2000ad8a:	0531                	addi	a0,a0,12
2000ad8c:	05b1                	addi	a1,a1,12
2000ad8e:	fcd616e3          	bne	a2,a3,2000ad5a <strcmp+0xd6>
2000ad92:	4501                	li	a0,0
2000ad94:	8082                	ret
2000ad96:	0541                	addi	a0,a0,16
2000ad98:	05c1                	addi	a1,a1,16
2000ad9a:	fcd610e3          	bne	a2,a3,2000ad5a <strcmp+0xd6>
2000ad9e:	4501                	li	a0,0
2000ada0:	8082                	ret
	...
